(dp1
S'GTEX-YJ89'
p2
cnumpy.core.multiarray
_reconstruct
p3
(cnumpy
ndarray
p4
(I0
tS'b'
tRp5
(I1
(I1
I1
tcnumpy
dtype
p6
(S'f8'
I0
I1
tRp7
(I3
S'<'
NNNI-1
I-1
I0
tbI00
S'uW\xd6z\xb7\xe5\xfd\xbf'
tbsS'GTEX-XPVG'
p8
g3
(g4
(I0
tS'b'
tRp9
(I1
(I1
I1
tg7
I00
S'\xecy\xd2dV2\xf0\xbf'
tbsS'GTEX-TMMY'
p10
g3
(g4
(I0
tS'b'
tRp11
(I1
(I1
I1
tg7
I00
S'n\xbc\xed\x18\xc5C\xec\xbf'
tbsS'GTEX-WWYW'
p12
g3
(g4
(I0
tS'b'
tRp13
(I1
(I1
I1
tg7
I00
S'`\xf7\xba\xfd\x04\x95\xf7\xbf'
tbsS'GTEX-111FC'
p14
g3
(g4
(I0
tS'b'
tRp15
(I1
(I1
I1
tg7
I00
S'\xaf\x1f\x1fz\xac\xcd\xe3\xbf'
tbsS'GTEX-139T8'
p16
g3
(g4
(I0
tS'b'
tRp17
(I1
(I1
I1
tg7
I00
S'T\xc7%\xc2>\x9e\xf6?'
tbsS'GTEX-139T6'
p18
g3
(g4
(I0
tS'b'
tRp19
(I1
(I1
I1
tg7
I00
S'\x08\x1c\x1b\t\x1e\x18\xfd?'
tbsS'GTEX-13O1R'
p20
g3
(g4
(I0
tS'b'
tRp21
(I1
(I1
I1
tg7
I00
S'#\x95\x99,\x9d)\x01\xc0'
tbsS'GTEX-TKQ1'
p22
g3
(g4
(I0
tS'b'
tRp23
(I1
(I1
I1
tg7
I00
S'\x0c\x04\xea\x97\x81e\xe8\xbf'
tbsS'GTEX-ZVE1'
p24
g3
(g4
(I0
tS'b'
tRp25
(I1
(I1
I1
tg7
I00
S'\xd3~\xe4\xdf}\x8e\xf8\xbf'
tbsS'GTEX-ZVE2'
p26
g3
(g4
(I0
tS'b'
tRp27
(I1
(I1
I1
tg7
I00
S'\xc7{\x0b\x8fP\x01\x02@'
tbsS'GTEX-Q2AH'
p28
g3
(g4
(I0
tS'b'
tRp29
(I1
(I1
I1
tg7
I00
S'\x87NKH\xb3\x87\xdb\xbf'
tbsS'GTEX-Q2AI'
p30
g3
(g4
(I0
tS'b'
tRp31
(I1
(I1
I1
tg7
I00
S't\n4F\x83}\x17\xc0'
tbsS'GTEX-S32W'
p32
g3
(g4
(I0
tS'b'
tRp33
(I1
(I1
I1
tg7
I00
S'\x8e\xcd9\xf8\xb7\xc8\xe5\xbf'
tbsS'GTEX-ZEX8'
p34
g3
(g4
(I0
tS'b'
tRp35
(I1
(I1
I1
tg7
I00
S'xo\xb1\xf1@\x9e\xf6?'
tbsS'GTEX-13D11'
p36
g3
(g4
(I0
tS'b'
tRp37
(I1
(I1
I1
tg7
I00
S'\x96N\xdc\xa8\x1et\xff?'
tbsS'GTEX-WZTO'
p38
g3
(g4
(I0
tS'b'
tRp39
(I1
(I1
I1
tg7
I00
S'U\x95\x8c\x1f\xabt\xdd?'
tbsS'GTEX-139TU'
p40
g3
(g4
(I0
tS'b'
tRp41
(I1
(I1
I1
tg7
I00
S'\x17x\xd4zo\xcc\xcc\xbf'
tbsS'GTEX-139TS'
p42
g3
(g4
(I0
tS'b'
tRp43
(I1
(I1
I1
tg7
I00
S'\xeaR\xf4\xc3\xa4\x94\xe9\xbf'
tbsS'GTEX-ZF3C'
p44
g3
(g4
(I0
tS'b'
tRp45
(I1
(I1
I1
tg7
I00
S'\x00\x82K\xd71C\x8d\xbf'
tbsS'GTEX-XMK1'
p46
g3
(g4
(I0
tS'b'
tRp47
(I1
(I1
I1
tg7
I00
S'\x93\xa2\re7e\x0c\xc0'
tbsS'GTEX-WHWD'
p48
g3
(g4
(I0
tS'b'
tRp49
(I1
(I1
I1
tg7
I00
S'z0\\A\xc6\x14\xf3\xbf'
tbsS'GTEX-1192W'
p50
g3
(g4
(I0
tS'b'
tRp51
(I1
(I1
I1
tg7
I00
S'.\x8b\x021\xf60\x19\xc0'
tbsS'GTEX-X4XX'
p52
g3
(g4
(I0
tS'b'
tRp53
(I1
(I1
I1
tg7
I00
S'\xc9qg|\x06k\xdd\xbf'
tbsS'GTEX-X4XY'
p54
g3
(g4
(I0
tS'b'
tRp55
(I1
(I1
I1
tg7
I00
S'-\x11\xe2}`6\x06@'
tbsS'GTEX-13CZV'
p56
g3
(g4
(I0
tS'b'
tRp57
(I1
(I1
I1
tg7
I00
S'\xb4\x03TR\xebZ\xed?'
tbsS'GTEX-1192X'
p58
g3
(g4
(I0
tS'b'
tRp59
(I1
(I1
I1
tg7
I00
S'\xd9\x07b\xc3( \xdb?'
tbsS'GTEX-T2YK'
p60
g3
(g4
(I0
tS'b'
tRp61
(I1
(I1
I1
tg7
I00
S'\xe0\xd6\x83\xa2\x05\x08\xf1\xbf'
tbsS'GTEX-YJ8A'
p62
g3
(g4
(I0
tS'b'
tRp63
(I1
(I1
I1
tg7
I00
S'\x12!\xb7\x07/P\x04\xc0'
tbsS'GTEX-SIU8'
p64
g3
(g4
(I0
tS'b'
tRp65
(I1
(I1
I1
tg7
I00
S'j\xe3\xb0\xb5\x1dP\xd2\xbf'
tbsS'GTEX-QEG5'
p66
g3
(g4
(I0
tS'b'
tRp67
(I1
(I1
I1
tg7
I00
S'w\xd0\xdb \xaai\xf8\xbf'
tbsS'GTEX-QEG4'
p68
g3
(g4
(I0
tS'b'
tRp69
(I1
(I1
I1
tg7
I00
S'\xe6\x1f\xc7\x07\x94E\x01@'
tbsS'GTEX-SIU7'
p70
g3
(g4
(I0
tS'b'
tRp71
(I1
(I1
I1
tg7
I00
S'{?\x0c\xf0;\xc0\xff?'
tbsS'GTEX-WI4N'
p72
g3
(g4
(I0
tS'b'
tRp73
(I1
(I1
I1
tg7
I00
S'p#-\xd9\x1d\xbe\x11\xc0'
tbsS'GTEX-OXRL'
p74
g3
(g4
(I0
tS'b'
tRp75
(I1
(I1
I1
tg7
I00
S'3\xe2i\xe1yY\xdd\xbf'
tbsS'GTEX-OXRO'
p76
g3
(g4
(I0
tS'b'
tRp77
(I1
(I1
I1
tg7
I00
S'\xcdY\x10\xa1J\x03\x12\xc0'
tbsS'GTEX-OXRN'
p78
g3
(g4
(I0
tS'b'
tRp79
(I1
(I1
I1
tg7
I00
S'\x9b\xbd\xd3\xf0N\x86\x15\xc0'
tbsS'GTEX-OXRK'
p80
g3
(g4
(I0
tS'b'
tRp81
(I1
(I1
I1
tg7
I00
S'\x8a\x01\xa1\x04\xb1\xea\x08\xc0'
tbsS'GTEX-X261'
p82
g3
(g4
(I0
tS'b'
tRp83
(I1
(I1
I1
tg7
I00
S'\x8cy\x91lcA\x04\xc0'
tbsS'GTEX-UJMC'
p84
g3
(g4
(I0
tS'b'
tRp85
(I1
(I1
I1
tg7
I00
S'\xaa\x88b\xd0k\xfe\x16@'
tbsS'GTEX-SJXC'
p86
g3
(g4
(I0
tS'b'
tRp87
(I1
(I1
I1
tg7
I00
S'\x03Ib|\xae\xc2\x0f@'
tbsS'GTEX-13VXU'
p88
g3
(g4
(I0
tS'b'
tRp89
(I1
(I1
I1
tg7
I00
S's\x00\x94\x13K\xdb\r\xc0'
tbsS'GTEX-13VXT'
p90
g3
(g4
(I0
tS'b'
tRp91
(I1
(I1
I1
tg7
I00
S'\x08E\x17\xdb\x19\x14\xf2\xbf'
tbsS'GTEX-OIZH'
p92
g3
(g4
(I0
tS'b'
tRp93
(I1
(I1
I1
tg7
I00
S'\xfc\xa5\x13\xe6\xca\x8c\xfe?'
tbsS'GTEX-OIZI'
p94
g3
(g4
(I0
tS'b'
tRp95
(I1
(I1
I1
tg7
I00
S'\xc9\x1dT\xde\x85/\x1a\xc0'
tbsS'GTEX-ZAB5'
p96
g3
(g4
(I0
tS'b'
tRp97
(I1
(I1
I1
tg7
I00
S'\xb4\x8b4R\xbf6\x0b\xc0'
tbsS'GTEX-ZAB4'
p98
g3
(g4
(I0
tS'b'
tRp99
(I1
(I1
I1
tg7
I00
S'\x18\xcf\x96|\xa2j\xde\xbf'
tbsS'GTEX-OHPL'
p100
g3
(g4
(I0
tS'b'
tRp101
(I1
(I1
I1
tg7
I00
S'#&\xe3*#\xd6\xfa?'
tbsS'GTEX-OIZG'
p102
g3
(g4
(I0
tS'b'
tRp103
(I1
(I1
I1
tg7
I00
S'\xd7:\xe5\x18\r\x83\xf8?'
tbsS'GTEX-ZY6K'
p104
g3
(g4
(I0
tS'b'
tRp105
(I1
(I1
I1
tg7
I00
S'\xe0f\x92\xe8P\xc6\xfd\xbf'
tbsS'GTEX-11DXW'
p106
g3
(g4
(I0
tS'b'
tRp107
(I1
(I1
I1
tg7
I00
S'>\xdd\xc6\x0e\xe4r\xcb?'
tbsS'GTEX-13CF2'
p108
g3
(g4
(I0
tS'b'
tRp109
(I1
(I1
I1
tg7
I00
S'\xbb\x96[c\xd1\x94\n@'
tbsS'GTEX-13CF3'
p110
g3
(g4
(I0
tS'b'
tRp111
(I1
(I1
I1
tg7
I00
S'!2\x16<\x0c\x1f\xfa?'
tbsS'GTEX-11DXY'
p112
g3
(g4
(I0
tS'b'
tRp113
(I1
(I1
I1
tg7
I00
S'}#\xd8\x96{\xbd\xf9\xbf'
tbsS'GTEX-11DXX'
p114
g3
(g4
(I0
tS'b'
tRp115
(I1
(I1
I1
tg7
I00
S'\xf6\\p\x95\x03\x14\xf7?'
tbsS'GTEX-11DXZ'
p116
g3
(g4
(I0
tS'b'
tRp117
(I1
(I1
I1
tg7
I00
S'\xb6\x0e*\x0f\x19\x01\xf0?'
tbsS'GTEX-13S7M'
p118
g3
(g4
(I0
tS'b'
tRp119
(I1
(I1
I1
tg7
I00
S'\xdbv\xf9\x04\x8b\x19\xed?'
tbsS'GTEX-WOFL'
p120
g3
(g4
(I0
tS'b'
tRp121
(I1
(I1
I1
tg7
I00
S'\xc8\xceg\xab\x86.\xee?'
tbsS'GTEX-WOFM'
p122
g3
(g4
(I0
tS'b'
tRp123
(I1
(I1
I1
tg7
I00
S'\xf9\xaf\x05\xab\xcc\x7f\xfa?'
tbsS'GTEX-XUZC'
p124
g3
(g4
(I0
tS'b'
tRp125
(I1
(I1
I1
tg7
I00
S'\xa0\x10JUb!\x01@'
tbsS'GTEX-ZDTS'
p126
g3
(g4
(I0
tS'b'
tRp127
(I1
(I1
I1
tg7
I00
S'\xad\xf7\x9f\xa3/\xfb\xe9\xbf'
tbsS'GTEX-ZDTT'
p128
g3
(g4
(I0
tS'b'
tRp129
(I1
(I1
I1
tg7
I00
S'}\x1c\xa3\x1c\xf4k\x04@'
tbsS'GTEX-PWN1'
p130
g3
(g4
(I0
tS'b'
tRp131
(I1
(I1
I1
tg7
I00
S'\x91\xe7\x89\xf2DY\xfb?'
tbsS'GTEX-N7MS'
p132
g3
(g4
(I0
tS'b'
tRp133
(I1
(I1
I1
tg7
I00
S'\x91\xdc\xfa\xf8-\x84\xe1?'
tbsS'GTEX-N7MT'
p134
g3
(g4
(I0
tS'b'
tRp135
(I1
(I1
I1
tg7
I00
S'8"E\xf4\x12\x12\x06\xc0'
tbsS'GTEX-W5WG'
p136
g3
(g4
(I0
tS'b'
tRp137
(I1
(I1
I1
tg7
I00
S'r\xe4j\x13\xeeJ\xc7?'
tbsS'GTEX-XYKS'
p138
g3
(g4
(I0
tS'b'
tRp139
(I1
(I1
I1
tg7
I00
S'\xc87v\xf6\xdc\xa6\xa9\xbf'
tbsS'GTEX-NPJ7'
p140
g3
(g4
(I0
tS'b'
tRp141
(I1
(I1
I1
tg7
I00
S'\x1c\xd1\x87iL\x0b\xa5\xbf'
tbsS'GTEX-13RTK'
p142
g3
(g4
(I0
tS'b'
tRp143
(I1
(I1
I1
tg7
I00
S'h4\xeb\x97Kf\x03@'
tbsS'GTEX-13RTJ'
p144
g3
(g4
(I0
tS'b'
tRp145
(I1
(I1
I1
tg7
I00
S'F\x96RW~\x1e\xe8\xbf'
tbsS'GTEX-O5YT'
p146
g3
(g4
(I0
tS'b'
tRp147
(I1
(I1
I1
tg7
I00
S'V\xba\x88\xff\xe0\xb6\xc3?'
tbsS'GTEX-O5YW'
p148
g3
(g4
(I0
tS'b'
tRp149
(I1
(I1
I1
tg7
I00
S'~\x1f\xde\xef[S\xed?'
tbsS'GTEX-O5YV'
p150
g3
(g4
(I0
tS'b'
tRp151
(I1
(I1
I1
tg7
I00
S'\xe0 )4;c\x11\xc0'
tbsS'GTEX-WL46'
p152
g3
(g4
(I0
tS'b'
tRp153
(I1
(I1
I1
tg7
I00
S'\xd07+!\xae[\x0e\xc0'
tbsS'GTEX-NPJ8'
p154
g3
(g4
(I0
tS'b'
tRp155
(I1
(I1
I1
tg7
I00
S'|\x1a\xc7\x14\xf3\x9a\xe3?'
tbsS'GTEX-Q2AG'
p156
g3
(g4
(I0
tS'b'
tRp157
(I1
(I1
I1
tg7
I00
S'\xf5\x9a\x17\xcd\x83?\xe4\xbf'
tbsS'GTEX-11EM3'
p158
g3
(g4
(I0
tS'b'
tRp159
(I1
(I1
I1
tg7
I00
S'\xc9\x97)4\x86\xf2\xef?'
tbsS'GTEX-Q734'
p160
g3
(g4
(I0
tS'b'
tRp161
(I1
(I1
I1
tg7
I00
S'\x80:\xa3\xa8\xcc\xfd\x9c?'
tbsS'GTEX-11EMC'
p162
g3
(g4
(I0
tS'b'
tRp163
(I1
(I1
I1
tg7
I00
S'\xea\xb7\x98"t/\xf7\xbf'
tbsS'GTEX-13N11'
p164
g3
(g4
(I0
tS'b'
tRp165
(I1
(I1
I1
tg7
I00
S'\xdb\xd4\xa0\t\xefV\xfa\xbf'
tbsS'GTEX-1128S'
p166
g3
(g4
(I0
tS'b'
tRp167
(I1
(I1
I1
tg7
I00
S'\xcc\xaf\xfa\x04\xcaH\xde?'
tbsS'GTEX-WHSE'
p168
g3
(g4
(I0
tS'b'
tRp169
(I1
(I1
I1
tg7
I00
S'\x8edZfc\xac\xdc?'
tbsS'GTEX-WHSB'
p170
g3
(g4
(I0
tS'b'
tRp171
(I1
(I1
I1
tg7
I00
S'\xc1M\x8dO\x06\xd1\r\xc0'
tbsS'GTEX-133LE'
p172
g3
(g4
(I0
tS'b'
tRp173
(I1
(I1
I1
tg7
I00
S't&\xda\xd4@z\xdd\xbf'
tbsS'GTEX-NL4W'
p174
g3
(g4
(I0
tS'b'
tRp175
(I1
(I1
I1
tg7
I00
S'\x13\x13\xe0o[G\x11\xc0'
tbsS'GTEX-SUCS'
p176
g3
(g4
(I0
tS'b'
tRp177
(I1
(I1
I1
tg7
I00
S'\xf4]\t\xe6\xac\xa9\xcf\xbf'
tbsS'GTEX-13QIC'
p178
g3
(g4
(I0
tS'b'
tRp179
(I1
(I1
I1
tg7
I00
S'\x84\x1b$-\x0b3\xde\xbf'
tbsS'GTEX-ZYY3'
p180
g3
(g4
(I0
tS'b'
tRp181
(I1
(I1
I1
tg7
I00
S'\xa7\xe3\xca\x1a\x85f\xf4\xbf'
tbsS'GTEX-WYBS'
p182
g3
(g4
(I0
tS'b'
tRp183
(I1
(I1
I1
tg7
I00
S'\xb6\x8f3\xff]\xbe\x0e\xc0'
tbsS'GTEX-Y3I4'
p184
g3
(g4
(I0
tS'b'
tRp185
(I1
(I1
I1
tg7
I00
S'\xd5\x8a\xd7\xf4[+\x05@'
tbsS'GTEX-13O21'
p186
g3
(g4
(I0
tS'b'
tRp187
(I1
(I1
I1
tg7
I00
S'Z\xa6\xee\x15\xb0\xc1\xbb?'
tbsS'GTEX-PVOW'
p188
g3
(g4
(I0
tS'b'
tRp189
(I1
(I1
I1
tg7
I00
S'\xbag\x80\x0fq^\xfa?'
tbsS'GTEX-13QBU'
p190
g3
(g4
(I0
tS'b'
tRp191
(I1
(I1
I1
tg7
I00
S'o\x01\x0b\x0e\x0f5\xfb\xbf'
tbsS'GTEX-QEL4'
p192
g3
(g4
(I0
tS'b'
tRp193
(I1
(I1
I1
tg7
I00
S'\xe5/<\xf5W\xcc\xf2?'
tbsS'GTEX-X585'
p194
g3
(g4
(I0
tS'b'
tRp195
(I1
(I1
I1
tg7
I00
S'\x00\xb0\xb9\xb1\xef\xb8\xfe?'
tbsS'GTEX-11VI4'
p196
g3
(g4
(I0
tS'b'
tRp197
(I1
(I1
I1
tg7
I00
S'\xa0\xa1\xe8\x8c];\xff\xbf'
tbsS'GTEX-NL3G'
p198
g3
(g4
(I0
tS'b'
tRp199
(I1
(I1
I1
tg7
I00
S'\x01kK\x9b\x86\x8d)@'
tbsS'GTEX-NL3H'
p200
g3
(g4
(I0
tS'b'
tRp201
(I1
(I1
I1
tg7
I00
S'\xf2\xef\x92\xe3\x17X\x03\xc0'
tbsS'GTEX-139TT'
p202
g3
(g4
(I0
tS'b'
tRp203
(I1
(I1
I1
tg7
I00
S'\xa1\x83B\xb6\x0eu\x08@'
tbsS'GTEX-XUYS'
p204
g3
(g4
(I0
tS'b'
tRp205
(I1
(I1
I1
tg7
I00
S'\xf9\xe3~\xac\x8dU\x07@'
tbsS'GTEX-P4QT'
p206
g3
(g4
(I0
tS'b'
tRp207
(I1
(I1
I1
tg7
I00
S'P\x07>\xd80\xe8\xfe?'
tbsS'GTEX-WYVS'
p208
g3
(g4
(I0
tS'b'
tRp209
(I1
(I1
I1
tg7
I00
S'\x14\x94\xe8IU\xb1\x11@'
tbsS'GTEX-ZVZP'
p210
g3
(g4
(I0
tS'b'
tRp211
(I1
(I1
I1
tg7
I00
S'\xa4\xaf\xa7_\xf7\x87\xe6?'
tbsS'GTEX-ZVZQ'
p212
g3
(g4
(I0
tS'b'
tRp213
(I1
(I1
I1
tg7
I00
S'\x00\xa5n\xd8\xf3q\xdb?'
tbsS'GTEX-P4QS'
p214
g3
(g4
(I0
tS'b'
tRp215
(I1
(I1
I1
tg7
I00
S'\xba\x8ber\xbb\x8e\n\xc0'
tbsS'GTEX-P4QR'
p216
g3
(g4
(I0
tS'b'
tRp217
(I1
(I1
I1
tg7
I00
S'\xfc\xcb\xc1\xe8s\xd3\x12\xc0'
tbsS'GTEX-ZVZO'
p218
g3
(g4
(I0
tS'b'
tRp219
(I1
(I1
I1
tg7
I00
S'\xc5\x1c\xeaO\x7fq\x05@'
tbsS'GTEX-13SLX'
p220
g3
(g4
(I0
tS'b'
tRp221
(I1
(I1
I1
tg7
I00
S'\x89!\xbb\x92bj\xe2?'
tbsS'GTEX-13FXS'
p222
g3
(g4
(I0
tS'b'
tRp223
(I1
(I1
I1
tg7
I00
S'z\xeb\xdf\xefL\xf2\x02@'
tbsS'GTEX-X3Y1'
p224
g3
(g4
(I0
tS'b'
tRp225
(I1
(I1
I1
tg7
I00
S'G-\x82~\xe2\x8a\x00\xc0'
tbsS'GTEX-SE5C'
p226
g3
(g4
(I0
tS'b'
tRp227
(I1
(I1
I1
tg7
I00
S'\xa8O\xf8\xbd\x1e\xef\xf0\xbf'
tbsS'GTEX-OHPK'
p228
g3
(g4
(I0
tS'b'
tRp229
(I1
(I1
I1
tg7
I00
S't\xcfJ\x18\x87\xf3\xe8?'
tbsS'GTEX-Y3IK'
p230
g3
(g4
(I0
tS'b'
tRp231
(I1
(I1
I1
tg7
I00
S'z\xbca\xbe\xef\xcd\xf9?'
tbsS'GTEX-ZF2S'
p232
g3
(g4
(I0
tS'b'
tRp233
(I1
(I1
I1
tg7
I00
S'\x86\x88\xde\x86\xd5\xcc\x01\xc0'
tbsS'GTEX-111YS'
p234
g3
(g4
(I0
tS'b'
tRp235
(I1
(I1
I1
tg7
I00
S'\x12O\xb1\xe5\xd4\x07\xfd?'
tbsS'GTEX-139UW'
p236
g3
(g4
(I0
tS'b'
tRp237
(I1
(I1
I1
tg7
I00
S'\xc34<\x19\xea\xf6\xe8\xbf'
tbsS'GTEX-U3ZG'
p238
g3
(g4
(I0
tS'b'
tRp239
(I1
(I1
I1
tg7
I00
S'Q\x8a\xf5\xf3\x14\xb4\r\xc0'
tbsS'GTEX-U3ZM'
p240
g3
(g4
(I0
tS'b'
tRp241
(I1
(I1
I1
tg7
I00
S'\xa2\xf0z\xff\x05)\xf0\xbf'
tbsS'GTEX-U3ZN'
p242
g3
(g4
(I0
tS'b'
tRp243
(I1
(I1
I1
tg7
I00
S'\xa5\x95\xe5F\xc9\xc7\xe2?'
tbsS'GTEX-ZV6S'
p244
g3
(g4
(I0
tS'b'
tRp245
(I1
(I1
I1
tg7
I00
S'F\xc6?\xcdoZ\xf7?'
tbsS'GTEX-U3ZH'
p246
g3
(g4
(I0
tS'b'
tRp247
(I1
(I1
I1
tg7
I00
S'\xcby\x15\xaf\x8d\x08\xd2\xbf'
tbsS'GTEX-RTLS'
p248
g3
(g4
(I0
tS'b'
tRp249
(I1
(I1
I1
tg7
I00
S'2Y\xda=/\xfd\x01\xc0'
tbsS'GTEX-PWCY'
p250
g3
(g4
(I0
tS'b'
tRp251
(I1
(I1
I1
tg7
I00
S'\xcf+\xe3\xea\xba\x00\xf1?'
tbsS'GTEX-P44H'
p252
g3
(g4
(I0
tS'b'
tRp253
(I1
(I1
I1
tg7
I00
S'[\x7f\x85\x92\x99g\xdf\xbf'
tbsS'GTEX-11WQK'
p254
g3
(g4
(I0
tS'b'
tRp255
(I1
(I1
I1
tg7
I00
S'~\xc3\xb2to\x94\xf6?'
tbsS'GTEX-12696'
p256
g3
(g4
(I0
tS'b'
tRp257
(I1
(I1
I1
tg7
I00
S'\xacS\xfd\xd5\xe5r\xf6?'
tbsS'GTEX-XUW1'
p258
g3
(g4
(I0
tS'b'
tRp259
(I1
(I1
I1
tg7
I00
S'6\xf5\x10\x9fsc\xf8?'
tbsS'GTEX-13JVG'
p260
g3
(g4
(I0
tS'b'
tRp261
(I1
(I1
I1
tg7
I00
S'\xc9X\xf0Pz<\x01@'
tbsS'GTEX-XBEW'
p262
g3
(g4
(I0
tS'b'
tRp263
(I1
(I1
I1
tg7
I00
S'4\xac18\xa6V\xf6\xbf'
tbsS'GTEX-WK11'
p264
g3
(g4
(I0
tS'b'
tRp265
(I1
(I1
I1
tg7
I00
S'\xae\xc1\x05&\xd7\xa0\x01\xc0'
tbsS'GTEX-XBEC'
p266
g3
(g4
(I0
tS'b'
tRp267
(I1
(I1
I1
tg7
I00
S'u\xd6\xc3\x96\xc0W\xfc?'
tbsS'GTEX-XBED'
p268
g3
(g4
(I0
tS'b'
tRp269
(I1
(I1
I1
tg7
I00
S'\xc7\x1aR\\\x1ct\xb4?'
tbsS'GTEX-ZDYS'
p270
g3
(g4
(I0
tS'b'
tRp271
(I1
(I1
I1
tg7
I00
S'\xc52\xf9\x80\xcb\r\xe7\xbf'
tbsS'GTEX-X8HC'
p272
g3
(g4
(I0
tS'b'
tRp273
(I1
(I1
I1
tg7
I00
S'\x8f\xady"\xda\x00\x0e\xc0'
tbsS'GTEX-ZF28'
p274
g3
(g4
(I0
tS'b'
tRp275
(I1
(I1
I1
tg7
I00
S'E\xdd\x92\x00U\xd9\xfc?'
tbsS'GTEX-ZF29'
p276
g3
(g4
(I0
tS'b'
tRp277
(I1
(I1
I1
tg7
I00
S'v\xf0\xd3\x04\x9f\x18\x11\xc0'
tbsS'GTEX-ZV68'
p278
g3
(g4
(I0
tS'b'
tRp279
(I1
(I1
I1
tg7
I00
S'lc\xa9\xd4]"\x13@'
tbsS'GTEX-Y8LW'
p280
g3
(g4
(I0
tS'b'
tRp281
(I1
(I1
I1
tg7
I00
S'\xab\xbc+\xc7D\xce\x04@'
tbsS'GTEX-13CIG'
p282
g3
(g4
(I0
tS'b'
tRp283
(I1
(I1
I1
tg7
I00
S'\xa2Kp\xf7kK\x07\xc0'
tbsS'GTEX-13O61'
p284
g3
(g4
(I0
tS'b'
tRp285
(I1
(I1
I1
tg7
I00
S'=~u\xbe\x19^\xda?'
tbsS'GTEX-12WSC'
p286
g3
(g4
(I0
tS'b'
tRp287
(I1
(I1
I1
tg7
I00
S'\x15\x88\xdb\xd9\\\xb0\xf3\xbf'
tbsS'GTEX-12WSA'
p288
g3
(g4
(I0
tS'b'
tRp289
(I1
(I1
I1
tg7
I00
S'\xde\xe6\x0e\x99\xc2\xf7\x1a@'
tbsS'GTEX-12WSF'
p290
g3
(g4
(I0
tS'b'
tRp291
(I1
(I1
I1
tg7
I00
S'\xf1\x94\x1e\xc8\xe4\x96\x13@'
tbsS'GTEX-12WSG'
p292
g3
(g4
(I0
tS'b'
tRp293
(I1
(I1
I1
tg7
I00
S'\xd2\xfc\x0f\xbcRy\xcc?'
tbsS'GTEX-12WSD'
p294
g3
(g4
(I0
tS'b'
tRp295
(I1
(I1
I1
tg7
I00
S'\x98\x8f4\x90\xae\xe6\xfa\xbf'
tbsS'GTEX-12WSE'
p296
g3
(g4
(I0
tS'b'
tRp297
(I1
(I1
I1
tg7
I00
S'\x9b\x06Q\x8b\xa9 \xe9?'
tbsS'GTEX-12WSJ'
p298
g3
(g4
(I0
tS'b'
tRp299
(I1
(I1
I1
tg7
I00
S'9\x1c\xc6\x98\xea\x1e\xde\xbf'
tbsS'GTEX-12WSK'
p300
g3
(g4
(I0
tS'b'
tRp301
(I1
(I1
I1
tg7
I00
S'.\xeb\xf9Fq4\xed?'
tbsS'GTEX-12WSH'
p302
g3
(g4
(I0
tS'b'
tRp303
(I1
(I1
I1
tg7
I00
S'~z\xf00\xe0\xde\x07\xc0'
tbsS'GTEX-12WSI'
p304
g3
(g4
(I0
tS'b'
tRp305
(I1
(I1
I1
tg7
I00
S'$a\xe12\xe5\xb6\xcd\xbf'
tbsS'GTEX-12WSN'
p306
g3
(g4
(I0
tS'b'
tRp307
(I1
(I1
I1
tg7
I00
S'\x1e\xcb\xbc\x80&T\xc4\xbf'
tbsS'GTEX-12WSL'
p308
g3
(g4
(I0
tS'b'
tRp309
(I1
(I1
I1
tg7
I00
S'Gx7\x80\xbd\xb4\xd7?'
tbsS'GTEX-12WSM'
p310
g3
(g4
(I0
tS'b'
tRp311
(I1
(I1
I1
tg7
I00
S'\xb5\x98\xe4\x9d\x9a\x8f\xf9?'
tbsS'GTEX-13N2G'
p312
g3
(g4
(I0
tS'b'
tRp313
(I1
(I1
I1
tg7
I00
S'\x1b\xba\x0fk\xb4\xcd\xdc?'
tbsS'GTEX-X15G'
p314
g3
(g4
(I0
tS'b'
tRp315
(I1
(I1
I1
tg7
I00
S'3VVY\xee\xaf\x00@'
tbsS'GTEX-YF7O'
p316
g3
(g4
(I0
tS'b'
tRp317
(I1
(I1
I1
tg7
I00
S'@\xfd\xc2P\xb3\x9d\x95?'
tbsS'GTEX-S4P3'
p318
g3
(g4
(I0
tS'b'
tRp319
(I1
(I1
I1
tg7
I00
S'\xe9\x0eQ\xee\x0e\r\x14@'
tbsS'GTEX-X4LF'
p320
g3
(g4
(I0
tS'b'
tRp321
(I1
(I1
I1
tg7
I00
S'X1o5!]\xf6?'
tbsS'GTEX-ZE7O'
p322
g3
(g4
(I0
tS'b'
tRp323
(I1
(I1
I1
tg7
I00
S'N\x1a-\xd1\x84\xa8\xf9\xbf'
tbsS'GTEX-ZQUD'
p324
g3
(g4
(I0
tS'b'
tRp325
(I1
(I1
I1
tg7
I00
S'\xb1\xe2\xeb6C\x85\xc8\xbf'
tbsS'GTEX-ZQG8'
p326
g3
(g4
(I0
tS'b'
tRp327
(I1
(I1
I1
tg7
I00
S'O\xcf3A\x91\x8e\x10\xc0'
tbsS'GTEX-13SLW'
p328
g3
(g4
(I0
tS'b'
tRp329
(I1
(I1
I1
tg7
I00
S'M\xd8\x1b\x9f\x83Z\xe4?'
tbsS'GTEX-WFG7'
p330
g3
(g4
(I0
tS'b'
tRp331
(I1
(I1
I1
tg7
I00
S'\x10\x16_\xf0\xcad\xf6?'
tbsS'GTEX-WFG8'
p332
g3
(g4
(I0
tS'b'
tRp333
(I1
(I1
I1
tg7
I00
S'\xab\xbc\x03\xab\xc07\xe0?'
tbsS'GTEX-RU72'
p334
g3
(g4
(I0
tS'b'
tRp335
(I1
(I1
I1
tg7
I00
S'\xa4\x7f\r{;@\xec\xbf'
tbsS'GTEX-13W46'
p336
g3
(g4
(I0
tS'b'
tRp337
(I1
(I1
I1
tg7
I00
S'\x1a\x19\xb2\xfb9\xde\xf4?'
tbsS'GTEX-UPJH'
p338
g3
(g4
(I0
tS'b'
tRp339
(I1
(I1
I1
tg7
I00
S'bs\xb4=\xe6N\x0c@'
tbsS'GTEX-PW2O'
p340
g3
(g4
(I0
tS'b'
tRp341
(I1
(I1
I1
tg7
I00
S'\x86(\x9bI\x10"\xe7\xbf'
tbsS'GTEX-T8EM'
p342
g3
(g4
(I0
tS'b'
tRp343
(I1
(I1
I1
tg7
I00
S'\x0c\xf0\xdb\xe3+\xe9\x17@'
tbsS'GTEX-XQ3S'
p344
g3
(g4
(I0
tS'b'
tRp345
(I1
(I1
I1
tg7
I00
S']\x1b\xbf\xa76p\x08\xc0'
tbsS'GTEX-ZPCL'
p346
g3
(g4
(I0
tS'b'
tRp347
(I1
(I1
I1
tg7
I00
S'\r\xbf\x10+;P\xde?'
tbsS'GTEX-11ONC'
p348
g3
(g4
(I0
tS'b'
tRp349
(I1
(I1
I1
tg7
I00
S'\x07\xa2\xd1\xd1\rB\xf4?'
tbsS'GTEX-QV44'
p350
g3
(g4
(I0
tS'b'
tRp351
(I1
(I1
I1
tg7
I00
S'OT\x02g\xfc\x7f\xfb?'
tbsS'GTEX-WHPG'
p352
g3
(g4
(I0
tS'b'
tRp353
(I1
(I1
I1
tg7
I00
S'v\x90\xfb[e\xa9\xec?'
tbsS'GTEX-T6MO'
p354
g3
(g4
(I0
tS'b'
tRp355
(I1
(I1
I1
tg7
I00
S'\xc1\xd4Z\xd2\xb3\xe8\xff?'
tbsS'GTEX-T6MN'
p356
g3
(g4
(I0
tS'b'
tRp357
(I1
(I1
I1
tg7
I00
S'4\xdcF\xd3\x99|\xea\xbf'
tbsS'GTEX-XXEK'
p358
g3
(g4
(I0
tS'b'
tRp359
(I1
(I1
I1
tg7
I00
S'\xc6#\xde\x10X\xff\xba\xbf'
tbsS'GTEX-ZTTD'
p360
g3
(g4
(I0
tS'b'
tRp361
(I1
(I1
I1
tg7
I00
S'6\xe8\xbfS\xab\xb2\x02\xc0'
tbsS'GTEX-ZUA1'
p362
g3
(g4
(I0
tS'b'
tRp363
(I1
(I1
I1
tg7
I00
S'N\xdeA\x1a\x17\x99\xd5?'
tbsS'GTEX-OXRP'
p364
g3
(g4
(I0
tS'b'
tRp365
(I1
(I1
I1
tg7
I00
S'\xbb0\x0b\xfb\xca9\xda?'
tbsS'GTEX-13OVL'
p366
g3
(g4
(I0
tS'b'
tRp367
(I1
(I1
I1
tg7
I00
S'I\xc9\xda.`\x84\xfa?'
tbsS'GTEX-13OVJ'
p368
g3
(g4
(I0
tS'b'
tRp369
(I1
(I1
I1
tg7
I00
S'1\xa6\xf9o\xadR\xd7\xbf'
tbsS'GTEX-13OVH'
p370
g3
(g4
(I0
tS'b'
tRp371
(I1
(I1
I1
tg7
I00
S'!,\xf6\xa6\xac\xa1\x01\xc0'
tbsS'GTEX-13OVI'
p372
g3
(g4
(I0
tS'b'
tRp373
(I1
(I1
I1
tg7
I00
S';\x1c\x80`\xff\xd2\x03@'
tbsS'GTEX-13OVG'
p374
g3
(g4
(I0
tS'b'
tRp375
(I1
(I1
I1
tg7
I00
S'l\xf9kB\xc1/\xd8\xbf'
tbsS'GTEX-113IC'
p376
g3
(g4
(I0
tS'b'
tRp377
(I1
(I1
I1
tg7
I00
S'S\x19\\%\xff\xab\x07@'
tbsS'GTEX-XLM4'
p378
g3
(g4
(I0
tS'b'
tRp379
(I1
(I1
I1
tg7
I00
S'\x940t\x90\xec\xf4\x07@'
tbsS'GTEX-13JUV'
p380
g3
(g4
(I0
tS'b'
tRp381
(I1
(I1
I1
tg7
I00
S'\x8f\x00\x04\x94>\xba\xf5?'
tbsS'GTEX-PLZ5'
p382
g3
(g4
(I0
tS'b'
tRp383
(I1
(I1
I1
tg7
I00
S'\x08\x8b\x81Q\xce\xf5\x04\xc0'
tbsS'GTEX-PLZ6'
p384
g3
(g4
(I0
tS'b'
tRp385
(I1
(I1
I1
tg7
I00
S'E\x9ad\xc04\xd7\xd4?'
tbsS'GTEX-ZZPT'
p386
g3
(g4
(I0
tS'b'
tRp387
(I1
(I1
I1
tg7
I00
S'\x89\x0e\xdb\xa52\xda\xef\xbf'
tbsS'GTEX-ZZPU'
p388
g3
(g4
(I0
tS'b'
tRp389
(I1
(I1
I1
tg7
I00
S'o=\xf6\xbcf\xd1\xfb\xbf'
tbsS'GTEX-ZXES'
p390
g3
(g4
(I0
tS'b'
tRp391
(I1
(I1
I1
tg7
I00
S'\x002\x82\xee\xf2\xdd\x04@'
tbsS'GTEX-TSE9'
p392
g3
(g4
(I0
tS'b'
tRp393
(I1
(I1
I1
tg7
I00
S'"=r\x92A\x19\x12\xc0'
tbsS'GTEX-ZC5H'
p394
g3
(g4
(I0
tS'b'
tRp395
(I1
(I1
I1
tg7
I00
S'\xc4\x05d\xfa}\xa3\xf3\xbf'
tbsS'GTEX-QDVN'
p396
g3
(g4
(I0
tS'b'
tRp397
(I1
(I1
I1
tg7
I00
S'\xb7f\x84\xca\xbf}\x00\xc0'
tbsS'GTEX-QDVJ'
p398
g3
(g4
(I0
tS'b'
tRp399
(I1
(I1
I1
tg7
I00
S'\xc22 \xfel\xe4\xf0\xbf'
tbsS'GTEX-P4PP'
p400
g3
(g4
(I0
tS'b'
tRp401
(I1
(I1
I1
tg7
I00
S'*,\xf4\xc9\x99f\xfe\xbf'
tbsS'GTEX-P4PQ'
p402
g3
(g4
(I0
tS'b'
tRp403
(I1
(I1
I1
tg7
I00
S'\x05t\xce\x87\x95\x87\xfb?'
tbsS'GTEX-S4UY'
p404
g3
(g4
(I0
tS'b'
tRp405
(I1
(I1
I1
tg7
I00
S'\xe166A\xc0%\x05\xc0'
tbsS'GTEX-S341'
p406
g3
(g4
(I0
tS'b'
tRp407
(I1
(I1
I1
tg7
I00
S'7\x10\xcc7W\xb2\xe2\xbf'
tbsS'GTEX-11UD1'
p408
g3
(g4
(I0
tS'b'
tRp409
(I1
(I1
I1
tg7
I00
S'\x18u\xe7\xa2\x83\x15\xf4?'
tbsS'GTEX-13FHO'
p410
g3
(g4
(I0
tS'b'
tRp411
(I1
(I1
I1
tg7
I00
S'\xf6\xb9\x02\xf0(v\xe8?'
tbsS'GTEX-13O3O'
p412
g3
(g4
(I0
tS'b'
tRp413
(I1
(I1
I1
tg7
I00
S'\xaa\xfc\x12\xe1\xf1\x81\xe2?'
tbsS'GTEX-13O3Q'
p414
g3
(g4
(I0
tS'b'
tRp415
(I1
(I1
I1
tg7
I00
S'\xbfYjK^\xc8\xe3\xbf'
tbsS'GTEX-13O3P'
p416
g3
(g4
(I0
tS'b'
tRp417
(I1
(I1
I1
tg7
I00
S'\x17\xc9\x84\xc8\x86\x8c\xec?'
tbsS'GTEX-ZYWO'
p418
g3
(g4
(I0
tS'b'
tRp419
(I1
(I1
I1
tg7
I00
S"c\xda\xef\x7f'\xd5\xe9?"
tbsS'GTEX-X638'
p420
g3
(g4
(I0
tS'b'
tRp421
(I1
(I1
I1
tg7
I00
S'\x87\x88\x02g\xc0\xb8\xf1\xbf'
tbsS'GTEX-13111'
p422
g3
(g4
(I0
tS'b'
tRp423
(I1
(I1
I1
tg7
I00
S'I/,>\x05\xcc\xad?'
tbsS'GTEX-13113'
p424
g3
(g4
(I0
tS'b'
tRp425
(I1
(I1
I1
tg7
I00
S'\xb1\x1d\xd0\xa9\xbf\xea\xfc?'
tbsS'GTEX-13112'
p426
g3
(g4
(I0
tS'b'
tRp427
(I1
(I1
I1
tg7
I00
S'#G\xee\xe8\x1eM\x11\xc0'
tbsS'GTEX-POMQ'
p428
g3
(g4
(I0
tS'b'
tRp429
(I1
(I1
I1
tg7
I00
S'\xa1\xe8\x0e\x8f]\x03\xff?'
tbsS'GTEX-PWOO'
p430
g3
(g4
(I0
tS'b'
tRp431
(I1
(I1
I1
tg7
I00
S'\xe1\x08\xee\xc4\xf1\xdb\x05@'
tbsS'GTEX-ZT9W'
p432
g3
(g4
(I0
tS'b'
tRp433
(I1
(I1
I1
tg7
I00
S'\x9cy\xce\x96\xf3\xb6\xd9?'
tbsS'GTEX-ZT9X'
p434
g3
(g4
(I0
tS'b'
tRp435
(I1
(I1
I1
tg7
I00
S'\xef\xa9\x857\x9du\x08@'
tbsS'GTEX-RNOR'
p436
g3
(g4
(I0
tS'b'
tRp437
(I1
(I1
I1
tg7
I00
S'/\x08$8Z\xff\xe6\xbf'
tbsS'GTEX-REY6'
p438
g3
(g4
(I0
tS'b'
tRp439
(I1
(I1
I1
tg7
I00
S'7\xccNL\xab\xf4\x01@'
tbsS'GTEX-111CU'
p440
g3
(g4
(I0
tS'b'
tRp441
(I1
(I1
I1
tg7
I00
S'\x0ciI\xe9m<\xf9?'
tbsS'GTEX-XGQ4'
p442
g3
(g4
(I0
tS'b'
tRp443
(I1
(I1
I1
tg7
I00
S'\xedG\x1b\x10\xb8\x07\x0c\xc0'
tbsS'GTEX-WFJO'
p444
g3
(g4
(I0
tS'b'
tRp445
(I1
(I1
I1
tg7
I00
S'z\x84mz\xbc\xb2\x04@'
tbsS'GTEX-VUSH'
p446
g3
(g4
(I0
tS'b'
tRp447
(I1
(I1
I1
tg7
I00
S'\x0e)M\xdc\x189\x15\xc0'
tbsS'GTEX-XPT6'
p448
g3
(g4
(I0
tS'b'
tRp449
(I1
(I1
I1
tg7
I00
S'Q)*\xa7\x9c\x9b\x06@'
tbsS'GTEX-VUSG'
p450
g3
(g4
(I0
tS'b'
tRp451
(I1
(I1
I1
tg7
I00
S'\xc7w\x07\xd4A/\xf2?'
tbsS'GTEX-TKQ2'
p452
g3
(g4
(I0
tS'b'
tRp453
(I1
(I1
I1
tg7
I00
S'e\x9d\xc8\xe9\x86)\x00@'
tbsS'GTEX-11NV4'
p454
g3
(g4
(I0
tS'b'
tRp455
(I1
(I1
I1
tg7
I00
S'\xf1\xf8\xd8\x9e\xbc$\xeb\xbf'
tbsS'GTEX-Y8DK'
p456
g3
(g4
(I0
tS'b'
tRp457
(I1
(I1
I1
tg7
I00
S':\x07\x94\xfcR2\xe9\xbf'
tbsS'GTEX-ZLFU'
p458
g3
(g4
(I0
tS'b'
tRp459
(I1
(I1
I1
tg7
I00
S'\xcf]\xe0fj\xd4\x02\xc0'
tbsS'GTEX-139YR'
p460
g3
(g4
(I0
tS'b'
tRp461
(I1
(I1
I1
tg7
I00
S'\x10E4\x88w\xa8\xd2\xbf'
tbsS'GTEX-YECK'
p462
g3
(g4
(I0
tS'b'
tRp463
(I1
(I1
I1
tg7
I00
S'\xa3u\xa7G~\xcf\x12@'
tbsS'GTEX-13G51'
p464
g3
(g4
(I0
tS'b'
tRp465
(I1
(I1
I1
tg7
I00
S'4=\xad<B$\x08\xc0'
tbsS'GTEX-ZLV1'
p466
g3
(g4
(I0
tS'b'
tRp467
(I1
(I1
I1
tg7
I00
S'm\xde\xd3\xeb\x13\x1c\xef?'
tbsS'GTEX-13QJ3'
p468
g3
(g4
(I0
tS'b'
tRp469
(I1
(I1
I1
tg7
I00
S'}\x84\x06~fd\x01@'
tbsS'GTEX-T2IS'
p470
g3
(g4
(I0
tS'b'
tRp471
(I1
(I1
I1
tg7
I00
S'\xf5\xd5\xc7\xac\xb1;\xff?'
tbsS'GTEX-ZDXO'
p472
g3
(g4
(I0
tS'b'
tRp473
(I1
(I1
I1
tg7
I00
S'\xd9)\x19\x93\xa9\xb0\xb3?'
tbsS'GTEX-WY7C'
p474
g3
(g4
(I0
tS'b'
tRp475
(I1
(I1
I1
tg7
I00
S'\x86\xf5\r\x8aA\x17\x11\xc0'
tbsS'GTEX-PLZ4'
p476
g3
(g4
(I0
tS'b'
tRp477
(I1
(I1
I1
tg7
I00
S'p\x92\x92\xc3\'"\xd6\xbf'
tbsS'GTEX-13QJC'
p478
g3
(g4
(I0
tS'b'
tRp479
(I1
(I1
I1
tg7
I00
S'\x83\xc9\xa9\x83\x83&\x05\xc0'
tbsS'GTEX-11WQC'
p480
g3
(g4
(I0
tS'b'
tRp481
(I1
(I1
I1
tg7
I00
S'c[$V\x1e\xa1\xd9?'
tbsS'GTEX-YEC4'
p482
g3
(g4
(I0
tS'b'
tRp483
(I1
(I1
I1
tg7
I00
S'@P2\xe9\xe1\x16\xf0\xbf'
tbsS'GTEX-ZTPG'
p484
g3
(g4
(I0
tS'b'
tRp485
(I1
(I1
I1
tg7
I00
S'\xe7\x94\x87\x9d\xb0_\x00\xc0'
tbsS'GTEX-YEC3'
p486
g3
(g4
(I0
tS'b'
tRp487
(I1
(I1
I1
tg7
I00
S"\xc9[u\xd9'&\xf1?"
tbsS'GTEX-T5JW'
p488
g3
(g4
(I0
tS'b'
tRp489
(I1
(I1
I1
tg7
I00
S'4\x16_\xc6\xfd\x8d\xf9?'
tbsS'GTEX-R53T'
p490
g3
(g4
(I0
tS'b'
tRp491
(I1
(I1
I1
tg7
I00
S'\r\xe4\xef\xcd[\x8f\xf8\xbf'
tbsS'GTEX-WQUQ'
p492
g3
(g4
(I0
tS'b'
tRp493
(I1
(I1
I1
tg7
I00
S'&\x98\xac)Z\x1e\xa8\xbf'
tbsS'GTEX-111VG'
p494
g3
(g4
(I0
tS'b'
tRp495
(I1
(I1
I1
tg7
I00
S'CQ\x85\xbbCR\xf7\xbf'
tbsS'GTEX-NFK9'
p496
g3
(g4
(I0
tS'b'
tRp497
(I1
(I1
I1
tg7
I00
S'\xe5\xe9\xbc<C\xa6\xe5\xbf'
tbsS'GTEX-T5JC'
p498
g3
(g4
(I0
tS'b'
tRp499
(I1
(I1
I1
tg7
I00
S'h%\xa6\x80\x1cB\xb7\xbf'
tbsS'GTEX-RVPV'
p500
g3
(g4
(I0
tS'b'
tRp501
(I1
(I1
I1
tg7
I00
S'\x92\xf1b\xaakP\xf1?'
tbsS'GTEX-RVPU'
p502
g3
(g4
(I0
tS'b'
tRp503
(I1
(I1
I1
tg7
I00
S'\xe3\x8c\xd2\x07=Y\x01\xc0'
tbsS'GTEX-UTHO'
p504
g3
(g4
(I0
tS'b'
tRp505
(I1
(I1
I1
tg7
I00
S'\x0e,\x89~)\xc2\x10\xc0'
tbsS'GTEX-11LCK'
p506
g3
(g4
(I0
tS'b'
tRp507
(I1
(I1
I1
tg7
I00
S'\x1a\xb4]m\xb0\x16\xfc\xbf'
tbsS'GTEX-X88G'
p508
g3
(g4
(I0
tS'b'
tRp509
(I1
(I1
I1
tg7
I00
S'7W?s\xab\x07\x11@'
tbsS'GTEX-QLQW'
p510
g3
(g4
(I0
tS'b'
tRp511
(I1
(I1
I1
tg7
I00
S'\xc2`\x90\x84VH\x16\xc0'
tbsS'GTEX-13PL7'
p512
g3
(g4
(I0
tS'b'
tRp513
(I1
(I1
I1
tg7
I00
S'\x17\x0b\x0b\xd8\xf1\xc8\xe2?'
tbsS'GTEX-13PL6'
p514
g3
(g4
(I0
tS'b'
tRp515
(I1
(I1
I1
tg7
I00
S'e\xad\xea\x1d\xd5\xd8\x13\xc0'
tbsS'GTEX-11ZUS'
p516
g3
(g4
(I0
tS'b'
tRp517
(I1
(I1
I1
tg7
I00
S'T\x07\xb5\xb1\xfa\x9f\xc5\xbf'
tbsS'GTEX-WFON'
p518
g3
(g4
(I0
tS'b'
tRp519
(I1
(I1
I1
tg7
I00
S'\xfe\xaa\x83\xde\n\xae\xf2\xbf'
tbsS'GTEX-QVUS'
p520
g3
(g4
(I0
tS'b'
tRp521
(I1
(I1
I1
tg7
I00
S'\xeb\x95sD\x81\xcc\xf0\xbf'
tbsS'GTEX-U8T8'
p522
g3
(g4
(I0
tS'b'
tRp523
(I1
(I1
I1
tg7
I00
S'G\xc7\x01\x942\xa4\xfa?'
tbsS'GTEX-YFCO'
p524
g3
(g4
(I0
tS'b'
tRp525
(I1
(I1
I1
tg7
I00
S'\xdd;\xcc\x05\xb94\x15\xc0'
tbsS'GTEX-P78B'
p526
g3
(g4
(I0
tS'b'
tRp527
(I1
(I1
I1
tg7
I00
S'\xf5\xfdP\x83n\x90\xf8?'
tbsS'GTEX-YFC4'
p528
g3
(g4
(I0
tS'b'
tRp529
(I1
(I1
I1
tg7
I00
S'\xee\xad+\x8b\xb0\xca\xe0\xbf'
tbsS'GTEX-11ZTT'
p530
g3
(g4
(I0
tS'b'
tRp531
(I1
(I1
I1
tg7
I00
S'\x1f\xe6\xd0\xd8\xf2\n\xf7\xbf'
tbsS'GTEX-11ZTS'
p532
g3
(g4
(I0
tS'b'
tRp533
(I1
(I1
I1
tg7
I00
S'\x87\x1c\xafD\xa9\xf3\x00\xc0'
tbsS'GTEX-13PLJ'
p534
g3
(g4
(I0
tS'b'
tRp535
(I1
(I1
I1
tg7
I00
S'\xdc\x9a\xa8\x1d\x92\xac\x02@'
tbsS'GTEX-OOBJ'
p536
g3
(g4
(I0
tS'b'
tRp537
(I1
(I1
I1
tg7
I00
S'\xe0\xe1\xa6\xae>\xdd\xed?'
tbsS'GTEX-XOT4'
p538
g3
(g4
(I0
tS'b'
tRp539
(I1
(I1
I1
tg7
I00
S'\x9e\x98\x1d\xd6\xb5\xac\x05\xc0'
tbsS'GTEX-S4Q7'
p540
g3
(g4
(I0
tS'b'
tRp541
(I1
(I1
I1
tg7
I00
S'\xd8/\x88\x12\x14\x84\xe5\xbf'
tbsS'GTEX-13FLW'
p542
g3
(g4
(I0
tS'b'
tRp543
(I1
(I1
I1
tg7
I00
S'*\xaf9\x03N\x10\x14\xc0'
tbsS'GTEX-13FLV'
p544
g3
(g4
(I0
tS'b'
tRp545
(I1
(I1
I1
tg7
I00
S'\xea\xa4\xa4\xa6&p\x0b\xc0'
tbsS'GTEX-QLQ7'
p546
g3
(g4
(I0
tS'b'
tRp547
(I1
(I1
I1
tg7
I00
S'@}[\xc4s\xe8\xdb\xbf'
tbsS'GTEX-RN64'
p548
g3
(g4
(I0
tS'b'
tRp549
(I1
(I1
I1
tg7
I00
S'+\x85z5)\xe5\xf0?'
tbsS'GTEX-ZYT6'
p550
g3
(g4
(I0
tS'b'
tRp551
(I1
(I1
I1
tg7
I00
S'\xb1\xb0\x0c\xb0\x86 \x00@'
tbsS'GTEX-11XUK'
p552
g3
(g4
(I0
tS'b'
tRp553
(I1
(I1
I1
tg7
I00
S'5s\x9fu\xcca\xfa?'
tbsS'GTEX-ZTSS'
p554
g3
(g4
(I0
tS'b'
tRp555
(I1
(I1
I1
tg7
I00
S'\xfa*\xca\xc1\t\xd7\xf7?'
tbsS'GTEX-1117F'
p556
g3
(g4
(I0
tS'b'
tRp557
(I1
(I1
I1
tg7
I00
S't\xf2\x0ez\x10\x93\xf7\xbf'
tbsS'GTEX-113JC'
p558
g3
(g4
(I0
tS'b'
tRp559
(I1
(I1
I1
tg7
I00
S'\x19S\xbe\xd8\xc8\x15\xe7?'
tbsS'GTEX-Z9EW'
p560
g3
(g4
(I0
tS'b'
tRp561
(I1
(I1
I1
tg7
I00
S'\x9bH\xac^\xd9\xaa\x01@'
tbsS'GTEX-ZPU1'
p562
g3
(g4
(I0
tS'b'
tRp563
(I1
(I1
I1
tg7
I00
S'@z\x8aE\xd5\xb5\xe7?'
tbsS'GTEX-XUJ4'
p564
g3
(g4
(I0
tS'b'
tRp565
(I1
(I1
I1
tg7
I00
S'\xccrd\x124\xaf\xf8?'
tbsS'GTEX-11DZ1'
p566
g3
(g4
(I0
tS'b'
tRp567
(I1
(I1
I1
tg7
I00
S'V\xfbSf\xfd\x0b\xde\xbf'
tbsS'GTEX-R3RS'
p568
g3
(g4
(I0
tS'b'
tRp569
(I1
(I1
I1
tg7
I00
S'\xddX#J\xbb\x19\xfa\xbf'
tbsS'GTEX-13NZ8'
p570
g3
(g4
(I0
tS'b'
tRp571
(I1
(I1
I1
tg7
I00
S'W\x94\xb6\xf5[\x01\x12\xc0'
tbsS'GTEX-QMR6'
p572
g3
(g4
(I0
tS'b'
tRp573
(I1
(I1
I1
tg7
I00
S'}\x00\n8j\xf3\x03@'
tbsS'GTEX-WRHU'
p574
g3
(g4
(I0
tS'b'
tRp575
(I1
(I1
I1
tg7
I00
S'\x91\xdd8s\xce\xf6\x10@'
tbsS'GTEX-WCDI'
p576
g3
(g4
(I0
tS'b'
tRp577
(I1
(I1
I1
tg7
I00
S'u\xd63.x\x15\xac\xbf'
tbsS'GTEX-QMRM'
p578
g3
(g4
(I0
tS'b'
tRp579
(I1
(I1
I1
tg7
I00
S'\xde\xa5\xe3-\r\x80\x00@'
tbsS'GTEX-TMZS'
p580
g3
(g4
(I0
tS'b'
tRp581
(I1
(I1
I1
tg7
I00
S'W_%\xbb\x80\xc1\xf6\xbf'
tbsS'GTEX-13NZB'
p582
g3
(g4
(I0
tS'b'
tRp583
(I1
(I1
I1
tg7
I00
S'\xc9\xb0\xda\xcdyK\xe7?'
tbsS'GTEX-13NZA'
p584
g3
(g4
(I0
tS'b'
tRp585
(I1
(I1
I1
tg7
I00
S'D\xb8G\xf7\t\x99\xf3?'
tbsS'GTEX-12ZZX'
p586
g3
(g4
(I0
tS'b'
tRp587
(I1
(I1
I1
tg7
I00
S'\xa3\xd92j\xcc3\xe8?'
tbsS'GTEX-13OW8'
p588
g3
(g4
(I0
tS'b'
tRp589
(I1
(I1
I1
tg7
I00
S'\x8d\x10\xef\xf4\xffA\xe6\xbf'
tbsS'GTEX-13OW5'
p590
g3
(g4
(I0
tS'b'
tRp591
(I1
(I1
I1
tg7
I00
S'#\xbf\x90\x1a\x12a\xf2\xbf'
tbsS'GTEX-13OW7'
p592
g3
(g4
(I0
tS'b'
tRp593
(I1
(I1
I1
tg7
I00
S'p\xa8C1\x1d$\xf3?'
tbsS'GTEX-13OW6'
p594
g3
(g4
(I0
tS'b'
tRp595
(I1
(I1
I1
tg7
I00
S'\x0er\x1am\xe8\xeb\t\xc0'
tbsS'GTEX-U4B1'
p596
g3
(g4
(I0
tS'b'
tRp597
(I1
(I1
I1
tg7
I00
S'\xd7\x9d\xf3#!}\xea?'
tbsS'GTEX-11P81'
p598
g3
(g4
(I0
tS'b'
tRp599
(I1
(I1
I1
tg7
I00
S'\xfes;r\xc1\xb9\xfe?'
tbsS'GTEX-11P82'
p600
g3
(g4
(I0
tS'b'
tRp601
(I1
(I1
I1
tg7
I00
S'\x1bz\xa5\xc6\x85I\xe2\xbf'
tbsS'GTEX-117YW'
p602
g3
(g4
(I0
tS'b'
tRp603
(I1
(I1
I1
tg7
I00
S'\x85\xb3\xb7\x8f6\xdf\x10@'
tbsS'GTEX-12KS4'
p604
g3
(g4
(I0
tS'b'
tRp605
(I1
(I1
I1
tg7
I00
S'\xcd\xb1\xef\x93\xbf\xaf\x10@'
tbsS'GTEX-X62O'
p606
g3
(g4
(I0
tS'b'
tRp607
(I1
(I1
I1
tg7
I00
S']R\xd3\x8acr\x1e@'
tbsS'GTEX-13FH7'
p608
g3
(g4
(I0
tS'b'
tRp609
(I1
(I1
I1
tg7
I00
S'^\xe5\tR\x1c\x86\xb7\xbf'
tbsS'GTEX-ZPIC'
p610
g3
(g4
(I0
tS'b'
tRp611
(I1
(I1
I1
tg7
I00
S')\x16\x07\xfc+\x80\xf5?'
tbsS'GTEX-117XS'
p612
g3
(g4
(I0
tS'b'
tRp613
(I1
(I1
I1
tg7
I00
S'xs]\xa0_\x17\xe6\xbf'
tbsS'GTEX-OOBK'
p614
g3
(g4
(I0
tS'b'
tRp615
(I1
(I1
I1
tg7
I00
S'\xe5\xd6Ftj\xa2\xf2?'
tbsS'GTEX-12584'
p616
g3
(g4
(I0
tS'b'
tRp617
(I1
(I1
I1
tg7
I00
S'\x9a\x93\x7fx\x18\xeb\t\xc0'
tbsS'GTEX-12ZZZ'
p618
g3
(g4
(I0
tS'b'
tRp619
(I1
(I1
I1
tg7
I00
S'\xe5\xd4\xc2<\x83\xe6\xf7?'
tbsS'GTEX-Y114'
p620
g3
(g4
(I0
tS'b'
tRp621
(I1
(I1
I1
tg7
I00
S';H\x8c\x84\xaa\\\xf5\xbf'
tbsS'GTEX-S33H'
p622
g3
(g4
(I0
tS'b'
tRp623
(I1
(I1
I1
tg7
I00
S'5\x1e\xb95Sf\xe7\xbf'
tbsS'GTEX-Y111'
p624
g3
(g4
(I0
tS'b'
tRp625
(I1
(I1
I1
tg7
I00
S'f6/5|\x87\x06@'
tbsS'GTEX-ZYFC'
p626
g3
(g4
(I0
tS'b'
tRp627
(I1
(I1
I1
tg7
I00
S'\xb7\x8f\xd7 \xe9H\x0c@'
tbsS'GTEX-ZYFG'
p628
g3
(g4
(I0
tS'b'
tRp629
(I1
(I1
I1
tg7
I00
S'\xe0W\x88^\x13\xe8\xf0\xbf'
tbsS'GTEX-OHPN'
p630
g3
(g4
(I0
tS'b'
tRp631
(I1
(I1
I1
tg7
I00
S'\x88\x86\x9a\x01u\xbd\xea?'
tbsS'GTEX-OHPM'
p632
g3
(g4
(I0
tS'b'
tRp633
(I1
(I1
I1
tg7
I00
S'\x04],\n\x93\x1e\n\xc0'
tbsS'GTEX-ZYFD'
p634
g3
(g4
(I0
tS'b'
tRp635
(I1
(I1
I1
tg7
I00
S')?\xcf\xe2\xc8+\xfd\xbf'
tbsS'GTEX-Z93S'
p636
g3
(g4
(I0
tS'b'
tRp637
(I1
(I1
I1
tg7
I00
S'\xf0\xaf\xd7f\xc6n\xc6?'
tbsS'GTEX-Z93T'
p638
g3
(g4
(I0
tS'b'
tRp639
(I1
(I1
I1
tg7
I00
S'(\x19\x99\xd2\xd1\xb3\t\xc0'
tbsS'GTEX-UPK5'
p640
g3
(g4
(I0
tS'b'
tRp641
(I1
(I1
I1
tg7
I00
S'w\xb69\xdbe\x98\xf8\xbf'
tbsS'GTEX-13U4I'
p642
g3
(g4
(I0
tS'b'
tRp643
(I1
(I1
I1
tg7
I00
S'ybz\xb1\xd3\xbf\xc5?'
tbsS'GTEX-Y5LM'
p644
g3
(g4
(I0
tS'b'
tRp645
(I1
(I1
I1
tg7
I00
S'm\x81\x0f\x00\x06\x12\x01\xc0'
tbsS'GTEX-QESD'
p646
g3
(g4
(I0
tS'b'
tRp647
(I1
(I1
I1
tg7
I00
S'\xb8\xa2BX\x07\x9b\xe0\xbf'
tbsS'GTEX-UJHI'
p648
g3
(g4
(I0
tS'b'
tRp649
(I1
(I1
I1
tg7
I00
S'\xcdF\xb9f\x82\x05\xb2\xbf'
tbsS'GTEX-S3XE'
p650
g3
(g4
(I0
tS'b'
tRp651
(I1
(I1
I1
tg7
I00
S'\xe1?1\xde\xc3\xaf\x03@'
tbsS'GTEX-11EQ9'
p652
g3
(g4
(I0
tS'b'
tRp653
(I1
(I1
I1
tg7
I00
S'<ID(\x05\xb6\xe5\xbf'
tbsS'GTEX-11EQ8'
p654
g3
(g4
(I0
tS'b'
tRp655
(I1
(I1
I1
tg7
I00
S'\xe5\xbbJ<\x9c1\xe5?'
tbsS'GTEX-RM2N'
p656
g3
(g4
(I0
tS'b'
tRp657
(I1
(I1
I1
tg7
I00
S'\xab\x1aP\x99\xdd\x10d\xbf'
tbsS'GTEX-13FHP'
p658
g3
(g4
(I0
tS'b'
tRp659
(I1
(I1
I1
tg7
I00
S'G\x1e\x18}\x10T\xb8\xbf'
tbsS'GTEX-XMD3'
p660
g3
(g4
(I0
tS'b'
tRp661
(I1
(I1
I1
tg7
I00
S'\xe6\xb5AI\xa2\xa4\xf3\xbf'
tbsS'GTEX-XMD2'
p662
g3
(g4
(I0
tS'b'
tRp663
(I1
(I1
I1
tg7
I00
S'\x91\xab\xa3:*\x03\x01@'
tbsS'GTEX-XMD1'
p664
g3
(g4
(I0
tS'b'
tRp665
(I1
(I1
I1
tg7
I00
S'V\x06B\xe7\x93H\x05\xc0'
tbsS'GTEX-11TUW'
p666
g3
(g4
(I0
tS'b'
tRp667
(I1
(I1
I1
tg7
I00
S'\x10\xaa(\x8dT\xce\xf0\xbf'
tbsS'GTEX-U412'
p668
g3
(g4
(I0
tS'b'
tRp669
(I1
(I1
I1
tg7
I00
S'\xf8\xfa\x155\x1f\x02\x01\xc0'
tbsS'GTEX-1339X'
p670
g3
(g4
(I0
tS'b'
tRp671
(I1
(I1
I1
tg7
I00
S'\xa8\xecL\x82C5\xf1\xbf'
tbsS'GTEX-XV7Q'
p672
g3
(g4
(I0
tS'b'
tRp673
(I1
(I1
I1
tg7
I00
S'R\xe8}P\xd5\xf9\xf5\xbf'
tbsS'GTEX-12126'
p674
g3
(g4
(I0
tS'b'
tRp675
(I1
(I1
I1
tg7
I00
S'\xeeXL\xe8\xe1\xba\x12@'
tbsS'GTEX-ZLWG'
p676
g3
(g4
(I0
tS'b'
tRp677
(I1
(I1
I1
tg7
I00
S'J`\x95\x1f\xcb\xee\x04@'
tbsS'GTEX-VJYA'
p678
g3
(g4
(I0
tS'b'
tRp679
(I1
(I1
I1
tg7
I00
S'\xca\xec)eRw\xfa?'
tbsS'GTEX-ZTX8'
p680
g3
(g4
(I0
tS'b'
tRp681
(I1
(I1
I1
tg7
I00
S'\xacE\xe0\xa4\x91a\t@'
tbsS'GTEX-ZVT2'
p682
g3
(g4
(I0
tS'b'
tRp683
(I1
(I1
I1
tg7
I00
S'\x9e\xd6\xb7a\xb5;\xe9?'
tbsS'GTEX-ZVT3'
p684
g3
(g4
(I0
tS'b'
tRp685
(I1
(I1
I1
tg7
I00
S'\xf4Y\xf5\x10M\x9e\xed\xbf'
tbsS'GTEX-WXYG'
p686
g3
(g4
(I0
tS'b'
tRp687
(I1
(I1
I1
tg7
I00
S'p\xd8e&-i\xe4\xbf'
tbsS'GTEX-ZVT4'
p688
g3
(g4
(I0
tS'b'
tRp689
(I1
(I1
I1
tg7
I00
S'\xd7\xf1Gxn\x16\xc2\xbf'
tbsS'GTEX-TML8'
p690
g3
(g4
(I0
tS'b'
tRp691
(I1
(I1
I1
tg7
I00
S'O\xba\xd9\xd2\x90\r\xe3?'
tbsS'GTEX-13FTY'
p692
g3
(g4
(I0
tS'b'
tRp693
(I1
(I1
I1
tg7
I00
S'"\xf5\xba\xcc\xa2@\xfb?'
tbsS'GTEX-13FTX'
p694
g3
(g4
(I0
tS'b'
tRp695
(I1
(I1
I1
tg7
I00
S"\xdc\x99\xdc'\x84\xeb\x04\xc0"
tbsS'GTEX-13FTZ'
p696
g3
(g4
(I0
tS'b'
tRp697
(I1
(I1
I1
tg7
I00
S'\xc8\xa1Uw\xdd\xd2\x06@'
tbsS'GTEX-13S86'
p698
g3
(g4
(I0
tS'b'
tRp699
(I1
(I1
I1
tg7
I00
S'\\\x8c\x0c\xc1\xc2h\xd6?'
tbsS'GTEX-W5X1'
p700
g3
(g4
(I0
tS'b'
tRp701
(I1
(I1
I1
tg7
I00
S'\xc0\x88\xd3\xa2;\xd9\x06@'
tbsS'GTEX-ZAJG'
p702
g3
(g4
(I0
tS'b'
tRp703
(I1
(I1
I1
tg7
I00
S'\xec\x91Wc\xcc\xae\x01\xc0'
tbsS'GTEX-SNMC'
p704
g3
(g4
(I0
tS'b'
tRp705
(I1
(I1
I1
tg7
I00
S'\xba\xb4\xd2+\x04\r\xed?'
tbsS'GTEX-13FTW'
p706
g3
(g4
(I0
tS'b'
tRp707
(I1
(I1
I1
tg7
I00
S'F\xe6%\x80c\x85\x04@'
tbsS'GTEX-11NUK'
p708
g3
(g4
(I0
tS'b'
tRp709
(I1
(I1
I1
tg7
I00
S'x\xb92\xd3\x99E\xe7\xbf'
tbsS'GTEX-ZVTK'
p710
g3
(g4
(I0
tS'b'
tRp711
(I1
(I1
I1
tg7
I00
S'Z\x18\xde\xbe\xc0o\x18\xc0'
tbsS'GTEX-ZZ64'
p712
g3
(g4
(I0
tS'b'
tRp713
(I1
(I1
I1
tg7
I00
S'u\x8a\xf2\xf9N\xdc\xf6\xbf'
tbsS'GTEX-PWO3'
p714
g3
(g4
(I0
tS'b'
tRp715
(I1
(I1
I1
tg7
I00
S'\xed/%\x0eB\xf0\xc6?'
tbsS'GTEX-13NYS'
p716
g3
(g4
(I0
tS'b'
tRp717
(I1
(I1
I1
tg7
I00
S'\xb9\xcb\xe0#<z\x03@'
tbsS'GTEX-1212Z'
p718
g3
(g4
(I0
tS'b'
tRp719
(I1
(I1
I1
tg7
I00
S'\xe6\xae)\x9c\xdcH\xff\xbf'
tbsS'GTEX-11I78'
p720
g3
(g4
(I0
tS'b'
tRp721
(I1
(I1
I1
tg7
I00
S'\x13\x0c\x9b[\x86\x13\n@'
tbsS'GTEX-13NYB'
p722
g3
(g4
(I0
tS'b'
tRp723
(I1
(I1
I1
tg7
I00
S'$\n=@\x96\xcd\xe7?'
tbsS'GTEX-13NYC'
p724
g3
(g4
(I0
tS'b'
tRp725
(I1
(I1
I1
tg7
I00
S'\xf8\xb8\xcd\x10|\xb9\xe8\xbf'
tbsS'GTEX-Y9LG'
p726
g3
(g4
(I0
tS'b'
tRp727
(I1
(I1
I1
tg7
I00
S'\x83\xe1T\xd4\xbd\xb1\x02@'
tbsS'GTEX-X5EB'
p728
g3
(g4
(I0
tS'b'
tRp729
(I1
(I1
I1
tg7
I00
S'\x01\xe3?\x17\x8a\xab\x03@'
tbsS'GTEX-1399Q'
p730
g3
(g4
(I0
tS'b'
tRp731
(I1
(I1
I1
tg7
I00
S'\xc0\x8e\x8a\xa3\x1b\xad\xe5?'
tbsS'GTEX-POYW'
p732
g3
(g4
(I0
tS'b'
tRp733
(I1
(I1
I1
tg7
I00
S'\x03\x95\x89\xe1b\xe3\xdb\xbf'
tbsS'GTEX-1399R'
p734
g3
(g4
(I0
tS'b'
tRp735
(I1
(I1
I1
tg7
I00
S'\\\xa0u\xf6\xbah\xf3?'
tbsS'GTEX-1399U'
p736
g3
(g4
(I0
tS'b'
tRp737
(I1
(I1
I1
tg7
I00
S"\xddT?\x90'z\x00\xc0"
tbsS'GTEX-1399T'
p738
g3
(g4
(I0
tS'b'
tRp739
(I1
(I1
I1
tg7
I00
S'\xef\xe3B\x84o\x88\xf8?'
tbsS'GTEX-13X6I'
p740
g3
(g4
(I0
tS'b'
tRp741
(I1
(I1
I1
tg7
I00
S'W\x86\x11\x9e\x9b\xcf\xa1\xbf'
tbsS'GTEX-13X6H'
p742
g3
(g4
(I0
tS'b'
tRp743
(I1
(I1
I1
tg7
I00
S'\xc8X\xeb\x06\xadv\n\xc0'
tbsS'GTEX-13X6K'
p744
g3
(g4
(I0
tS'b'
tRp745
(I1
(I1
I1
tg7
I00
S"'\xeb\xd0\xe0\xd6\x9c\xf3?"
tbsS'GTEX-13X6J'
p746
g3
(g4
(I0
tS'b'
tRp747
(I1
(I1
I1
tg7
I00
S'|\x15\xeeP\xd0\xd2\r@'
tbsS'GTEX-ZXG5'
p748
g3
(g4
(I0
tS'b'
tRp749
(I1
(I1
I1
tg7
I00
S'\xdcz\x04S\xca\xac\xd2\xbf'
tbsS'GTEX-11ZU8'
p750
g3
(g4
(I0
tS'b'
tRp751
(I1
(I1
I1
tg7
I00
S'\x99\xbeF\x12~\\\xfa\xbf'
tbsS'GTEX-QVJO'
p752
g3
(g4
(I0
tS'b'
tRp753
(I1
(I1
I1
tg7
I00
S'{\xd7\xd6X\xad\xc9\x0f@'
tbsS'GTEX-RWS6'
p754
g3
(g4
(I0
tS'b'
tRp755
(I1
(I1
I1
tg7
I00
S'9\xe2\x02\x84\xf6w\xfe?'
tbsS'GTEX-ZP4G'
p756
g3
(g4
(I0
tS'b'
tRp757
(I1
(I1
I1
tg7
I00
S'\xcc\x8a\xca>\x1a\x13\xf1?'
tbsS'GTEX-Y8E4'
p758
g3
(g4
(I0
tS'b'
tRp759
(I1
(I1
I1
tg7
I00
S'\xe4\xb1|\xfb>8\xfc?'
tbsS'GTEX-Y8E5'
p760
g3
(g4
(I0
tS'b'
tRp761
(I1
(I1
I1
tg7
I00
S'\x94\xed\xa4:R\x84\xfa\xbf'
tbsS'GTEX-WH7G'
p762
g3
(g4
(I0
tS'b'
tRp763
(I1
(I1
I1
tg7
I00
S'4\x97Y\xc44\x86\xf1\xbf'
tbsS'GTEX-WEY5'
p764
g3
(g4
(I0
tS'b'
tRp765
(I1
(I1
I1
tg7
I00
S'3\x97T8en\xf9\xbf'
tbsS'GTEX-11P7K'
p766
g3
(g4
(I0
tS'b'
tRp767
(I1
(I1
I1
tg7
I00
S'\x83\xcf\xcbin~\xf7\xbf'
tbsS'GTEX-S7PM'
p768
g3
(g4
(I0
tS'b'
tRp769
(I1
(I1
I1
tg7
I00
S"\xde\x03\x9f'\x85\xa5\x1b\xc0"
tbsS'GTEX-V1D1'
p770
g3
(g4
(I0
tS'b'
tRp771
(I1
(I1
I1
tg7
I00
S'w\x9al\xd4$\xb6\xef?'
tbsS'GTEX-WRHK'
p772
g3
(g4
(I0
tS'b'
tRp773
(I1
(I1
I1
tg7
I00
S'\xb723\xb0f\x9c\xea\xbf'
tbsS'GTEX-R55C'
p774
g3
(g4
(I0
tS'b'
tRp775
(I1
(I1
I1
tg7
I00
S'\xc0i\x9eU\x93q\xfa?'
tbsS'GTEX-R55F'
p776
g3
(g4
(I0
tS'b'
tRp777
(I1
(I1
I1
tg7
I00
S'\xa1\x18aE\xe8\xce\x10\xc0'
tbsS'GTEX-R55G'
p778
g3
(g4
(I0
tS'b'
tRp779
(I1
(I1
I1
tg7
I00
S'\x06\\\xbf!\xc8\xda\xfa?'
tbsS'GTEX-R55D'
p780
g3
(g4
(I0
tS'b'
tRp781
(I1
(I1
I1
tg7
I00
S'B\\\x88\xd03\xf5\x03@'
tbsS'GTEX-R55E'
p782
g3
(g4
(I0
tS'b'
tRp783
(I1
(I1
I1
tg7
I00
S'\x12\x16U&\xa04\x05\xc0'
tbsS'GTEX-PSDG'
p784
g3
(g4
(I0
tS'b'
tRp785
(I1
(I1
I1
tg7
I00
S'[4\xa2kmR\xdf?'
tbsS'GTEX-RWSA'
p786
g3
(g4
(I0
tS'b'
tRp787
(I1
(I1
I1
tg7
I00
S'{\x08\x91\xeb\x90\xdf\xe2?'
tbsS'GTEX-1122O'
p788
g3
(g4
(I0
tS'b'
tRp789
(I1
(I1
I1
tg7
I00
S'\xd7\xda\xfe\x9a\x0c\xce\xbd\xbf'
tbsS'GTEX-X4EO'
p790
g3
(g4
(I0
tS'b'
tRp791
(I1
(I1
I1
tg7
I00
S'\xeb\x99\xc18\xd3\x08\xfb\xbf'
tbsS'GTEX-WVLH'
p792
g3
(g4
(I0
tS'b'
tRp793
(I1
(I1
I1
tg7
I00
S'\xad\xa2\xc8\xd8d\xf8\x11@'
tbsS'GTEX-13N1W'
p794
g3
(g4
(I0
tS'b'
tRp795
(I1
(I1
I1
tg7
I00
S'\x13P\xc2\x9c\xf4\xb4\xf3?'
tbsS'GTEX-X4EP'
p796
g3
(g4
(I0
tS'b'
tRp797
(I1
(I1
I1
tg7
I00
S'0\xc5_\x08s[\x06@'
tbsS'GTEX-YB5E'
p798
g3
(g4
(I0
tS'b'
tRp799
(I1
(I1
I1
tg7
I00
S'"\xcc\x0ex\xd3\xe3\xe4?'
tbsS'GTEX-RU1J'
p800
g3
(g4
(I0
tS'b'
tRp801
(I1
(I1
I1
tg7
I00
S'\xfd8\x0e_b\xe5\xf4\xbf'
tbsS'GTEX-11GSP'
p802
g3
(g4
(I0
tS'b'
tRp803
(I1
(I1
I1
tg7
I00
S'\xbb\xae\x96\xbbE\xd5\xe2?'
tbsS'GTEX-11GSO'
p804
g3
(g4
(I0
tS'b'
tRp805
(I1
(I1
I1
tg7
I00
S'\x89\x86\x8ciC\xa8\x08\xc0'
tbsS'GTEX-12ZZY'
p806
g3
(g4
(I0
tS'b'
tRp807
(I1
(I1
I1
tg7
I00
S',\x97M16\xbb\xd3?'
tbsS'GTEX-11UD2'
p808
g3
(g4
(I0
tS'b'
tRp809
(I1
(I1
I1
tg7
I00
S'~\xaev\xdaH\xc9\xf1?'
tbsS'GTEX-11PRG'
p810
g3
(g4
(I0
tS'b'
tRp811
(I1
(I1
I1
tg7
I00
S'+\xce\x80\xfar|\xfd?'
tbsS'GTEX-SN8G'
p812
g3
(g4
(I0
tS'b'
tRp813
(I1
(I1
I1
tg7
I00
S'\x12\xf6\x01\xb9\xb1\x05\xae\xbf'
tbsS'GTEX-ZVP2'
p814
g3
(g4
(I0
tS'b'
tRp815
(I1
(I1
I1
tg7
I00
S'\x95\x06y\x88J\xed\xd3\xbf'
tbsS'GTEX-12ZZW'
p816
g3
(g4
(I0
tS'b'
tRp817
(I1
(I1
I1
tg7
I00
S'r\xa8\xe7\xdf\x16\xf7\xf0\xbf'
tbsS'GTEX-YB5K'
p818
g3
(g4
(I0
tS'b'
tRp819
(I1
(I1
I1
tg7
I00
S'\xd4\xba>\x14^\xef\xf6?'
tbsS'GTEX-13W3W'
p820
g3
(g4
(I0
tS'b'
tRp821
(I1
(I1
I1
tg7
I00
S'\xfa\xc4\xa6E\xfc\xf9\xf1\xbf'
tbsS'GTEX-S4Z8'
p822
g3
(g4
(I0
tS'b'
tRp823
(I1
(I1
I1
tg7
I00
S'\x13F]\xe4\x9a\x03\xf9?'
tbsS'GTEX-1211K'
p824
g3
(g4
(I0
tS'b'
tRp825
(I1
(I1
I1
tg7
I00
S'\x9e3/\xa5\x8co\xe9\xbf'
tbsS'GTEX-ZG7Y'
p826
g3
(g4
(I0
tS'b'
tRp827
(I1
(I1
I1
tg7
I00
S'\xf7\xb2\xde?d\x19\x11\xc0'
tbsS'GTEX-ZA64'
p828
g3
(g4
(I0
tS'b'
tRp829
(I1
(I1
I1
tg7
I00
S'g\xaa\xb0)\xcds\x10\xc0'
tbsS'GTEX-QCQG'
p830
g3
(g4
(I0
tS'b'
tRp831
(I1
(I1
I1
tg7
I00
S'#\xfeK\x89M\x97\xf0?'
tbsS'GTEX-11DYG'
p832
g3
(g4
(I0
tS'b'
tRp833
(I1
(I1
I1
tg7
I00
S'\xea\x19\x9bT\xf6S\xc6\xbf'
tbsS'GTEX-S95S'
p834
g3
(g4
(I0
tS'b'
tRp835
(I1
(I1
I1
tg7
I00
S'\xf1\x04\xa7aTy\xe1?'
tbsS'GTEX-Y5V6'
p836
g3
(g4
(I0
tS'b'
tRp837
(I1
(I1
I1
tg7
I00
S'\xd4\x87\x1b\xf9\x9dM\xf6?'
tbsS'GTEX-Y5V5'
p838
g3
(g4
(I0
tS'b'
tRp839
(I1
(I1
I1
tg7
I00
S'o\x16\xc5\xc8\x9b\x92\xed?'
tbsS'GTEX-11GS4'
p840
g3
(g4
(I0
tS'b'
tRp841
(I1
(I1
I1
tg7
I00
S'\x1ck\xaf\xcf\x16\x18\xf3?'
tbsS'GTEX-QDT8'
p842
g3
(g4
(I0
tS'b'
tRp843
(I1
(I1
I1
tg7
I00
S'\x17\xf5\xdc\xae\xbf\xc6\x03@'
tbsS'GTEX-QXCU'
p844
g3
(g4
(I0
tS'b'
tRp845
(I1
(I1
I1
tg7
I00
S'5q9\xd4\x84\xf9\x0c@'
tbsS'GTEX-YBZK'
p846
g3
(g4
(I0
tS'b'
tRp847
(I1
(I1
I1
tg7
I00
S'\xa6\xcc\xfb<w\xb2\xf1\xbf'
tbsS'GTEX-SSA3'
p848
g3
(g4
(I0
tS'b'
tRp849
(I1
(I1
I1
tg7
I00
S'\xceh\xa3\x1f\x9cY\x10@'
tbsS'GTEX-PX3G'
p850
g3
(g4
(I0
tS'b'
tRp851
(I1
(I1
I1
tg7
I00
S'\x80\x89\xa5\xdcf\x85\xf6\xbf'
tbsS'GTEX-V955'
p852
g3
(g4
(I0
tS'b'
tRp853
(I1
(I1
I1
tg7
I00
S' \xd5LZ\xf4O\xf8\xbf'
tbsS'GTEX-11TTK'
p854
g3
(g4
(I0
tS'b'
tRp855
(I1
(I1
I1
tg7
I00
S'\x13 \xa5\xc3\x1ac\xf5?'
tbsS'GTEX-ZV7C'
p856
g3
(g4
(I0
tS'b'
tRp857
(I1
(I1
I1
tg7
I00
S'\xf3\xde^\xbf\xdc\xe4\xf2\xbf'
tbsS'GTEX-11ZVC'
p858
g3
(g4
(I0
tS'b'
tRp859
(I1
(I1
I1
tg7
I00
S']\x1e\xc6+\x0c#\xf2\xbf'
tbsS'GTEX-11EI6'
p860
g3
(g4
(I0
tS'b'
tRp861
(I1
(I1
I1
tg7
I00
S'\x16\xd8\x82\x9e\xe9\x13\n@'
tbsS'GTEX-S7SF'
p862
g3
(g4
(I0
tS'b'
tRp863
(I1
(I1
I1
tg7
I00
S'\xdb]\xb4\x95\xc3\x18\xfd?'
tbsS'GTEX-11TT1'
p864
g3
(g4
(I0
tS'b'
tRp865
(I1
(I1
I1
tg7
I00
S'>(\x9ec=2\xf0\xbf'
tbsS'GTEX-ZGAY'
p866
g3
(g4
(I0
tS'b'
tRp867
(I1
(I1
I1
tg7
I00
S'1\xc8\x14|\x8f\xa9\x05@'
tbsS'GTEX-R45C'
p868
g3
(g4
(I0
tS'b'
tRp869
(I1
(I1
I1
tg7
I00
S'+\x8e\x13\xcb\xac\x84\x03@'
tbsS'GTEX-XAJ8'
p870
g3
(g4
(I0
tS'b'
tRp871
(I1
(I1
I1
tg7
I00
S'\x9c\xdf\xf5\x082\xb6\xed\xbf'
tbsS'GTEX-13IVO'
p872
g3
(g4
(I0
tS'b'
tRp873
(I1
(I1
I1
tg7
I00
S'0_;\xa3M\x00\xe2?'
tbsS'GTEX-RUSQ'
p874
g3
(g4
(I0
tS'b'
tRp875
(I1
(I1
I1
tg7
I00
S'\xf2\x14B{4\xda\x05\xc0'
tbsS'GTEX-VJWN'
p876
g3
(g4
(I0
tS'b'
tRp877
(I1
(I1
I1
tg7
I00
S':\xb4\x96\xe67\x88\x14\xc0'
tbsS'GTEX-U8XE'
p878
g3
(g4
(I0
tS'b'
tRp879
(I1
(I1
I1
tg7
I00
S'\x89\xa0\xc3\x00\x9d\xca\xf9?'
tbsS'GTEX-XQ8I'
p880
g3
(g4
(I0
tS'b'
tRp881
(I1
(I1
I1
tg7
I00
S'\xb8\xc9P\x0e\x03h\xfc?'
tbsS'GTEX-SNOS'
p882
g3
(g4
(I0
tS'b'
tRp883
(I1
(I1
I1
tg7
I00
S'al\x12\xdfA\xb5\xe1?'
tbsS'GTEX-QV31'
p884
g3
(g4
(I0
tS'b'
tRp885
(I1
(I1
I1
tg7
I00
S'7\xa8\xcaR\xbf\n\xf8?'
tbsS'GTEX-S7SE'
p886
g3
(g4
(I0
tS'b'
tRp887
(I1
(I1
I1
tg7
I00
S'\n\xb5";\xb5\xf5\xfe?'
tbsS'GTEX-145MF'
p888
g3
(g4
(I0
tS'b'
tRp889
(I1
(I1
I1
tg7
I00
S'i8\x19P\xde\x8a\xf8?'
tbsS'GTEX-145MG'
p890
g3
(g4
(I0
tS'b'
tRp891
(I1
(I1
I1
tg7
I00
S'\x04\x96%m\xf8\x1a\x05\xc0'
tbsS'GTEX-145MH'
p892
g3
(g4
(I0
tS'b'
tRp893
(I1
(I1
I1
tg7
I00
S' \x07\x82\xd2\x1dej?'
tbsS'GTEX-WYJK'
p894
g3
(g4
(I0
tS'b'
tRp895
(I1
(I1
I1
tg7
I00
S'{\x88xl\x89\x9c\xdf\xbf'
tbsS'GTEX-145MO'
p896
g3
(g4
(I0
tS'b'
tRp897
(I1
(I1
I1
tg7
I00
S'\xe7lad\xc9\x96\xf4\xbf'
tbs.