(dp1
S'GTEX-YJ89'
p2
cnumpy.core.multiarray
_reconstruct
p3
(cnumpy
ndarray
p4
(I0
tS'b'
tRp5
(I1
(I1
I1
tcnumpy
dtype
p6
(S'f8'
I0
I1
tRp7
(I3
S'<'
NNNI-1
I-1
I0
tbI00
S'\x86\xc4!\xdd/\x0e\x07@'
tbsS'GTEX-XPVG'
p8
g3
(g4
(I0
tS'b'
tRp9
(I1
(I1
I1
tg7
I00
S'\xf1\xa95\x9e\x1d\x89\xeb?'
tbsS'GTEX-TMMY'
p10
g3
(g4
(I0
tS'b'
tRp11
(I1
(I1
I1
tg7
I00
S'\xde\x8a+k\xcf;\xe7\xbf'
tbsS'GTEX-13IVO'
p12
g3
(g4
(I0
tS'b'
tRp13
(I1
(I1
I1
tg7
I00
S'r\x8er\x98]\xc4\x1c\xc0'
tbsS'GTEX-WWYW'
p14
g3
(g4
(I0
tS'b'
tRp15
(I1
(I1
I1
tg7
I00
S'\xf9\x01\xea\xb9l\xd3\x15\xc0'
tbsS'GTEX-111FC'
p16
g3
(g4
(I0
tS'b'
tRp17
(I1
(I1
I1
tg7
I00
S'-9\xe9\x17\xae\xc3\x01@'
tbsS'GTEX-139T8'
p18
g3
(g4
(I0
tS'b'
tRp19
(I1
(I1
I1
tg7
I00
S'\x0c\xf5YFf\xfc\x11\xc0'
tbsS'GTEX-139T6'
p20
g3
(g4
(I0
tS'b'
tRp21
(I1
(I1
I1
tg7
I00
S'|\xbd\xc9\x9e\xd9W\xeb?'
tbsS'GTEX-13O1R'
p22
g3
(g4
(I0
tS'b'
tRp23
(I1
(I1
I1
tg7
I00
S'\x82\x98\x96\xe8=\n\xd2\xbf'
tbsS'GTEX-TKQ1'
p24
g3
(g4
(I0
tS'b'
tRp25
(I1
(I1
I1
tg7
I00
S'\xcc\xa8\x06\x95\xe6 \xf1\xbf'
tbsS'GTEX-ZVE1'
p26
g3
(g4
(I0
tS'b'
tRp27
(I1
(I1
I1
tg7
I00
S'\xe7@4$(\xc1\x00\xc0'
tbsS'GTEX-Q2AG'
p28
g3
(g4
(I0
tS'b'
tRp29
(I1
(I1
I1
tg7
I00
S'\xe7\x06\x95\rj\xfa\xc8\xbf'
tbsS'GTEX-Q2AH'
p30
g3
(g4
(I0
tS'b'
tRp31
(I1
(I1
I1
tg7
I00
S'\x1a\x81QBp\x8f\x0c\xc0'
tbsS'GTEX-Q2AI'
p32
g3
(g4
(I0
tS'b'
tRp33
(I1
(I1
I1
tg7
I00
S'\xbb\x88\x05%t3\x07\xc0'
tbsS'GTEX-S32W'
p34
g3
(g4
(I0
tS'b'
tRp35
(I1
(I1
I1
tg7
I00
S'#\xef\x7f\x852\x90\x06\xc0'
tbsS'GTEX-ZEX8'
p36
g3
(g4
(I0
tS'b'
tRp37
(I1
(I1
I1
tg7
I00
S'v\xe9}\xd2&\xeb\xe6?'
tbsS'GTEX-13D11'
p38
g3
(g4
(I0
tS'b'
tRp39
(I1
(I1
I1
tg7
I00
S'\xfb\xb7\xcb\x83\xba\xb2\xf0\xbf'
tbsS'GTEX-WZTO'
p40
g3
(g4
(I0
tS'b'
tRp41
(I1
(I1
I1
tg7
I00
S'\n\xc0q\xd0\xc0T\xf5?'
tbsS'GTEX-139TU'
p42
g3
(g4
(I0
tS'b'
tRp43
(I1
(I1
I1
tg7
I00
S'\xc1\r\x95\xa3\x19\xb9\x03@'
tbsS'GTEX-139TS'
p44
g3
(g4
(I0
tS'b'
tRp45
(I1
(I1
I1
tg7
I00
S'%\xe6\nm\xfe\x8c\xed?'
tbsS'GTEX-ZF3C'
p46
g3
(g4
(I0
tS'b'
tRp47
(I1
(I1
I1
tg7
I00
S'\xb7~W\xe8k\x93\xeb?'
tbsS'GTEX-XMK1'
p48
g3
(g4
(I0
tS'b'
tRp49
(I1
(I1
I1
tg7
I00
S'\x986\x13\xff\xb3\xab\xf5?'
tbsS'GTEX-WHWD'
p50
g3
(g4
(I0
tS'b'
tRp51
(I1
(I1
I1
tg7
I00
S'/\xf5\xa4\xd7o\x08\x05\xc0'
tbsS'GTEX-1192W'
p52
g3
(g4
(I0
tS'b'
tRp53
(I1
(I1
I1
tg7
I00
S'\x1a\xe1\xc6\x10\xcfw\x08@'
tbsS'GTEX-X4XX'
p54
g3
(g4
(I0
tS'b'
tRp55
(I1
(I1
I1
tg7
I00
S'\x03l\x1f\xbf_\xb6\x12\xc0'
tbsS'GTEX-X4XY'
p56
g3
(g4
(I0
tS'b'
tRp57
(I1
(I1
I1
tg7
I00
S'\x83\x1cI\x10\xab\xf7\t\xc0'
tbsS'GTEX-13CZV'
p58
g3
(g4
(I0
tS'b'
tRp59
(I1
(I1
I1
tg7
I00
S'\x1c\xde\x01\xe8\xf0\xb8\xd2?'
tbsS'GTEX-1192X'
p60
g3
(g4
(I0
tS'b'
tRp61
(I1
(I1
I1
tg7
I00
S't\t\x14{\xb1f\xfd\xbf'
tbsS'GTEX-T2YK'
p62
g3
(g4
(I0
tS'b'
tRp63
(I1
(I1
I1
tg7
I00
S'\x9c\xf7\x96\xc8}\xce\x1e\xc0'
tbsS'GTEX-YJ8A'
p64
g3
(g4
(I0
tS'b'
tRp65
(I1
(I1
I1
tg7
I00
S'\xa3\x02\xd5\xda\x015\x0c\xc0'
tbsS'GTEX-SIU8'
p66
g3
(g4
(I0
tS'b'
tRp67
(I1
(I1
I1
tg7
I00
S'&\x80\x0c\xb5@\x12\x08@'
tbsS'GTEX-QEG5'
p68
g3
(g4
(I0
tS'b'
tRp69
(I1
(I1
I1
tg7
I00
S'O\xdbt\xbe\xf2\x8c\x11\xc0'
tbsS'GTEX-QEG4'
p70
g3
(g4
(I0
tS'b'
tRp71
(I1
(I1
I1
tg7
I00
S'J\x12A\xd2\x8d\xa2\x05@'
tbsS'GTEX-SIU7'
p72
g3
(g4
(I0
tS'b'
tRp73
(I1
(I1
I1
tg7
I00
S'\x84J)\x04\xf0Y\xf1\xbf'
tbsS'GTEX-WI4N'
p74
g3
(g4
(I0
tS'b'
tRp75
(I1
(I1
I1
tg7
I00
S'6\xcaFJm\xd2\t\xc0'
tbsS'GTEX-OXRL'
p76
g3
(g4
(I0
tS'b'
tRp77
(I1
(I1
I1
tg7
I00
S'\xa0\xbe\x11\x96.\xbb\xd3\xbf'
tbsS'GTEX-OXRO'
p78
g3
(g4
(I0
tS'b'
tRp79
(I1
(I1
I1
tg7
I00
S'\xd8\x06\x80U\x9e:\x16\xc0'
tbsS'GTEX-OXRN'
p80
g3
(g4
(I0
tS'b'
tRp81
(I1
(I1
I1
tg7
I00
S'\x9b\xae\x91\x7fzr\x0e\xc0'
tbsS'GTEX-OXRK'
p82
g3
(g4
(I0
tS'b'
tRp83
(I1
(I1
I1
tg7
I00
S'Z\x94\xb5\x98\x81e\t\xc0'
tbsS'GTEX-X261'
p84
g3
(g4
(I0
tS'b'
tRp85
(I1
(I1
I1
tg7
I00
S"F\x8d\x0f'N)\x10\xc0"
tbsS'GTEX-13N1W'
p86
g3
(g4
(I0
tS'b'
tRp87
(I1
(I1
I1
tg7
I00
S'\x00\xe1u\nm\xac\x00@'
tbsS'GTEX-UJMC'
p88
g3
(g4
(I0
tS'b'
tRp89
(I1
(I1
I1
tg7
I00
S'\\\x1a\x97\xfcl\xcb\xd4?'
tbsS'GTEX-SJXC'
p90
g3
(g4
(I0
tS'b'
tRp91
(I1
(I1
I1
tg7
I00
S'\xdb\x9f\xceG\xea3\x06@'
tbsS'GTEX-13VXU'
p92
g3
(g4
(I0
tS'b'
tRp93
(I1
(I1
I1
tg7
I00
S'\xe2\xcaR\xacn\xa4\x06@'
tbsS'GTEX-13VXT'
p94
g3
(g4
(I0
tS'b'
tRp95
(I1
(I1
I1
tg7
I00
S'H\x82\xb3Uy\xcf\xc4?'
tbsS'GTEX-OIZH'
p96
g3
(g4
(I0
tS'b'
tRp97
(I1
(I1
I1
tg7
I00
S'\xc8\x8e\xdaXv\xdb\x06\xc0'
tbsS'GTEX-OIZI'
p98
g3
(g4
(I0
tS'b'
tRp99
(I1
(I1
I1
tg7
I00
S'\xa4/\xef=\x05\x89\x11@'
tbsS'GTEX-ZAB5'
p100
g3
(g4
(I0
tS'b'
tRp101
(I1
(I1
I1
tg7
I00
S'\xcc\x940\x0b}\xc9\x02\xc0'
tbsS'GTEX-ZAB4'
p102
g3
(g4
(I0
tS'b'
tRp103
(I1
(I1
I1
tg7
I00
S'\xa1Y\xd4J\x9a$\xe8?'
tbsS'GTEX-OHPL'
p104
g3
(g4
(I0
tS'b'
tRp105
(I1
(I1
I1
tg7
I00
S'\x9eY\x02+O\xd7\xf2\xbf'
tbsS'GTEX-OIZG'
p106
g3
(g4
(I0
tS'b'
tRp107
(I1
(I1
I1
tg7
I00
S'\x06\xc6\xf7@\x17)\xf9?'
tbsS'GTEX-ZY6K'
p108
g3
(g4
(I0
tS'b'
tRp109
(I1
(I1
I1
tg7
I00
S'J\xd4\x1f\x87&\xec\x01\xc0'
tbsS'GTEX-11DXW'
p110
g3
(g4
(I0
tS'b'
tRp111
(I1
(I1
I1
tg7
I00
S'{Z\x95\x1b7%\n@'
tbsS'GTEX-13CF2'
p112
g3
(g4
(I0
tS'b'
tRp113
(I1
(I1
I1
tg7
I00
S'\xcaHT\x92\x90;\x04@'
tbsS'GTEX-13CF3'
p114
g3
(g4
(I0
tS'b'
tRp115
(I1
(I1
I1
tg7
I00
S'g\xf8u\xa27\xff\xf5\xbf'
tbsS'GTEX-11DXY'
p116
g3
(g4
(I0
tS'b'
tRp117
(I1
(I1
I1
tg7
I00
S'\x1br"D\xbb\x9c\x01@'
tbsS'GTEX-11DXX'
p118
g3
(g4
(I0
tS'b'
tRp119
(I1
(I1
I1
tg7
I00
S'\xd9y\xca\x9d\xb5\x98\xe3\xbf'
tbsS'GTEX-11DXZ'
p120
g3
(g4
(I0
tS'b'
tRp121
(I1
(I1
I1
tg7
I00
S'\xa6C\xf4\x90\xc9<\x07@'
tbsS'GTEX-13S7M'
p122
g3
(g4
(I0
tS'b'
tRp123
(I1
(I1
I1
tg7
I00
S'\x16\xab\x9f*/\xf4\xf4?'
tbsS'GTEX-WOFL'
p124
g3
(g4
(I0
tS'b'
tRp125
(I1
(I1
I1
tg7
I00
S'\x9f\xb7"\x1dw\xab\t\xc0'
tbsS'GTEX-WOFM'
p126
g3
(g4
(I0
tS'b'
tRp127
(I1
(I1
I1
tg7
I00
S'\xec$\x83\xbc\x83\xb8\xce\xbf'
tbsS'GTEX-XUZC'
p128
g3
(g4
(I0
tS'b'
tRp129
(I1
(I1
I1
tg7
I00
S'\x80>\xd7\x85i\xc5\xe5\xbf'
tbsS'GTEX-ZDTS'
p130
g3
(g4
(I0
tS'b'
tRp131
(I1
(I1
I1
tg7
I00
S'\x9b\xdb)a\xed\xef\xf0?'
tbsS'GTEX-ZDTT'
p132
g3
(g4
(I0
tS'b'
tRp133
(I1
(I1
I1
tg7
I00
S'Zl\x118\x94/\xc1?'
tbsS'GTEX-PWN1'
p134
g3
(g4
(I0
tS'b'
tRp135
(I1
(I1
I1
tg7
I00
S')\x8c\xde\xa54M\xfb?'
tbsS'GTEX-N7MS'
p136
g3
(g4
(I0
tS'b'
tRp137
(I1
(I1
I1
tg7
I00
S'\xeb\xb6\x8a\x1dC\x04\xff?'
tbsS'GTEX-N7MT'
p138
g3
(g4
(I0
tS'b'
tRp139
(I1
(I1
I1
tg7
I00
S'!\x12\xbcHu\xa1\x02\xc0'
tbsS'GTEX-W5WG'
p140
g3
(g4
(I0
tS'b'
tRp141
(I1
(I1
I1
tg7
I00
S'\x97m\x8b\x1bgA\xf2?'
tbsS'GTEX-XYKS'
p142
g3
(g4
(I0
tS'b'
tRp143
(I1
(I1
I1
tg7
I00
S'\x82U\xeb|O0\x01\xc0'
tbsS'GTEX-NPJ7'
p144
g3
(g4
(I0
tS'b'
tRp145
(I1
(I1
I1
tg7
I00
S'\xf5H\xac\xf9W\xd1\x0c\xc0'
tbsS'GTEX-13RTK'
p146
g3
(g4
(I0
tS'b'
tRp147
(I1
(I1
I1
tg7
I00
S'\xf9Fa\xa9\xa7\x86\xd2?'
tbsS'GTEX-13RTJ'
p148
g3
(g4
(I0
tS'b'
tRp149
(I1
(I1
I1
tg7
I00
S'\x12\rC\x8357\xe2\xbf'
tbsS'GTEX-O5YT'
p150
g3
(g4
(I0
tS'b'
tRp151
(I1
(I1
I1
tg7
I00
S'\xe8\xeaI>\x84\xaf\x07\xc0'
tbsS'GTEX-O5YW'
p152
g3
(g4
(I0
tS'b'
tRp153
(I1
(I1
I1
tg7
I00
S'+\xa4P\xcb\xa9\xd9\xc8?'
tbsS'GTEX-O5YV'
p154
g3
(g4
(I0
tS'b'
tRp155
(I1
(I1
I1
tg7
I00
S"\x88[\xf8'\r*\x15\xc0"
tbsS'GTEX-WL46'
p156
g3
(g4
(I0
tS'b'
tRp157
(I1
(I1
I1
tg7
I00
S'\x8a\xb8x\x89\x9a\xe5\xfd?'
tbsS'GTEX-NPJ8'
p158
g3
(g4
(I0
tS'b'
tRp159
(I1
(I1
I1
tg7
I00
S'WxW\xbe\xf4\x1d"\xc0'
tbsS'GTEX-ZVE2'
p160
g3
(g4
(I0
tS'b'
tRp161
(I1
(I1
I1
tg7
I00
S'?>\x9f\x124J\x03\xc0'
tbsS'GTEX-11EM3'
p162
g3
(g4
(I0
tS'b'
tRp163
(I1
(I1
I1
tg7
I00
S'\xd6h_\x0c\r\x92\xfb?'
tbsS'GTEX-Q734'
p164
g3
(g4
(I0
tS'b'
tRp165
(I1
(I1
I1
tg7
I00
S'\x1e\x07>[\x8c\x05\x12\xc0'
tbsS'GTEX-11EMC'
p166
g3
(g4
(I0
tS'b'
tRp167
(I1
(I1
I1
tg7
I00
S'\xbf\x90\xc1\xd2<\xd1\xe7?'
tbsS'GTEX-13N11'
p168
g3
(g4
(I0
tS'b'
tRp169
(I1
(I1
I1
tg7
I00
S' s\x05\x9c\x1d6\xe1?'
tbsS'GTEX-1128S'
p170
g3
(g4
(I0
tS'b'
tRp171
(I1
(I1
I1
tg7
I00
S'4\x07;\x13mO\xfa\xbf'
tbsS'GTEX-WHSE'
p172
g3
(g4
(I0
tS'b'
tRp173
(I1
(I1
I1
tg7
I00
S'\x8fN\x18\r\xa0\x87\x02\xc0'
tbsS'GTEX-WHSB'
p174
g3
(g4
(I0
tS'b'
tRp175
(I1
(I1
I1
tg7
I00
S'h\xe2d5\x11\x18\xf2\xbf'
tbsS'GTEX-133LE'
p176
g3
(g4
(I0
tS'b'
tRp177
(I1
(I1
I1
tg7
I00
S'\xa2\xe92lC\xb2\xb8\xbf'
tbsS'GTEX-NL4W'
p178
g3
(g4
(I0
tS'b'
tRp179
(I1
(I1
I1
tg7
I00
S'T\x03\xc5\xa6\x9d\x98\x0f\xc0'
tbsS'GTEX-SUCS'
p180
g3
(g4
(I0
tS'b'
tRp181
(I1
(I1
I1
tg7
I00
S'\xfaZ(\x05\xb2K\xf8\xbf'
tbsS'GTEX-13QIC'
p182
g3
(g4
(I0
tS'b'
tRp183
(I1
(I1
I1
tg7
I00
S'\xb4\xa7\x1b\xc8\x9a\xd7\x02@'
tbsS'GTEX-ZYY3'
p184
g3
(g4
(I0
tS'b'
tRp185
(I1
(I1
I1
tg7
I00
S'\xc9\x9b*\x01\x05}\xfc\xbf'
tbsS'GTEX-WYBS'
p186
g3
(g4
(I0
tS'b'
tRp187
(I1
(I1
I1
tg7
I00
S'c\xf0\xed\xdf\x8bv\xc0?'
tbsS'GTEX-Y3I4'
p188
g3
(g4
(I0
tS'b'
tRp189
(I1
(I1
I1
tg7
I00
S'b\xbbB\x19,}\xef\xbf'
tbsS'GTEX-13O21'
p190
g3
(g4
(I0
tS'b'
tRp191
(I1
(I1
I1
tg7
I00
S'\xa9N\xbb^1\xe1\xef?'
tbsS'GTEX-PVOW'
p192
g3
(g4
(I0
tS'b'
tRp193
(I1
(I1
I1
tg7
I00
S'*\x9a\r\x07\x153\xf7?'
tbsS'GTEX-13QBU'
p194
g3
(g4
(I0
tS'b'
tRp195
(I1
(I1
I1
tg7
I00
S'\x06\xea+\xc8\xect\xf2?'
tbsS'GTEX-QEL4'
p196
g3
(g4
(I0
tS'b'
tRp197
(I1
(I1
I1
tg7
I00
S'\x84\xd2\x1d?\xfb\x9a\x10\xc0'
tbsS'GTEX-X585'
p198
g3
(g4
(I0
tS'b'
tRp199
(I1
(I1
I1
tg7
I00
S'\x15\xcc\xd0\xb1\x98\xdc\x08\xc0'
tbsS'GTEX-11VI4'
p200
g3
(g4
(I0
tS'b'
tRp201
(I1
(I1
I1
tg7
I00
S'y\xc6Jr\x81\xf4\xfc?'
tbsS'GTEX-NL3G'
p202
g3
(g4
(I0
tS'b'
tRp203
(I1
(I1
I1
tg7
I00
S'\x88*w#\x95\xbf\xf5?'
tbsS'GTEX-NL3H'
p204
g3
(g4
(I0
tS'b'
tRp205
(I1
(I1
I1
tg7
I00
S'c\xb1mD\xfa\xed\x13\xc0'
tbsS'GTEX-139TT'
p206
g3
(g4
(I0
tS'b'
tRp207
(I1
(I1
I1
tg7
I00
S'\x99y:\x90,\xd2\x0c@'
tbsS'GTEX-XUYS'
p208
g3
(g4
(I0
tS'b'
tRp209
(I1
(I1
I1
tg7
I00
S'+1N\x985\xdc\x10@'
tbsS'GTEX-P4QT'
p210
g3
(g4
(I0
tS'b'
tRp211
(I1
(I1
I1
tg7
I00
S"\x82'o/`O\xfe\xbf"
tbsS'GTEX-ZVZP'
p212
g3
(g4
(I0
tS'b'
tRp213
(I1
(I1
I1
tg7
I00
S'\x9aY\xb9\xf8E\x88\xe1?'
tbsS'GTEX-ZVZQ'
p214
g3
(g4
(I0
tS'b'
tRp215
(I1
(I1
I1
tg7
I00
S'\xe0\x9e\xe8\x13\xc3\x80\x0c@'
tbsS'GTEX-P4QS'
p216
g3
(g4
(I0
tS'b'
tRp217
(I1
(I1
I1
tg7
I00
S'\xad\xbdZ\xe3\xa0\xac\x07\xc0'
tbsS'GTEX-P4QR'
p218
g3
(g4
(I0
tS'b'
tRp219
(I1
(I1
I1
tg7
I00
S'\xebS\xc9\xcf9\x96\x1d\xc0'
tbsS'GTEX-13SLW'
p220
g3
(g4
(I0
tS'b'
tRp221
(I1
(I1
I1
tg7
I00
S'\xfa\xd7w\\#\x07\xd7\xbf'
tbsS'GTEX-13SLX'
p222
g3
(g4
(I0
tS'b'
tRp223
(I1
(I1
I1
tg7
I00
S'L\xbd\xe2&t\x05\x02@'
tbsS'GTEX-13FXS'
p224
g3
(g4
(I0
tS'b'
tRp225
(I1
(I1
I1
tg7
I00
S'\x06\x04\x8c\xfe\x08\xb1\x07@'
tbsS'GTEX-X3Y1'
p226
g3
(g4
(I0
tS'b'
tRp227
(I1
(I1
I1
tg7
I00
S'\xacg\xbe\x95\xb0\x99\xe7\xbf'
tbsS'GTEX-SE5C'
p228
g3
(g4
(I0
tS'b'
tRp229
(I1
(I1
I1
tg7
I00
S'$!\x91\x94\xea\x82\xd9\xbf'
tbsS'GTEX-OHPK'
p230
g3
(g4
(I0
tS'b'
tRp231
(I1
(I1
I1
tg7
I00
S'\x16U\x84\xe2ma\xe8?'
tbsS'GTEX-Y3IK'
p232
g3
(g4
(I0
tS'b'
tRp233
(I1
(I1
I1
tg7
I00
S'|\x19\xd4*2\x01\xf7?'
tbsS'GTEX-ZF2S'
p234
g3
(g4
(I0
tS'b'
tRp235
(I1
(I1
I1
tg7
I00
S'\x89\t\x1f\x9d\xb8\x85\xed?'
tbsS'GTEX-111YS'
p236
g3
(g4
(I0
tS'b'
tRp237
(I1
(I1
I1
tg7
I00
S'>\x84\x9d\x0b\xbe,\xe6?'
tbsS'GTEX-139UW'
p238
g3
(g4
(I0
tS'b'
tRp239
(I1
(I1
I1
tg7
I00
S'\xba\xa9\xe6\xf5\xc7s\x02@'
tbsS'GTEX-U3ZG'
p240
g3
(g4
(I0
tS'b'
tRp241
(I1
(I1
I1
tg7
I00
S'\x81"\xb1$\xe1\xc7\xf2?'
tbsS'GTEX-U3ZM'
p242
g3
(g4
(I0
tS'b'
tRp243
(I1
(I1
I1
tg7
I00
S'\x82\xfd\xed\x16\xea\x8a\xcd\xbf'
tbsS'GTEX-U3ZN'
p244
g3
(g4
(I0
tS'b'
tRp245
(I1
(I1
I1
tg7
I00
S'\x872IT\xef\x0b\xd5?'
tbsS'GTEX-ZV6S'
p246
g3
(g4
(I0
tS'b'
tRp247
(I1
(I1
I1
tg7
I00
S'\xef\x96_\ri\xf1\xc8\xbf'
tbsS'GTEX-U3ZH'
p248
g3
(g4
(I0
tS'b'
tRp249
(I1
(I1
I1
tg7
I00
S'-\xa2\x83A\xbe1\xea?'
tbsS'GTEX-RTLS'
p250
g3
(g4
(I0
tS'b'
tRp251
(I1
(I1
I1
tg7
I00
S'l0\xc4\x13\xcdW\xf1?'
tbsS'GTEX-PWCY'
p252
g3
(g4
(I0
tS'b'
tRp253
(I1
(I1
I1
tg7
I00
S'@A\xc3\xc4\xdbX\xaf?'
tbsS'GTEX-P44H'
p254
g3
(g4
(I0
tS'b'
tRp255
(I1
(I1
I1
tg7
I00
S'\x05:x\xce\x8c\xfe\xfb?'
tbsS'GTEX-11WQK'
p256
g3
(g4
(I0
tS'b'
tRp257
(I1
(I1
I1
tg7
I00
S'\xac\xf9#\xf1\xe0.\x15\xc0'
tbsS'GTEX-12696'
p258
g3
(g4
(I0
tS'b'
tRp259
(I1
(I1
I1
tg7
I00
S'wc5\x11\xfd1\x00@'
tbsS'GTEX-XUW1'
p260
g3
(g4
(I0
tS'b'
tRp261
(I1
(I1
I1
tg7
I00
S'w\xa5C\xa0\x0f\x85\xf5\xbf'
tbsS'GTEX-13JVG'
p262
g3
(g4
(I0
tS'b'
tRp263
(I1
(I1
I1
tg7
I00
S'\xe3\x10\xd7`\x80-\xda\xbf'
tbsS'GTEX-XBEW'
p264
g3
(g4
(I0
tS'b'
tRp265
(I1
(I1
I1
tg7
I00
S'\xc0\xe4\xf7\x05w8\x83\xbf'
tbsS'GTEX-WK11'
p266
g3
(g4
(I0
tS'b'
tRp267
(I1
(I1
I1
tg7
I00
S'\x97G\x8c\x8f\xa8\xc8\n@'
tbsS'GTEX-XBEC'
p268
g3
(g4
(I0
tS'b'
tRp269
(I1
(I1
I1
tg7
I00
S"\x8e0K_'\xab\xf0?"
tbsS'GTEX-XBED'
p270
g3
(g4
(I0
tS'b'
tRp271
(I1
(I1
I1
tg7
I00
S'$\x8b\xef\xe6^\x85\xe3\xbf'
tbsS'GTEX-ZDYS'
p272
g3
(g4
(I0
tS'b'
tRp273
(I1
(I1
I1
tg7
I00
S'o\x1a\xa3\xdb\xf7+\x03@'
tbsS'GTEX-X8HC'
p274
g3
(g4
(I0
tS'b'
tRp275
(I1
(I1
I1
tg7
I00
S'2\xb7\x05d\x97f\xfa\xbf'
tbsS'GTEX-ZF28'
p276
g3
(g4
(I0
tS'b'
tRp277
(I1
(I1
I1
tg7
I00
S'\xbd\x98D\xfa\x91\x0b\x19\xc0'
tbsS'GTEX-ZF29'
p278
g3
(g4
(I0
tS'b'
tRp279
(I1
(I1
I1
tg7
I00
S'\xf1P\xd9o\x8d4\xfd?'
tbsS'GTEX-ZV68'
p280
g3
(g4
(I0
tS'b'
tRp281
(I1
(I1
I1
tg7
I00
S'R\x91R\xcf\xeb\xba\xff?'
tbsS'GTEX-Y8LW'
p282
g3
(g4
(I0
tS'b'
tRp283
(I1
(I1
I1
tg7
I00
S'\xae\xaa\x1d\x8d\x7f\x9b|\xbf'
tbsS'GTEX-13CIG'
p284
g3
(g4
(I0
tS'b'
tRp285
(I1
(I1
I1
tg7
I00
S'\xbc\xd3[\xf1E\n\x14\xc0'
tbsS'GTEX-13O61'
p286
g3
(g4
(I0
tS'b'
tRp287
(I1
(I1
I1
tg7
I00
S'<2\x94\xe7\xb3\xd1\xde\xbf'
tbsS'GTEX-12WSC'
p288
g3
(g4
(I0
tS'b'
tRp289
(I1
(I1
I1
tg7
I00
S'\xd4\xca\xd6\x1f\xe7\x8e\x08@'
tbsS'GTEX-12WSA'
p290
g3
(g4
(I0
tS'b'
tRp291
(I1
(I1
I1
tg7
I00
S'\xff\x10=Z\xf8\xbe\xf2\xbf'
tbsS'GTEX-12WSF'
p292
g3
(g4
(I0
tS'b'
tRp293
(I1
(I1
I1
tg7
I00
S's\xd8\xeeU\x99\x95\xf4\xbf'
tbsS'GTEX-12WSG'
p294
g3
(g4
(I0
tS'b'
tRp295
(I1
(I1
I1
tg7
I00
S'D`\xd6Qh3\xe6?'
tbsS'GTEX-12WSD'
p296
g3
(g4
(I0
tS'b'
tRp297
(I1
(I1
I1
tg7
I00
S'\x86\x83\xf0\x8d|\xf5\x0c@'
tbsS'GTEX-12WSE'
p298
g3
(g4
(I0
tS'b'
tRp299
(I1
(I1
I1
tg7
I00
S'\xab\xba\xdc\xf7\xafl\x10@'
tbsS'GTEX-12WSJ'
p300
g3
(g4
(I0
tS'b'
tRp301
(I1
(I1
I1
tg7
I00
S'\xac\x0eh\xf81\xc4\xfa\xbf'
tbsS'GTEX-12WSK'
p302
g3
(g4
(I0
tS'b'
tRp303
(I1
(I1
I1
tg7
I00
S'\xa9\xf1P\x1c\xc6\x06\xf0?'
tbsS'GTEX-12WSH'
p304
g3
(g4
(I0
tS'b'
tRp305
(I1
(I1
I1
tg7
I00
S'\xa4#\xf8\xfaOs\x02\xc0'
tbsS'GTEX-12WSI'
p306
g3
(g4
(I0
tS'b'
tRp307
(I1
(I1
I1
tg7
I00
S'@\xbf>\xe8\xb9\xea\n@'
tbsS'GTEX-12WSN'
p308
g3
(g4
(I0
tS'b'
tRp309
(I1
(I1
I1
tg7
I00
S')Et\xd1I\xc8\xf3\xbf'
tbsS'GTEX-12WSL'
p310
g3
(g4
(I0
tS'b'
tRp311
(I1
(I1
I1
tg7
I00
S'2\x05\xec T\xb7\x07\xc0'
tbsS'GTEX-12WSM'
p312
g3
(g4
(I0
tS'b'
tRp313
(I1
(I1
I1
tg7
I00
S'\xdd\xf3\xdd\xb5L\x8d\x01@'
tbsS'GTEX-13N2G'
p314
g3
(g4
(I0
tS'b'
tRp315
(I1
(I1
I1
tg7
I00
S'\xcf\x8f\x98\x9d\xe8\t\x04\xc0'
tbsS'GTEX-X15G'
p316
g3
(g4
(I0
tS'b'
tRp317
(I1
(I1
I1
tg7
I00
S'R\x12X\xd9\x8b\xc8\xfa\xbf'
tbsS'GTEX-YF7O'
p318
g3
(g4
(I0
tS'b'
tRp319
(I1
(I1
I1
tg7
I00
S'\xe6tg\xc7\x89\xea\xd9?'
tbsS'GTEX-S4P3'
p320
g3
(g4
(I0
tS'b'
tRp321
(I1
(I1
I1
tg7
I00
S'\x1e\x8c\x01"\x1a\xcd\xf1?'
tbsS'GTEX-X4LF'
p322
g3
(g4
(I0
tS'b'
tRp323
(I1
(I1
I1
tg7
I00
S'i\xa2\xef\xef\x98{\xdb\xbf'
tbsS'GTEX-ZE7O'
p324
g3
(g4
(I0
tS'b'
tRp325
(I1
(I1
I1
tg7
I00
S'\xfb\x8c\xdc\r\x9bW\xf7?'
tbsS'GTEX-ZQUD'
p326
g3
(g4
(I0
tS'b'
tRp327
(I1
(I1
I1
tg7
I00
S'\xf1\xb6\xd9"-t\x05@'
tbsS'GTEX-ZQG8'
p328
g3
(g4
(I0
tS'b'
tRp329
(I1
(I1
I1
tg7
I00
S'\x8dN\xdcQ?d\xe8?'
tbsS'GTEX-ZVZO'
p330
g3
(g4
(I0
tS'b'
tRp331
(I1
(I1
I1
tg7
I00
S',\x1e\x12\xbaG\xf3\xde?'
tbsS'GTEX-WFG7'
p332
g3
(g4
(I0
tS'b'
tRp333
(I1
(I1
I1
tg7
I00
S'\xbe\x96\xafD\x82\xd7\xde\xbf'
tbsS'GTEX-WFG8'
p334
g3
(g4
(I0
tS'b'
tRp335
(I1
(I1
I1
tg7
I00
S'\xc634\x9e\x14\x9a\x82\xbf'
tbsS'GTEX-RU72'
p336
g3
(g4
(I0
tS'b'
tRp337
(I1
(I1
I1
tg7
I00
S'p\xe7K\xe5\xca\xec\xf1\xbf'
tbsS'GTEX-13W46'
p338
g3
(g4
(I0
tS'b'
tRp339
(I1
(I1
I1
tg7
I00
S'\xf7\x12d0\x9cF\x0b\xc0'
tbsS'GTEX-UPJH'
p340
g3
(g4
(I0
tS'b'
tRp341
(I1
(I1
I1
tg7
I00
S'\xf8Y\x15V\xc9\xe6\x04@'
tbsS'GTEX-PW2O'
p342
g3
(g4
(I0
tS'b'
tRp343
(I1
(I1
I1
tg7
I00
S'\xbe\x1a\x7f\x1d!\x7f\xf0\xbf'
tbsS'GTEX-T8EM'
p344
g3
(g4
(I0
tS'b'
tRp345
(I1
(I1
I1
tg7
I00
S'\xdb\xd0\tK\xea\x01\xd3?'
tbsS'GTEX-XQ3S'
p346
g3
(g4
(I0
tS'b'
tRp347
(I1
(I1
I1
tg7
I00
S'=\xf0\xf4\xea\x1f\x86\t@'
tbsS'GTEX-ZPCL'
p348
g3
(g4
(I0
tS'b'
tRp349
(I1
(I1
I1
tg7
I00
S'\x03}\x91*\x8e\xa8\xd1\xbf'
tbsS'GTEX-11ONC'
p350
g3
(g4
(I0
tS'b'
tRp351
(I1
(I1
I1
tg7
I00
S'_e\xc50\x08\x1d\x00@'
tbsS'GTEX-QV44'
p352
g3
(g4
(I0
tS'b'
tRp353
(I1
(I1
I1
tg7
I00
S'.\xc5\xa9\xd2\xf3\x8e\x00\xc0'
tbsS'GTEX-WHPG'
p354
g3
(g4
(I0
tS'b'
tRp355
(I1
(I1
I1
tg7
I00
S'\xd7\xa1\x10M\xb2\xbd\xe6?'
tbsS'GTEX-T6MO'
p356
g3
(g4
(I0
tS'b'
tRp357
(I1
(I1
I1
tg7
I00
S'\xaf\xf3\x89\xf9:h\xe2\xbf'
tbsS'GTEX-T6MN'
p358
g3
(g4
(I0
tS'b'
tRp359
(I1
(I1
I1
tg7
I00
S'\xd3)"\x01&\x84\x0f@'
tbsS'GTEX-XXEK'
p360
g3
(g4
(I0
tS'b'
tRp361
(I1
(I1
I1
tg7
I00
S'\xf9A\xb0\xcc\xa1\xb2\x08\xc0'
tbsS'GTEX-ZTTD'
p362
g3
(g4
(I0
tS'b'
tRp363
(I1
(I1
I1
tg7
I00
S'\x01t\x99\xcc\x7f;\xec\xbf'
tbsS'GTEX-ZUA1'
p364
g3
(g4
(I0
tS'b'
tRp365
(I1
(I1
I1
tg7
I00
S'|T\x950\x90\x9b\x0e@'
tbsS'GTEX-OXRP'
p366
g3
(g4
(I0
tS'b'
tRp367
(I1
(I1
I1
tg7
I00
S'\x7f\x1d$\x89\x81\xb8\xf1\xbf'
tbsS'GTEX-13OVL'
p368
g3
(g4
(I0
tS'b'
tRp369
(I1
(I1
I1
tg7
I00
S'\xe3)\x8e\xc0\xf6]\x0e@'
tbsS'GTEX-13OVJ'
p370
g3
(g4
(I0
tS'b'
tRp371
(I1
(I1
I1
tg7
I00
S'\x80dU\xc5 \xe7\x02\xc0'
tbsS'GTEX-13OVH'
p372
g3
(g4
(I0
tS'b'
tRp373
(I1
(I1
I1
tg7
I00
S")\xa7'r\xd8b\xd7\xbf"
tbsS'GTEX-13OVI'
p374
g3
(g4
(I0
tS'b'
tRp375
(I1
(I1
I1
tg7
I00
S':\xf3QR\xff\xa4\xf6?'
tbsS'GTEX-13OVG'
p376
g3
(g4
(I0
tS'b'
tRp377
(I1
(I1
I1
tg7
I00
S"\x97'F\xca\x0b\x9b\xf5?"
tbsS'GTEX-113IC'
p378
g3
(g4
(I0
tS'b'
tRp379
(I1
(I1
I1
tg7
I00
S'\xfd\xca\t0\x87\x80\xfe?'
tbsS'GTEX-XLM4'
p380
g3
(g4
(I0
tS'b'
tRp381
(I1
(I1
I1
tg7
I00
S'\x1f\xf9\x93Z\x14n\xe2\xbf'
tbsS'GTEX-13JUV'
p382
g3
(g4
(I0
tS'b'
tRp383
(I1
(I1
I1
tg7
I00
S'\xc9P\x0f\xc0K\xd3\xf4\xbf'
tbsS'GTEX-PLZ5'
p384
g3
(g4
(I0
tS'b'
tRp385
(I1
(I1
I1
tg7
I00
S'=\xed-\x14\x1e\xed\x08\xc0'
tbsS'GTEX-PLZ6'
p386
g3
(g4
(I0
tS'b'
tRp387
(I1
(I1
I1
tg7
I00
S'\xf9\x88a\xc1\xc8/\xc3?'
tbsS'GTEX-ZZPT'
p388
g3
(g4
(I0
tS'b'
tRp389
(I1
(I1
I1
tg7
I00
S'\xd1Q\xce_\xce\x89\x16\xc0'
tbsS'GTEX-ZZPU'
p390
g3
(g4
(I0
tS'b'
tRp391
(I1
(I1
I1
tg7
I00
S'\x1e\x85\x8c\xd5=2\xe1?'
tbsS'GTEX-ZXES'
p392
g3
(g4
(I0
tS'b'
tRp393
(I1
(I1
I1
tg7
I00
S'\xea\x17\xfd\x93D\xdb\x04@'
tbsS'GTEX-TSE9'
p394
g3
(g4
(I0
tS'b'
tRp395
(I1
(I1
I1
tg7
I00
S'\x01_}\x0fE\xba\xef\xbf'
tbsS'GTEX-ZC5H'
p396
g3
(g4
(I0
tS'b'
tRp397
(I1
(I1
I1
tg7
I00
S'6\x90\xcf\xc18g\x06\xc0'
tbsS'GTEX-QDVN'
p398
g3
(g4
(I0
tS'b'
tRp399
(I1
(I1
I1
tg7
I00
S'\x8b\x99\xae\x83\xef\xdf\t\xc0'
tbsS'GTEX-QDVJ'
p400
g3
(g4
(I0
tS'b'
tRp401
(I1
(I1
I1
tg7
I00
S'-\x07o\x80Us\x02\xc0'
tbsS'GTEX-P4PP'
p402
g3
(g4
(I0
tS'b'
tRp403
(I1
(I1
I1
tg7
I00
S'\xf2\xd79\x95\xd0\x1a\xea?'
tbsS'GTEX-P4PQ'
p404
g3
(g4
(I0
tS'b'
tRp405
(I1
(I1
I1
tg7
I00
S'\xa0\xab\x8a\xf5\xce2\xf9\xbf'
tbsS'GTEX-S4UY'
p406
g3
(g4
(I0
tS'b'
tRp407
(I1
(I1
I1
tg7
I00
S'R\xcf\xc0\xc3$e\xd7?'
tbsS'GTEX-S341'
p408
g3
(g4
(I0
tS'b'
tRp409
(I1
(I1
I1
tg7
I00
S'\x0b&*E\n1\xe1?'
tbsS'GTEX-11UD1'
p410
g3
(g4
(I0
tS'b'
tRp411
(I1
(I1
I1
tg7
I00
S'\x83\xfc\xd4]>\x0f\xfb?'
tbsS'GTEX-13FHO'
p412
g3
(g4
(I0
tS'b'
tRp413
(I1
(I1
I1
tg7
I00
S'=\xa8\x16x\xad\x06\xae?'
tbsS'GTEX-13O3O'
p414
g3
(g4
(I0
tS'b'
tRp415
(I1
(I1
I1
tg7
I00
S'\x9e&\xfb\x17\x0bm\x04@'
tbsS'GTEX-13O3Q'
p416
g3
(g4
(I0
tS'b'
tRp417
(I1
(I1
I1
tg7
I00
S'\x9c\xa2\xe7\xabh^\xf7?'
tbsS'GTEX-POYW'
p418
g3
(g4
(I0
tS'b'
tRp419
(I1
(I1
I1
tg7
I00
S'\xe0\x04\xd9\xf9\xe5\xdc\x12\xc0'
tbsS'GTEX-ZYWO'
p420
g3
(g4
(I0
tS'b'
tRp421
(I1
(I1
I1
tg7
I00
S'\xe1\x05\xe2\xe7M\xb1\x06\xc0'
tbsS'GTEX-X638'
p422
g3
(g4
(I0
tS'b'
tRp423
(I1
(I1
I1
tg7
I00
S'\x96-\xda\xf5j\xb2\xe6\xbf'
tbsS'GTEX-13111'
p424
g3
(g4
(I0
tS'b'
tRp425
(I1
(I1
I1
tg7
I00
S'\xe3\xe3$\xbe\xec\xcd\r@'
tbsS'GTEX-13113'
p426
g3
(g4
(I0
tS'b'
tRp427
(I1
(I1
I1
tg7
I00
S'\xbf\xd8Y"=%\xbe\xbf'
tbsS'GTEX-13112'
p428
g3
(g4
(I0
tS'b'
tRp429
(I1
(I1
I1
tg7
I00
S'q\x84q\x85u\xad\x08@'
tbsS'GTEX-POMQ'
p430
g3
(g4
(I0
tS'b'
tRp431
(I1
(I1
I1
tg7
I00
S'>\xcc`\x81a\x08\xe5\xbf'
tbsS'GTEX-PWOO'
p432
g3
(g4
(I0
tS'b'
tRp433
(I1
(I1
I1
tg7
I00
S"'\x8e\x10\xb9\x1eU\x0f\xc0"
tbsS'GTEX-ZT9W'
p434
g3
(g4
(I0
tS'b'
tRp435
(I1
(I1
I1
tg7
I00
S'\xdct\t\xf3\x89\xaa\xf5?'
tbsS'GTEX-ZT9X'
p436
g3
(g4
(I0
tS'b'
tRp437
(I1
(I1
I1
tg7
I00
S'\xc4\xe9ST\x12\xf7\xd6?'
tbsS'GTEX-RNOR'
p438
g3
(g4
(I0
tS'b'
tRp439
(I1
(I1
I1
tg7
I00
S'\x90Y\x86\t\x95\x11\xec?'
tbsS'GTEX-REY6'
p440
g3
(g4
(I0
tS'b'
tRp441
(I1
(I1
I1
tg7
I00
S'i\xf5m\xe4\xdf\x15\xcc?'
tbsS'GTEX-111CU'
p442
g3
(g4
(I0
tS'b'
tRp443
(I1
(I1
I1
tg7
I00
S'R\xfe1<\x1a\xb1\xea\xbf'
tbsS'GTEX-XGQ4'
p444
g3
(g4
(I0
tS'b'
tRp445
(I1
(I1
I1
tg7
I00
S'5Dh4\xdal\xee\xbf'
tbsS'GTEX-WFJO'
p446
g3
(g4
(I0
tS'b'
tRp447
(I1
(I1
I1
tg7
I00
S'g\xa7\xd54~\xd5\xa2\xbf'
tbsS'GTEX-VUSH'
p448
g3
(g4
(I0
tS'b'
tRp449
(I1
(I1
I1
tg7
I00
S'>\x0eh\xa8\xadQ\r@'
tbsS'GTEX-XPT6'
p450
g3
(g4
(I0
tS'b'
tRp451
(I1
(I1
I1
tg7
I00
S'\xaa\x10aZ\xbe-\xe6?'
tbsS'GTEX-VUSG'
p452
g3
(g4
(I0
tS'b'
tRp453
(I1
(I1
I1
tg7
I00
S'\xe2|\x04C\x86L\x03\xc0'
tbsS'GTEX-TKQ2'
p454
g3
(g4
(I0
tS'b'
tRp455
(I1
(I1
I1
tg7
I00
S'N\xab\xbc\xf0\xc6\xd5\xf1?'
tbsS'GTEX-11NV4'
p456
g3
(g4
(I0
tS'b'
tRp457
(I1
(I1
I1
tg7
I00
S'\x944\xe7(\xf2v\x10@'
tbsS'GTEX-Y8DK'
p458
g3
(g4
(I0
tS'b'
tRp459
(I1
(I1
I1
tg7
I00
S'd\r\x102\x92:\x07@'
tbsS'GTEX-ZLFU'
p460
g3
(g4
(I0
tS'b'
tRp461
(I1
(I1
I1
tg7
I00
S'\x0b@)\xf1\xff\x05\xe1\xbf'
tbsS'GTEX-139YR'
p462
g3
(g4
(I0
tS'b'
tRp463
(I1
(I1
I1
tg7
I00
S'\x01[\xc0\xd1\x05\xa7\x0c\xc0'
tbsS'GTEX-YECK'
p464
g3
(g4
(I0
tS'b'
tRp465
(I1
(I1
I1
tg7
I00
S'\xb7\x1b\xc0\x13V\xde\x0c@'
tbsS'GTEX-13G51'
p466
g3
(g4
(I0
tS'b'
tRp467
(I1
(I1
I1
tg7
I00
S'l\xa9\xf6\x90\xa5\x93\x0b@'
tbsS'GTEX-ZLV1'
p468
g3
(g4
(I0
tS'b'
tRp469
(I1
(I1
I1
tg7
I00
S'\xe0\x1e\xd2\x1e\x96\xeb\xf9\xbf'
tbsS'GTEX-13QJ3'
p470
g3
(g4
(I0
tS'b'
tRp471
(I1
(I1
I1
tg7
I00
S'2]\xf5\xc7\x8f\xcd\xf5?'
tbsS'GTEX-T2IS'
p472
g3
(g4
(I0
tS'b'
tRp473
(I1
(I1
I1
tg7
I00
S'\xb7\xb7\xc1\x1d@)\xfb?'
tbsS'GTEX-ZDXO'
p474
g3
(g4
(I0
tS'b'
tRp475
(I1
(I1
I1
tg7
I00
S'\x8a\x01\x17b\xc4\xc6\x03@'
tbsS'GTEX-WY7C'
p476
g3
(g4
(I0
tS'b'
tRp477
(I1
(I1
I1
tg7
I00
S'=\xe8\xbc\xfc\xc8\x1a\xcb?'
tbsS'GTEX-PLZ4'
p478
g3
(g4
(I0
tS'b'
tRp479
(I1
(I1
I1
tg7
I00
S'\xb1\xa0\x98O\x94\xf3\x12\xc0'
tbsS'GTEX-13QJC'
p480
g3
(g4
(I0
tS'b'
tRp481
(I1
(I1
I1
tg7
I00
S'/\xa8"\\\xa1\x82\x02\xc0'
tbsS'GTEX-11WQC'
p482
g3
(g4
(I0
tS'b'
tRp483
(I1
(I1
I1
tg7
I00
S'\xb0c\xa4\xeam\x8a\xfa?'
tbsS'GTEX-YEC4'
p484
g3
(g4
(I0
tS'b'
tRp485
(I1
(I1
I1
tg7
I00
S'\xee\xc4][\xa7\x04\xf1?'
tbsS'GTEX-ZTPG'
p486
g3
(g4
(I0
tS'b'
tRp487
(I1
(I1
I1
tg7
I00
S'$\x00\xc4\x10\xb0\xec\n\xc0'
tbsS'GTEX-YEC3'
p488
g3
(g4
(I0
tS'b'
tRp489
(I1
(I1
I1
tg7
I00
S'g\xab\xab9\xb5\xc3\xe1?'
tbsS'GTEX-T5JW'
p490
g3
(g4
(I0
tS'b'
tRp491
(I1
(I1
I1
tg7
I00
S'\xb0\xd2u,K\xeb\xfe?'
tbsS'GTEX-R53T'
p492
g3
(g4
(I0
tS'b'
tRp493
(I1
(I1
I1
tg7
I00
S'C\x00\xd8\xde/\xc7\x07\xc0'
tbsS'GTEX-WQUQ'
p494
g3
(g4
(I0
tS'b'
tRp495
(I1
(I1
I1
tg7
I00
S'\xc56\x814\xd1G\x00\xc0'
tbsS'GTEX-111VG'
p496
g3
(g4
(I0
tS'b'
tRp497
(I1
(I1
I1
tg7
I00
S'\x7f\xea\x90\xd7\xa0\x1b\x07@'
tbsS'GTEX-NFK9'
p498
g3
(g4
(I0
tS'b'
tRp499
(I1
(I1
I1
tg7
I00
S'r`\x84L\xb6P\xda?'
tbsS'GTEX-T5JC'
p500
g3
(g4
(I0
tS'b'
tRp501
(I1
(I1
I1
tg7
I00
S'\xae\x97\xc8\x0b?f\xe3\xbf'
tbsS'GTEX-RVPV'
p502
g3
(g4
(I0
tS'b'
tRp503
(I1
(I1
I1
tg7
I00
S'x[\xe4\xacb\x9b\xf9?'
tbsS'GTEX-RVPU'
p504
g3
(g4
(I0
tS'b'
tRp505
(I1
(I1
I1
tg7
I00
S'\xf7\xea\x9c\x82@\x9e\xec?'
tbsS'GTEX-UTHO'
p506
g3
(g4
(I0
tS'b'
tRp507
(I1
(I1
I1
tg7
I00
S'fOp\x8e\x89\xdf\r\xc0'
tbsS'GTEX-11LCK'
p508
g3
(g4
(I0
tS'b'
tRp509
(I1
(I1
I1
tg7
I00
S'[\xd7\xc8\xbc\xb5C\xd7?'
tbsS'GTEX-X88G'
p510
g3
(g4
(I0
tS'b'
tRp511
(I1
(I1
I1
tg7
I00
S'>\xcfG\xb5Ki\x02\xc0'
tbsS'GTEX-QLQW'
p512
g3
(g4
(I0
tS'b'
tRp513
(I1
(I1
I1
tg7
I00
S'F$\xd6<\xf1\x9c\xdf?'
tbsS'GTEX-13PL7'
p514
g3
(g4
(I0
tS'b'
tRp515
(I1
(I1
I1
tg7
I00
S'n<\xaa\xef|\xadp?'
tbsS'GTEX-13PL6'
p516
g3
(g4
(I0
tS'b'
tRp517
(I1
(I1
I1
tg7
I00
S'\xde#u\xddS\x9f\xe8\xbf'
tbsS'GTEX-11ZUS'
p518
g3
(g4
(I0
tS'b'
tRp519
(I1
(I1
I1
tg7
I00
S'\xf23K\xcd\x97\x0e\t@'
tbsS'GTEX-WFON'
p520
g3
(g4
(I0
tS'b'
tRp521
(I1
(I1
I1
tg7
I00
S'\xb8\x9f6aO\xba\xd7?'
tbsS'GTEX-QVUS'
p522
g3
(g4
(I0
tS'b'
tRp523
(I1
(I1
I1
tg7
I00
S'\x992\x8dqqd\xf7\xbf'
tbsS'GTEX-U8T8'
p524
g3
(g4
(I0
tS'b'
tRp525
(I1
(I1
I1
tg7
I00
S'Y\xc3\x06t\xfb\xa3\xdf\xbf'
tbsS'GTEX-YFCO'
p526
g3
(g4
(I0
tS'b'
tRp527
(I1
(I1
I1
tg7
I00
S'\n\x18je\xb2\xd1\xd5\xbf'
tbsS'GTEX-P78B'
p528
g3
(g4
(I0
tS'b'
tRp529
(I1
(I1
I1
tg7
I00
S'\x16V\x0e8\x15\x99\xea\xbf'
tbsS'GTEX-YFC4'
p530
g3
(g4
(I0
tS'b'
tRp531
(I1
(I1
I1
tg7
I00
S'M\xf8\xac\x9d\xbd\xfa\xf9?'
tbsS'GTEX-11ZTT'
p532
g3
(g4
(I0
tS'b'
tRp533
(I1
(I1
I1
tg7
I00
S'\xda;J\x92\xcf1\xf7?'
tbsS'GTEX-11ZTS'
p534
g3
(g4
(I0
tS'b'
tRp535
(I1
(I1
I1
tg7
I00
S'X\r\xaf%d\xd6\x04@'
tbsS'GTEX-13PLJ'
p536
g3
(g4
(I0
tS'b'
tRp537
(I1
(I1
I1
tg7
I00
S'n\xc0R\x1fh3\xfa?'
tbsS'GTEX-OOBJ'
p538
g3
(g4
(I0
tS'b'
tRp539
(I1
(I1
I1
tg7
I00
S' \xd9\xdb~\xaa\x96\xe9\xbf'
tbsS'GTEX-XOT4'
p540
g3
(g4
(I0
tS'b'
tRp541
(I1
(I1
I1
tg7
I00
S'\xa8\x04y\x95KC\xff?'
tbsS'GTEX-S4Q7'
p542
g3
(g4
(I0
tS'b'
tRp543
(I1
(I1
I1
tg7
I00
S'\x18U\xa0L\xccH\xfd\xbf'
tbsS'GTEX-13FLW'
p544
g3
(g4
(I0
tS'b'
tRp545
(I1
(I1
I1
tg7
I00
S'\xf3\x94\x7fJ\x9a\x05\n@'
tbsS'GTEX-13FLV'
p546
g3
(g4
(I0
tS'b'
tRp547
(I1
(I1
I1
tg7
I00
S'`P\x9a"\xb5 \n@'
tbsS'GTEX-QLQ7'
p548
g3
(g4
(I0
tS'b'
tRp549
(I1
(I1
I1
tg7
I00
S'\xafy\x0b\x8b\xa2\xf5\xc8?'
tbsS'GTEX-RN64'
p550
g3
(g4
(I0
tS'b'
tRp551
(I1
(I1
I1
tg7
I00
S'O\x19U \x17\xfb\x01@'
tbsS'GTEX-ZYT6'
p552
g3
(g4
(I0
tS'b'
tRp553
(I1
(I1
I1
tg7
I00
S'h\xbc\xa2\x8f\xa6\xe5\n@'
tbsS'GTEX-11XUK'
p554
g3
(g4
(I0
tS'b'
tRp555
(I1
(I1
I1
tg7
I00
S'e\xb3\x01\x88\x0b\x8a\xda\xbf'
tbsS'GTEX-ZTSS'
p556
g3
(g4
(I0
tS'b'
tRp557
(I1
(I1
I1
tg7
I00
S'\x94\x06o\x7f\xcf\xef\xde?'
tbsS'GTEX-1117F'
p558
g3
(g4
(I0
tS'b'
tRp559
(I1
(I1
I1
tg7
I00
S'fj\x9a\xc3\xff=\xff\xbf'
tbsS'GTEX-113JC'
p560
g3
(g4
(I0
tS'b'
tRp561
(I1
(I1
I1
tg7
I00
S"K#'\xfe\nC\x03@"
tbsS'GTEX-Z9EW'
p562
g3
(g4
(I0
tS'b'
tRp563
(I1
(I1
I1
tg7
I00
S'\x9eF@\r\xf2`\xe4\xbf'
tbsS'GTEX-ZPU1'
p564
g3
(g4
(I0
tS'b'
tRp565
(I1
(I1
I1
tg7
I00
S'\xb2\x88\xed\xc7\xca\x8b\xf8?'
tbsS'GTEX-XUJ4'
p566
g3
(g4
(I0
tS'b'
tRp567
(I1
(I1
I1
tg7
I00
S':hO\xdf\x9f<\xee\xbf'
tbsS'GTEX-11DZ1'
p568
g3
(g4
(I0
tS'b'
tRp569
(I1
(I1
I1
tg7
I00
S'\xff\xf3T\xeeP\x80\x12\xc0'
tbsS'GTEX-R3RS'
p570
g3
(g4
(I0
tS'b'
tRp571
(I1
(I1
I1
tg7
I00
S'\x84\xba\xef;\x91\x7f\xf8\xbf'
tbsS'GTEX-13NZ8'
p572
g3
(g4
(I0
tS'b'
tRp573
(I1
(I1
I1
tg7
I00
S'7\x9a2\xdd\x84\x16\x1b\xc0'
tbsS'GTEX-QMR6'
p574
g3
(g4
(I0
tS'b'
tRp575
(I1
(I1
I1
tg7
I00
S'&\x0f)mi=\xfb?'
tbsS'GTEX-WRHU'
p576
g3
(g4
(I0
tS'b'
tRp577
(I1
(I1
I1
tg7
I00
S'\xea\xbd\x92\xe8\x8dT\x04@'
tbsS'GTEX-WCDI'
p578
g3
(g4
(I0
tS'b'
tRp579
(I1
(I1
I1
tg7
I00
S'\xd9\x9b\xe3\x1b4?\x16\xc0'
tbsS'GTEX-QMRM'
p580
g3
(g4
(I0
tS'b'
tRp581
(I1
(I1
I1
tg7
I00
S'\xcc\xdc\\\xad<\xac\xd9\xbf'
tbsS'GTEX-TMZS'
p582
g3
(g4
(I0
tS'b'
tRp583
(I1
(I1
I1
tg7
I00
S"\x0c'\xa1\xfea\x96\xfb?"
tbsS'GTEX-13NZB'
p584
g3
(g4
(I0
tS'b'
tRp585
(I1
(I1
I1
tg7
I00
S']e\x04D\xafd\x00\xc0'
tbsS'GTEX-13NZA'
p586
g3
(g4
(I0
tS'b'
tRp587
(I1
(I1
I1
tg7
I00
S'\x95\x05\x1a\xb5\x92#\xf5?'
tbsS'GTEX-12ZZX'
p588
g3
(g4
(I0
tS'b'
tRp589
(I1
(I1
I1
tg7
I00
S'\xa2^\x14+\xed\xea\xf8?'
tbsS'GTEX-13OW8'
p590
g3
(g4
(I0
tS'b'
tRp591
(I1
(I1
I1
tg7
I00
S'\x88\xbe[\xf8\xcf\xf6\x01@'
tbsS'GTEX-13OW5'
p592
g3
(g4
(I0
tS'b'
tRp593
(I1
(I1
I1
tg7
I00
S'4\xe1\x17\xafW\xcc\r\xc0'
tbsS'GTEX-13OW7'
p594
g3
(g4
(I0
tS'b'
tRp595
(I1
(I1
I1
tg7
I00
S'\x88\x99\xf0\xf8\xc6\xd6\x0f@'
tbsS'GTEX-13OW6'
p596
g3
(g4
(I0
tS'b'
tRp597
(I1
(I1
I1
tg7
I00
S'\x9d6\x81\\\xa3R\x07@'
tbsS'GTEX-U4B1'
p598
g3
(g4
(I0
tS'b'
tRp599
(I1
(I1
I1
tg7
I00
S'q\xc3\x82\x8ce\x08\xf4\xbf'
tbsS'GTEX-11P81'
p600
g3
(g4
(I0
tS'b'
tRp601
(I1
(I1
I1
tg7
I00
S'\x99k\r\xe7\xa1\x96\xe5?'
tbsS'GTEX-11P82'
p602
g3
(g4
(I0
tS'b'
tRp603
(I1
(I1
I1
tg7
I00
S'\xa0\xb7\xb4\xef\x80\x91\xf5?'
tbsS'GTEX-117YW'
p604
g3
(g4
(I0
tS'b'
tRp605
(I1
(I1
I1
tg7
I00
S'\x03\x93B&\xe2n\n@'
tbsS'GTEX-12KS4'
p606
g3
(g4
(I0
tS'b'
tRp607
(I1
(I1
I1
tg7
I00
S'5\x18\x97Ed_\xee?'
tbsS'GTEX-X62O'
p608
g3
(g4
(I0
tS'b'
tRp609
(I1
(I1
I1
tg7
I00
S'\xa1\x02\x03\x0e\xf5Q\x10\xc0'
tbsS'GTEX-13FH7'
p610
g3
(g4
(I0
tS'b'
tRp611
(I1
(I1
I1
tg7
I00
S'qo\xb9\x8e\xbe\xc7\xbd?'
tbsS'GTEX-ZPIC'
p612
g3
(g4
(I0
tS'b'
tRp613
(I1
(I1
I1
tg7
I00
S"'M\xb8\xa3\xdc\x97\xf1?"
tbsS'GTEX-117XS'
p614
g3
(g4
(I0
tS'b'
tRp615
(I1
(I1
I1
tg7
I00
S'H\xfb\x91g\xe9g\x08@'
tbsS'GTEX-OOBK'
p616
g3
(g4
(I0
tS'b'
tRp617
(I1
(I1
I1
tg7
I00
S'\xcd\x11\\\xa7J\r\x08\xc0'
tbsS'GTEX-12584'
p618
g3
(g4
(I0
tS'b'
tRp619
(I1
(I1
I1
tg7
I00
S'\x00\xd9\xda\x959\xfe\xaf?'
tbsS'GTEX-12ZZZ'
p620
g3
(g4
(I0
tS'b'
tRp621
(I1
(I1
I1
tg7
I00
S'[\x12\x99$\x99\xbd\x01@'
tbsS'GTEX-Y114'
p622
g3
(g4
(I0
tS'b'
tRp623
(I1
(I1
I1
tg7
I00
S'\x14\xaa\x03\x0e\xd3\x13\x05@'
tbsS'GTEX-S33H'
p624
g3
(g4
(I0
tS'b'
tRp625
(I1
(I1
I1
tg7
I00
S'\xa0\xe6\xcf\xdf\xcf\x7f\xfb\xbf'
tbsS'GTEX-Y111'
p626
g3
(g4
(I0
tS'b'
tRp627
(I1
(I1
I1
tg7
I00
S'\x0f\xd5\xde\xe9<\x18\x06@'
tbsS'GTEX-ZYFC'
p628
g3
(g4
(I0
tS'b'
tRp629
(I1
(I1
I1
tg7
I00
S'"w\x02b \xf6\x12@'
tbsS'GTEX-ZYFG'
p630
g3
(g4
(I0
tS'b'
tRp631
(I1
(I1
I1
tg7
I00
S'\xaf\xc6\x1b\x8c&\x8f\xd5?'
tbsS'GTEX-OHPN'
p632
g3
(g4
(I0
tS'b'
tRp633
(I1
(I1
I1
tg7
I00
S'\r\x9d7\xd0=\x1a\xef?'
tbsS'GTEX-OHPM'
p634
g3
(g4
(I0
tS'b'
tRp635
(I1
(I1
I1
tg7
I00
S'\xf9\x7f\xeb\\g{\x01\xc0'
tbsS'GTEX-ZYFD'
p636
g3
(g4
(I0
tS'b'
tRp637
(I1
(I1
I1
tg7
I00
S'\n\x8bq\xfc\x90\xfc\xf0\xbf'
tbsS'GTEX-Z93S'
p638
g3
(g4
(I0
tS'b'
tRp639
(I1
(I1
I1
tg7
I00
S'.TO[\xe1{\x06@'
tbsS'GTEX-Z93T'
p640
g3
(g4
(I0
tS'b'
tRp641
(I1
(I1
I1
tg7
I00
S'\x8a!\xee\xef\xe4Q\x01@'
tbsS'GTEX-UPK5'
p642
g3
(g4
(I0
tS'b'
tRp643
(I1
(I1
I1
tg7
I00
S'\xd5\xaa\xce\xcd\xf1\xa6\xf7\xbf'
tbsS'GTEX-13U4I'
p644
g3
(g4
(I0
tS'b'
tRp645
(I1
(I1
I1
tg7
I00
S'\xf2\x9bU8\xb8\xea\xf7?'
tbsS'GTEX-Y5LM'
p646
g3
(g4
(I0
tS'b'
tRp647
(I1
(I1
I1
tg7
I00
S'\x17\xdfQ\xc5\xa8\xa3\x00\xc0'
tbsS'GTEX-QESD'
p648
g3
(g4
(I0
tS'b'
tRp649
(I1
(I1
I1
tg7
I00
S'\x97\xf6\x86t\xb2@\xfb\xbf'
tbsS'GTEX-UJHI'
p650
g3
(g4
(I0
tS'b'
tRp651
(I1
(I1
I1
tg7
I00
S'\x8b\xe1\xce\x14hv\xcc\xbf'
tbsS'GTEX-S3XE'
p652
g3
(g4
(I0
tS'b'
tRp653
(I1
(I1
I1
tg7
I00
S'>\xfe\xc6(\xd98\xe4\xbf'
tbsS'GTEX-11EQ9'
p654
g3
(g4
(I0
tS'b'
tRp655
(I1
(I1
I1
tg7
I00
S'\xe5\xcf\x10;\xb4\x1b\xd1\xbf'
tbsS'GTEX-11EQ8'
p656
g3
(g4
(I0
tS'b'
tRp657
(I1
(I1
I1
tg7
I00
S'\xe9\xfb8\xf1\xd9\xdf\x17\xc0'
tbsS'GTEX-RM2N'
p658
g3
(g4
(I0
tS'b'
tRp659
(I1
(I1
I1
tg7
I00
S'\xe4e}~\x11\x07\xf8\xbf'
tbsS'GTEX-13FHP'
p660
g3
(g4
(I0
tS'b'
tRp661
(I1
(I1
I1
tg7
I00
S'\x82\x84\xfb\x164v\x08@'
tbsS'GTEX-XMD3'
p662
g3
(g4
(I0
tS'b'
tRp663
(I1
(I1
I1
tg7
I00
S'\xcc\x9f\xa0saN\x1f\xc0'
tbsS'GTEX-XMD2'
p664
g3
(g4
(I0
tS'b'
tRp665
(I1
(I1
I1
tg7
I00
S'\xf8wa\x1cM#\x04\xc0'
tbsS'GTEX-XMD1'
p666
g3
(g4
(I0
tS'b'
tRp667
(I1
(I1
I1
tg7
I00
S'\xeaer6zG\x19\xc0'
tbsS'GTEX-11TUW'
p668
g3
(g4
(I0
tS'b'
tRp669
(I1
(I1
I1
tg7
I00
S'D\x1a\x96}\xa7\xd8\xe6?'
tbsS'GTEX-U412'
p670
g3
(g4
(I0
tS'b'
tRp671
(I1
(I1
I1
tg7
I00
S'\xd3\xb2\xfd\xf5uR\xfe?'
tbsS'GTEX-1339X'
p672
g3
(g4
(I0
tS'b'
tRp673
(I1
(I1
I1
tg7
I00
S'\x97BL\xbbr7\x14\xc0'
tbsS'GTEX-XV7Q'
p674
g3
(g4
(I0
tS'b'
tRp675
(I1
(I1
I1
tg7
I00
S'\xa4fA\x9b;\x8e\x11\xc0'
tbsS'GTEX-12126'
p676
g3
(g4
(I0
tS'b'
tRp677
(I1
(I1
I1
tg7
I00
S'\x95\xc1\x8d:Q\xe7\x00@'
tbsS'GTEX-ZLWG'
p678
g3
(g4
(I0
tS'b'
tRp679
(I1
(I1
I1
tg7
I00
S'\xcf\xcf\xf8DU\xea\xd0?'
tbsS'GTEX-VJYA'
p680
g3
(g4
(I0
tS'b'
tRp681
(I1
(I1
I1
tg7
I00
S'\x91\xea\xca\x1eq&\xed?'
tbsS'GTEX-ZTX8'
p682
g3
(g4
(I0
tS'b'
tRp683
(I1
(I1
I1
tg7
I00
S'\x80\xd5\xf9d\x8c\x8c\x8e?'
tbsS'GTEX-ZVT2'
p684
g3
(g4
(I0
tS'b'
tRp685
(I1
(I1
I1
tg7
I00
S'\x1cC\xd8h\x046\xfa?'
tbsS'GTEX-ZVT3'
p686
g3
(g4
(I0
tS'b'
tRp687
(I1
(I1
I1
tg7
I00
S"'\x12\x88\x17\xf0Q\x08@"
tbsS'GTEX-WXYG'
p688
g3
(g4
(I0
tS'b'
tRp689
(I1
(I1
I1
tg7
I00
S'@\xc2\xa6\xfb\x08 \xa5?'
tbsS'GTEX-ZVT4'
p690
g3
(g4
(I0
tS'b'
tRp691
(I1
(I1
I1
tg7
I00
S'\xedd\xca\x89W;\x04@'
tbsS'GTEX-TML8'
p692
g3
(g4
(I0
tS'b'
tRp693
(I1
(I1
I1
tg7
I00
S'\xf7\xc6\xadN\r\xa9\x03@'
tbsS'GTEX-13FTY'
p694
g3
(g4
(I0
tS'b'
tRp695
(I1
(I1
I1
tg7
I00
S'R\xc7\xbc\xcb\xb3\xee\xf5?'
tbsS'GTEX-13FTX'
p696
g3
(g4
(I0
tS'b'
tRp697
(I1
(I1
I1
tg7
I00
S'D\xa8\xd2\xf5\xd5\xba\xf9\xbf'
tbsS'GTEX-13FTZ'
p698
g3
(g4
(I0
tS'b'
tRp699
(I1
(I1
I1
tg7
I00
S'w1\x1e#I.\n@'
tbsS'GTEX-13S86'
p700
g3
(g4
(I0
tS'b'
tRp701
(I1
(I1
I1
tg7
I00
S'\x9d\x00\x99\x14\xfa\xcd\x1b\xc0'
tbsS'GTEX-W5X1'
p702
g3
(g4
(I0
tS'b'
tRp703
(I1
(I1
I1
tg7
I00
S'(X\xe55m\xa6\xa2\xbf'
tbsS'GTEX-ZAJG'
p704
g3
(g4
(I0
tS'b'
tRp705
(I1
(I1
I1
tg7
I00
S'\x1eE.\x85\xd0\x07\x19\xc0'
tbsS'GTEX-SNMC'
p706
g3
(g4
(I0
tS'b'
tRp707
(I1
(I1
I1
tg7
I00
S's\x80\xf0\xedY@\xdb\xbf'
tbsS'GTEX-13FTW'
p708
g3
(g4
(I0
tS'b'
tRp709
(I1
(I1
I1
tg7
I00
S'u;\xa4X\x93\x0b\xdd?'
tbsS'GTEX-11NUK'
p710
g3
(g4
(I0
tS'b'
tRp711
(I1
(I1
I1
tg7
I00
S'\x99\x8c\xe0\xcd\xda\xa0\x12@'
tbsS'GTEX-ZVTK'
p712
g3
(g4
(I0
tS'b'
tRp713
(I1
(I1
I1
tg7
I00
S'\xc9-\x82M\x07/\x0b@'
tbsS'GTEX-ZZ64'
p714
g3
(g4
(I0
tS'b'
tRp715
(I1
(I1
I1
tg7
I00
S'\xb7\x16\x02{j\xf4\xdd?'
tbsS'GTEX-PWO3'
p716
g3
(g4
(I0
tS'b'
tRp717
(I1
(I1
I1
tg7
I00
S'\x83\x8e\x16\xeb\x7fv\x13\xc0'
tbsS'GTEX-13NYS'
p718
g3
(g4
(I0
tS'b'
tRp719
(I1
(I1
I1
tg7
I00
S'\x87E\x1d\xc6\xb5T \xc0'
tbsS'GTEX-1212Z'
p720
g3
(g4
(I0
tS'b'
tRp721
(I1
(I1
I1
tg7
I00
S'\xe6l%\x89M@\t@'
tbsS'GTEX-11I78'
p722
g3
(g4
(I0
tS'b'
tRp723
(I1
(I1
I1
tg7
I00
S'\xf9\x0c\x06\x9b\x03b\xe5\xbf'
tbsS'GTEX-13NYB'
p724
g3
(g4
(I0
tS'b'
tRp725
(I1
(I1
I1
tg7
I00
S'\xebo\x0e\x02\x80F\x08@'
tbsS'GTEX-13NYC'
p726
g3
(g4
(I0
tS'b'
tRp727
(I1
(I1
I1
tg7
I00
S'\xfaS\xb9A\xb1\xfa\x1e\xc0'
tbsS'GTEX-Y9LG'
p728
g3
(g4
(I0
tS'b'
tRp729
(I1
(I1
I1
tg7
I00
S'\x0e\xfe\xe7\xf5!\x13\xdb?'
tbsS'GTEX-X5EB'
p730
g3
(g4
(I0
tS'b'
tRp731
(I1
(I1
I1
tg7
I00
S'\xd9\x83\x9a\x9e2n\xc9\xbf'
tbsS'GTEX-1399Q'
p732
g3
(g4
(I0
tS'b'
tRp733
(I1
(I1
I1
tg7
I00
S'L\xe7u\x9f-\x07\x1a\xc0'
tbsS'GTEX-1399R'
p734
g3
(g4
(I0
tS'b'
tRp735
(I1
(I1
I1
tg7
I00
S'J\x19<)\x9cS\xeb\xbf'
tbsS'GTEX-1399U'
p736
g3
(g4
(I0
tS'b'
tRp737
(I1
(I1
I1
tg7
I00
S'7\xaf.\xd2\x10p\xf0?'
tbsS'GTEX-1399T'
p738
g3
(g4
(I0
tS'b'
tRp739
(I1
(I1
I1
tg7
I00
S'\xaf\xb2\xf6\x12\xc17\x0c@'
tbsS'GTEX-13X6I'
p740
g3
(g4
(I0
tS'b'
tRp741
(I1
(I1
I1
tg7
I00
S'\x822\x17~5"\x06\xc0'
tbsS'GTEX-13X6H'
p742
g3
(g4
(I0
tS'b'
tRp743
(I1
(I1
I1
tg7
I00
S')\xcc\x94\xcc\x91\xb2\xe9\xbf'
tbsS'GTEX-13X6K'
p744
g3
(g4
(I0
tS'b'
tRp745
(I1
(I1
I1
tg7
I00
S',\x1e\x1f\x91\xbd\xe3\xfb?'
tbsS'GTEX-13X6J'
p746
g3
(g4
(I0
tS'b'
tRp747
(I1
(I1
I1
tg7
I00
S'\xdf3<\x1e\x9dR\x10@'
tbsS'GTEX-ZXG5'
p748
g3
(g4
(I0
tS'b'
tRp749
(I1
(I1
I1
tg7
I00
S'\xc2\xb3-f\xa7\x95\xf9?'
tbsS'GTEX-11ZU8'
p750
g3
(g4
(I0
tS'b'
tRp751
(I1
(I1
I1
tg7
I00
S'\x9f\xd4\xef\x1f)\x82\xfe?'
tbsS'GTEX-QVJO'
p752
g3
(g4
(I0
tS'b'
tRp753
(I1
(I1
I1
tg7
I00
S'=}\xf8;\xa2\xda\xea\xbf'
tbsS'GTEX-RWS6'
p754
g3
(g4
(I0
tS'b'
tRp755
(I1
(I1
I1
tg7
I00
S'W\xa2\xfa!\x81\x02\xe9\xbf'
tbsS'GTEX-ZP4G'
p756
g3
(g4
(I0
tS'b'
tRp757
(I1
(I1
I1
tg7
I00
S"%'\xc2\xfe\xb6I\xf3?"
tbsS'GTEX-Y8E4'
p758
g3
(g4
(I0
tS'b'
tRp759
(I1
(I1
I1
tg7
I00
S'\x89\xe4$6%\xc6\xdd?'
tbsS'GTEX-Y8E5'
p760
g3
(g4
(I0
tS'b'
tRp761
(I1
(I1
I1
tg7
I00
S'\x10\xee<^7\xf1\xd6\xbf'
tbsS'GTEX-WH7G'
p762
g3
(g4
(I0
tS'b'
tRp763
(I1
(I1
I1
tg7
I00
S'\xd2\x19Yg6\x8c\xd6\xbf'
tbsS'GTEX-WEY5'
p764
g3
(g4
(I0
tS'b'
tRp765
(I1
(I1
I1
tg7
I00
S'\xf7\xe4xC\x02\xe1\xf2?'
tbsS'GTEX-11P7K'
p766
g3
(g4
(I0
tS'b'
tRp767
(I1
(I1
I1
tg7
I00
S'2\xfa\x8f\xcb\xe4\xbb\xfb?'
tbsS'GTEX-S7PM'
p768
g3
(g4
(I0
tS'b'
tRp769
(I1
(I1
I1
tg7
I00
S'\xffP\x8c^\xbb@\x08@'
tbsS'GTEX-V1D1'
p770
g3
(g4
(I0
tS'b'
tRp771
(I1
(I1
I1
tg7
I00
S'\x1fo\xfd\xac*\x9b\xd8\xbf'
tbsS'GTEX-WRHK'
p772
g3
(g4
(I0
tS'b'
tRp773
(I1
(I1
I1
tg7
I00
S"\x04'\xc5\xa9\xd7\xcd\xd0\xbf"
tbsS'GTEX-R55C'
p774
g3
(g4
(I0
tS'b'
tRp775
(I1
(I1
I1
tg7
I00
S'xI*\xe5\x10U\xea\xbf'
tbsS'GTEX-R55F'
p776
g3
(g4
(I0
tS'b'
tRp777
(I1
(I1
I1
tg7
I00
S'\xab\xf9\xdfhy:\x11\xc0'
tbsS'GTEX-R55G'
p778
g3
(g4
(I0
tS'b'
tRp779
(I1
(I1
I1
tg7
I00
S'\xe9\x07\x88\xbd\x17,\xfc\xbf'
tbsS'GTEX-R55D'
p780
g3
(g4
(I0
tS'b'
tRp781
(I1
(I1
I1
tg7
I00
S'H>\xf4F\xd3\xee\xfe\xbf'
tbsS'GTEX-R55E'
p782
g3
(g4
(I0
tS'b'
tRp783
(I1
(I1
I1
tg7
I00
S'G\xde\xdd\xee\xe0y\xf2?'
tbsS'GTEX-PSDG'
p784
g3
(g4
(I0
tS'b'
tRp785
(I1
(I1
I1
tg7
I00
S'\xb6\xeb\xcb\xac\xfcQ\x01\xc0'
tbsS'GTEX-RWSA'
p786
g3
(g4
(I0
tS'b'
tRp787
(I1
(I1
I1
tg7
I00
S'\x93\x85>x\xbf\xa5\x08@'
tbsS'GTEX-1122O'
p788
g3
(g4
(I0
tS'b'
tRp789
(I1
(I1
I1
tg7
I00
S'vVC\xe6\xce\x0f\xf2?'
tbsS'GTEX-X4EO'
p790
g3
(g4
(I0
tS'b'
tRp791
(I1
(I1
I1
tg7
I00
S'\xb1*!\xe1\xa1C\x01@'
tbsS'GTEX-WVLH'
p792
g3
(g4
(I0
tS'b'
tRp793
(I1
(I1
I1
tg7
I00
S'Eu\x05\xa9\x11\x87\xf6?'
tbsS'GTEX-WYVS'
p794
g3
(g4
(I0
tS'b'
tRp795
(I1
(I1
I1
tg7
I00
S'\xf4\x01\xeb6\x19\xe3\xf6?'
tbsS'GTEX-X4EP'
p796
g3
(g4
(I0
tS'b'
tRp797
(I1
(I1
I1
tg7
I00
S'6\x03/\x07\x89\x19\x0c\xc0'
tbsS'GTEX-YB5E'
p798
g3
(g4
(I0
tS'b'
tRp799
(I1
(I1
I1
tg7
I00
S'\x1c\xb5\xb8\xe0\x07\xed\xde?'
tbsS'GTEX-RU1J'
p800
g3
(g4
(I0
tS'b'
tRp801
(I1
(I1
I1
tg7
I00
S"3/s'w\xf0\xff\xbf"
tbsS'GTEX-11GSP'
p802
g3
(g4
(I0
tS'b'
tRp803
(I1
(I1
I1
tg7
I00
S'\xd2\xb4\x8c_\xa7\xe5\x03@'
tbsS'GTEX-11GSO'
p804
g3
(g4
(I0
tS'b'
tRp805
(I1
(I1
I1
tg7
I00
S'Y\xe05\xfe\xb6\xcc\x02@'
tbsS'GTEX-12ZZY'
p806
g3
(g4
(I0
tS'b'
tRp807
(I1
(I1
I1
tg7
I00
S'6\xf8E[\xbbU\x06@'
tbsS'GTEX-11UD2'
p808
g3
(g4
(I0
tS'b'
tRp809
(I1
(I1
I1
tg7
I00
S'NX\xc9kqb\xb6?'
tbsS'GTEX-11PRG'
p810
g3
(g4
(I0
tS'b'
tRp811
(I1
(I1
I1
tg7
I00
S'\xa5\x93\x99Uz\x0c\x0f@'
tbsS'GTEX-SN8G'
p812
g3
(g4
(I0
tS'b'
tRp813
(I1
(I1
I1
tg7
I00
S'\xef,}\x81Q!\xf7\xbf'
tbsS'GTEX-ZVP2'
p814
g3
(g4
(I0
tS'b'
tRp815
(I1
(I1
I1
tg7
I00
S'E\x02?\x88\x87\x81\xb5?'
tbsS'GTEX-12ZZW'
p816
g3
(g4
(I0
tS'b'
tRp817
(I1
(I1
I1
tg7
I00
S'\xe8\xe2\xef}\xea\xf1\xea\xbf'
tbsS'GTEX-13W3W'
p818
g3
(g4
(I0
tS'b'
tRp819
(I1
(I1
I1
tg7
I00
S'a\xbe\xb03S\x8d\xd7\xbf'
tbsS'GTEX-S4Z8'
p820
g3
(g4
(I0
tS'b'
tRp821
(I1
(I1
I1
tg7
I00
S'\xac7|.\x9e\x03\xd9\xbf'
tbsS'GTEX-1211K'
p822
g3
(g4
(I0
tS'b'
tRp823
(I1
(I1
I1
tg7
I00
S":\xceW'\xad\xbb\xd6?"
tbsS'GTEX-ZG7Y'
p824
g3
(g4
(I0
tS'b'
tRp825
(I1
(I1
I1
tg7
I00
S'B\xe3\x8b%jC\x07\xc0'
tbsS'GTEX-ZA64'
p826
g3
(g4
(I0
tS'b'
tRp827
(I1
(I1
I1
tg7
I00
S'\xd7\x83\xf8\x92\xaa\x07\xdd?'
tbsS'GTEX-QCQG'
p828
g3
(g4
(I0
tS'b'
tRp829
(I1
(I1
I1
tg7
I00
S'F\xed\x8e\x94\xc5b\xc1?'
tbsS'GTEX-11DYG'
p830
g3
(g4
(I0
tS'b'
tRp831
(I1
(I1
I1
tg7
I00
S'\xa9V\xd4"\xc5\x18\x0c@'
tbsS'GTEX-S95S'
p832
g3
(g4
(I0
tS'b'
tRp833
(I1
(I1
I1
tg7
I00
S'\xf3jcE\xd2\x1e\xde\xbf'
tbsS'GTEX-Y5V6'
p834
g3
(g4
(I0
tS'b'
tRp835
(I1
(I1
I1
tg7
I00
S'l\xd8\xb0\x8d\x99h\xf1\xbf'
tbsS'GTEX-Y5V5'
p836
g3
(g4
(I0
tS'b'
tRp837
(I1
(I1
I1
tg7
I00
S'\xf4=\xed\xb790\xea?'
tbsS'GTEX-11GS4'
p838
g3
(g4
(I0
tS'b'
tRp839
(I1
(I1
I1
tg7
I00
S'^\xcc<~\xf4A\r@'
tbsS'GTEX-QDT8'
p840
g3
(g4
(I0
tS'b'
tRp841
(I1
(I1
I1
tg7
I00
S'\xbe\xb8\xf2P\x08o\xb6?'
tbsS'GTEX-QXCU'
p842
g3
(g4
(I0
tS'b'
tRp843
(I1
(I1
I1
tg7
I00
S'bue\x86\xb6\xbf\x0e@'
tbsS'GTEX-YBZK'
p844
g3
(g4
(I0
tS'b'
tRp845
(I1
(I1
I1
tg7
I00
S'\x17:\xec\x90\xf2G\xce\xbf'
tbsS'GTEX-SSA3'
p846
g3
(g4
(I0
tS'b'
tRp847
(I1
(I1
I1
tg7
I00
S'\xefG\x93\x8d\xf1\xe2\xd4?'
tbsS'GTEX-PX3G'
p848
g3
(g4
(I0
tS'b'
tRp849
(I1
(I1
I1
tg7
I00
S'\x82\xc36\xf7\xa9\x86\x02@'
tbsS'GTEX-13O3P'
p850
g3
(g4
(I0
tS'b'
tRp851
(I1
(I1
I1
tg7
I00
S'e\xa5;\x00\x17\xfc\x12\xc0'
tbsS'GTEX-V955'
p852
g3
(g4
(I0
tS'b'
tRp853
(I1
(I1
I1
tg7
I00
S'\xd2\xbbL\xbd\xf1\x9e\t\xc0'
tbsS'GTEX-11TTK'
p854
g3
(g4
(I0
tS'b'
tRp855
(I1
(I1
I1
tg7
I00
S'5\xb04(\xf1\xdb\xda\xbf'
tbsS'GTEX-ZV7C'
p856
g3
(g4
(I0
tS'b'
tRp857
(I1
(I1
I1
tg7
I00
S'\xfcp\x0f\xe2u\x10\xd9?'
tbsS'GTEX-11ZVC'
p858
g3
(g4
(I0
tS'b'
tRp859
(I1
(I1
I1
tg7
I00
S'3\x8f\x8e\x99nx\x00@'
tbsS'GTEX-11EI6'
p860
g3
(g4
(I0
tS'b'
tRp861
(I1
(I1
I1
tg7
I00
S'\rXd\xfc\x08M\xd7?'
tbsS'GTEX-145MG'
p862
g3
(g4
(I0
tS'b'
tRp863
(I1
(I1
I1
tg7
I00
S'i\x9e\x9d,\x96\xcf\x02@'
tbsS'GTEX-11TT1'
p864
g3
(g4
(I0
tS'b'
tRp865
(I1
(I1
I1
tg7
I00
S'\x0fd\x85\xd7/\x02\x0c\xc0'
tbsS'GTEX-ZGAY'
p866
g3
(g4
(I0
tS'b'
tRp867
(I1
(I1
I1
tg7
I00
S'\rB\xd8\x1ap\xf0\x02@'
tbsS'GTEX-R45C'
p868
g3
(g4
(I0
tS'b'
tRp869
(I1
(I1
I1
tg7
I00
S'\xba\x96\xcd\xc6Fj\xfd\xbf'
tbsS'GTEX-XAJ8'
p870
g3
(g4
(I0
tS'b'
tRp871
(I1
(I1
I1
tg7
I00
S'\xbb\xc1\x0b3=\xec\x02\xc0'
tbsS'GTEX-YB5K'
p872
g3
(g4
(I0
tS'b'
tRp873
(I1
(I1
I1
tg7
I00
S'\xa6\xc9\xe0\x8e\x87\x95\xde\xbf'
tbsS'GTEX-RUSQ'
p874
g3
(g4
(I0
tS'b'
tRp875
(I1
(I1
I1
tg7
I00
S'\xd3\xdd\x1e\x15\xe7\x8a\x1e\xc0'
tbsS'GTEX-VJWN'
p876
g3
(g4
(I0
tS'b'
tRp877
(I1
(I1
I1
tg7
I00
S'(\xcd\x98D<\xbb\xc6\xbf'
tbsS'GTEX-U8XE'
p878
g3
(g4
(I0
tS'b'
tRp879
(I1
(I1
I1
tg7
I00
S'\xcf\x87\xd2d\xcbw\x0c\xc0'
tbsS'GTEX-XQ8I'
p880
g3
(g4
(I0
tS'b'
tRp881
(I1
(I1
I1
tg7
I00
S'X4\xe3H\x99\xe1\x06\xc0'
tbsS'GTEX-SNOS'
p882
g3
(g4
(I0
tS'b'
tRp883
(I1
(I1
I1
tg7
I00
S'\xbe#\x0c6\xe6\xfe\x02\xc0'
tbsS'GTEX-QV31'
p884
g3
(g4
(I0
tS'b'
tRp885
(I1
(I1
I1
tg7
I00
S'\xfb\xfeR\xbag\xaf\xe0?'
tbsS'GTEX-S7SE'
p886
g3
(g4
(I0
tS'b'
tRp887
(I1
(I1
I1
tg7
I00
S'q9R\x97\x16\t\x0e@'
tbsS'GTEX-145MF'
p888
g3
(g4
(I0
tS'b'
tRp889
(I1
(I1
I1
tg7
I00
S'E\xd3\xac\xc0\xfb#\x06@'
tbsS'GTEX-S7SF'
p890
g3
(g4
(I0
tS'b'
tRp891
(I1
(I1
I1
tg7
I00
S'Y\xda\x164\xb2X\xe2\xbf'
tbsS'GTEX-145MH'
p892
g3
(g4
(I0
tS'b'
tRp893
(I1
(I1
I1
tg7
I00
S'\xd7\xf7\x9a\x9a\x1e$\x07@'
tbsS'GTEX-WYJK'
p894
g3
(g4
(I0
tS'b'
tRp895
(I1
(I1
I1
tg7
I00
S'@$> \x05\xf1\xc4?'
tbsS'GTEX-145MO'
p896
g3
(g4
(I0
tS'b'
tRp897
(I1
(I1
I1
tg7
I00
S'\xa2A\x85OVJ\xe4?'
tbs.