(dp1
S'GTEX-YJ89'
p2
cnumpy.core.multiarray
_reconstruct
p3
(cnumpy
ndarray
p4
(I0
tS'b'
tRp5
(I1
(I1
I1
tcnumpy
dtype
p6
(S'f8'
I0
I1
tRp7
(I3
S'<'
NNNI-1
I-1
I0
tbI00
S'\x00\xce/T_\xec\x07@'
tbsS'GTEX-XPVG'
p8
g3
(g4
(I0
tS'b'
tRp9
(I1
(I1
I1
tg7
I00
S'\xab\xc8\xbf\xf4\x1d\xba\xe7?'
tbsS'GTEX-TMMY'
p10
g3
(g4
(I0
tS'b'
tRp11
(I1
(I1
I1
tg7
I00
S'qD\x8c\xb4\x06\xe4\xeb\xbf'
tbsS'GTEX-13IVO'
p12
g3
(g4
(I0
tS'b'
tRp13
(I1
(I1
I1
tg7
I00
S'\xac_\xd9\xc2\xb4\xd0\x1c\xc0'
tbsS'GTEX-WWYW'
p14
g3
(g4
(I0
tS'b'
tRp15
(I1
(I1
I1
tg7
I00
S'g\xa6cn\xe0U\x15\xc0'
tbsS'GTEX-111FC'
p16
g3
(g4
(I0
tS'b'
tRp17
(I1
(I1
I1
tg7
I00
S'\xd7{\xb5g\xe4\xfd\x02@'
tbsS'GTEX-139T8'
p18
g3
(g4
(I0
tS'b'
tRp19
(I1
(I1
I1
tg7
I00
S'K+\x80\xf5g\xc7\x11\xc0'
tbsS'GTEX-139T6'
p20
g3
(g4
(I0
tS'b'
tRp21
(I1
(I1
I1
tg7
I00
S'\x16\x82\xb9\x9b\x08\xef\xe4?'
tbsS'GTEX-13O1R'
p22
g3
(g4
(I0
tS'b'
tRp23
(I1
(I1
I1
tg7
I00
S'\xbaH\xa0m\xd7^\xd1\xbf'
tbsS'GTEX-TKQ1'
p24
g3
(g4
(I0
tS'b'
tRp25
(I1
(I1
I1
tg7
I00
S'\x08)\xb2\x8dG\xd6\xf4\xbf'
tbsS'GTEX-ZVE1'
p26
g3
(g4
(I0
tS'b'
tRp27
(I1
(I1
I1
tg7
I00
S'\xb8N&\x9b\x95\xcc\xfc\xbf'
tbsS'GTEX-Q2AG'
p28
g3
(g4
(I0
tS'b'
tRp29
(I1
(I1
I1
tg7
I00
S'\x90D?\x10\xcf\x03\xc0\xbf'
tbsS'GTEX-Q2AH'
p30
g3
(g4
(I0
tS'b'
tRp31
(I1
(I1
I1
tg7
I00
S'^ =7\xb2\xbf\r\xc0'
tbsS'GTEX-Q2AI'
p32
g3
(g4
(I0
tS'b'
tRp33
(I1
(I1
I1
tg7
I00
S'\xce\xc0G\xb9T\x85\x08\xc0'
tbsS'GTEX-S32W'
p34
g3
(g4
(I0
tS'b'
tRp35
(I1
(I1
I1
tg7
I00
S'\x88?H\x7f\xc6\xcd\x07\xc0'
tbsS'GTEX-ZEX8'
p36
g3
(g4
(I0
tS'b'
tRp37
(I1
(I1
I1
tg7
I00
S'\x15e\x95\xb5/\xe6\xee?'
tbsS'GTEX-13D11'
p38
g3
(g4
(I0
tS'b'
tRp39
(I1
(I1
I1
tg7
I00
S'\xd3;W\x07\xa13\xf3\xbf'
tbsS'GTEX-WZTO'
p40
g3
(g4
(I0
tS'b'
tRp41
(I1
(I1
I1
tg7
I00
S'\xf5\xdf!\x85\xfb:\xf8?'
tbsS'GTEX-139TU'
p42
g3
(g4
(I0
tS'b'
tRp43
(I1
(I1
I1
tg7
I00
S'\x7f \xb9\xb6f\x7f\x04@'
tbsS'GTEX-139TS'
p44
g3
(g4
(I0
tS'b'
tRp45
(I1
(I1
I1
tg7
I00
S'\xe6\x1b\x7fI`H\xf1?'
tbsS'GTEX-ZF3C'
p46
g3
(g4
(I0
tS'b'
tRp47
(I1
(I1
I1
tg7
I00
S'pe\x11\x87E\x16\xee?'
tbsS'GTEX-XMK1'
p48
g3
(g4
(I0
tS'b'
tRp49
(I1
(I1
I1
tg7
I00
S'\xb9!\xe3\x86q\xb5\xf6?'
tbsS'GTEX-WHWD'
p50
g3
(g4
(I0
tS'b'
tRp51
(I1
(I1
I1
tg7
I00
S'\x8e]\xb9&\xfc\xeb\x04\xc0'
tbsS'GTEX-1192W'
p52
g3
(g4
(I0
tS'b'
tRp53
(I1
(I1
I1
tg7
I00
S'F\xc4\xb1\\@\xce\n@'
tbsS'GTEX-X4XX'
p54
g3
(g4
(I0
tS'b'
tRp55
(I1
(I1
I1
tg7
I00
S'\xfb\xc7\xd8\x0c\x81\xd4\x12\xc0'
tbsS'GTEX-X4XY'
p56
g3
(g4
(I0
tS'b'
tRp57
(I1
(I1
I1
tg7
I00
S'0\xcat]\x92\x07\t\xc0'
tbsS'GTEX-13CZV'
p58
g3
(g4
(I0
tS'b'
tRp59
(I1
(I1
I1
tg7
I00
S'\x1b\xbaR\xf2\xfe\xdc\xcb?'
tbsS'GTEX-1192X'
p60
g3
(g4
(I0
tS'b'
tRp61
(I1
(I1
I1
tg7
I00
S'\x05\x1dz\xa1R\xbf\xfc\xbf'
tbsS'GTEX-T2YK'
p62
g3
(g4
(I0
tS'b'
tRp63
(I1
(I1
I1
tg7
I00
S"\xe8'\xd7%\xb5\x1b\x1f\xc0"
tbsS'GTEX-YJ8A'
p64
g3
(g4
(I0
tS'b'
tRp65
(I1
(I1
I1
tg7
I00
S'=\xe6\xb8\xb2\xe6\x08\x0b\xc0'
tbsS'GTEX-SIU8'
p66
g3
(g4
(I0
tS'b'
tRp67
(I1
(I1
I1
tg7
I00
S'\xb3\x1a\x18\xc1;D\t@'
tbsS'GTEX-QEG5'
p68
g3
(g4
(I0
tS'b'
tRp69
(I1
(I1
I1
tg7
I00
S'\x11\x03\xf6f\xfal\x11\xc0'
tbsS'GTEX-QEG4'
p70
g3
(g4
(I0
tS'b'
tRp71
(I1
(I1
I1
tg7
I00
S'\xce\x1d\xcbB`\xe9\x06@'
tbsS'GTEX-SIU7'
p72
g3
(g4
(I0
tS'b'
tRp73
(I1
(I1
I1
tg7
I00
S'\xd4r\x05\x10\xc5\xee\xf1\xbf'
tbsS'GTEX-WI4N'
p74
g3
(g4
(I0
tS'b'
tRp75
(I1
(I1
I1
tg7
I00
S'\xb1\x9b\x91E>!\t\xc0'
tbsS'GTEX-OXRL'
p76
g3
(g4
(I0
tS'b'
tRp77
(I1
(I1
I1
tg7
I00
S'\xb2C\xc3\xb3\xff\x1f\xe2\xbf'
tbsS'GTEX-OXRO'
p78
g3
(g4
(I0
tS'b'
tRp79
(I1
(I1
I1
tg7
I00
S'*\xf2\xae\xf4\xa5\xf7\x15\xc0'
tbsS'GTEX-OXRN'
p80
g3
(g4
(I0
tS'b'
tRp81
(I1
(I1
I1
tg7
I00
S'\xb9\xe6\xcccm\x0e\x0e\xc0'
tbsS'GTEX-OXRK'
p82
g3
(g4
(I0
tS'b'
tRp83
(I1
(I1
I1
tg7
I00
S'01\xb3\xabP\xfb\t\xc0'
tbsS'GTEX-X261'
p84
g3
(g4
(I0
tS'b'
tRp85
(I1
(I1
I1
tg7
I00
S'\x1e\x8a\xfd\xe7\xa99\x10\xc0'
tbsS'GTEX-13N1W'
p86
g3
(g4
(I0
tS'b'
tRp87
(I1
(I1
I1
tg7
I00
S'\xfd\xe6\xbc\x86\xf4\xc0\x01@'
tbsS'GTEX-UJMC'
p88
g3
(g4
(I0
tS'b'
tRp89
(I1
(I1
I1
tg7
I00
S'\x19\xb1E\n\xb56\xb5?'
tbsS'GTEX-SJXC'
p90
g3
(g4
(I0
tS'b'
tRp91
(I1
(I1
I1
tg7
I00
S'\x98\xf7\x86iRj\x07@'
tbsS'GTEX-13VXU'
p92
g3
(g4
(I0
tS'b'
tRp93
(I1
(I1
I1
tg7
I00
S'\xf8N\x1aMy6\x08@'
tbsS'GTEX-13VXT'
p94
g3
(g4
(I0
tS'b'
tRp95
(I1
(I1
I1
tg7
I00
S'\xb3Eqg\xf1i\xb1?'
tbsS'GTEX-OIZH'
p96
g3
(g4
(I0
tS'b'
tRp97
(I1
(I1
I1
tg7
I00
S'S\xfd\xf3b\xf6\x07\x08\xc0'
tbsS'GTEX-OIZI'
p98
g3
(g4
(I0
tS'b'
tRp99
(I1
(I1
I1
tg7
I00
S'\x9b\xef\xb1e\xfa\x82\x10@'
tbsS'GTEX-ZAB5'
p100
g3
(g4
(I0
tS'b'
tRp101
(I1
(I1
I1
tg7
I00
S'\nfS\x8c+B\x02\xc0'
tbsS'GTEX-ZAB4'
p102
g3
(g4
(I0
tS'b'
tRp103
(I1
(I1
I1
tg7
I00
S'\x0f\xedx1\xea\xaa\xe9?'
tbsS'GTEX-OHPL'
p104
g3
(g4
(I0
tS'b'
tRp105
(I1
(I1
I1
tg7
I00
S'\x06\xc5\x00&\xa6\xaa\xf4\xbf'
tbsS'GTEX-OIZG'
p106
g3
(g4
(I0
tS'b'
tRp107
(I1
(I1
I1
tg7
I00
S'8\x1e"\x7f#\x87\xf9?'
tbsS'GTEX-ZY6K'
p108
g3
(g4
(I0
tS'b'
tRp109
(I1
(I1
I1
tg7
I00
S'\xe3\xd0-\xf1<\x01\x02\xc0'
tbsS'GTEX-11DXW'
p110
g3
(g4
(I0
tS'b'
tRp111
(I1
(I1
I1
tg7
I00
S'MR\x8a\x9c\x15X\x0c@'
tbsS'GTEX-13CF2'
p112
g3
(g4
(I0
tS'b'
tRp113
(I1
(I1
I1
tg7
I00
S'\xff\x91\xec4\xcb\xc3\x05@'
tbsS'GTEX-13CF3'
p114
g3
(g4
(I0
tS'b'
tRp115
(I1
(I1
I1
tg7
I00
S'\xab\xe3w]\xc4Y\xf8\xbf'
tbsS'GTEX-11DXY'
p116
g3
(g4
(I0
tS'b'
tRp117
(I1
(I1
I1
tg7
I00
S'\x87j2\xde\x99\x18\x03@'
tbsS'GTEX-11DXX'
p118
g3
(g4
(I0
tS'b'
tRp119
(I1
(I1
I1
tg7
I00
S'\xb0\xd7\x8d-\xaf8\xe7\xbf'
tbsS'GTEX-11DXZ'
p120
g3
(g4
(I0
tS'b'
tRp121
(I1
(I1
I1
tg7
I00
S'\xfd<\xe5\x01\xc2\xa3\x07@'
tbsS'GTEX-13S7M'
p122
g3
(g4
(I0
tS'b'
tRp123
(I1
(I1
I1
tg7
I00
S"'\xdb\x81O\xf2\xc3\xf5?"
tbsS'GTEX-WOFL'
p124
g3
(g4
(I0
tS'b'
tRp125
(I1
(I1
I1
tg7
I00
S'\xd1\xc3~\x9d\xae\xbe\x07\xc0'
tbsS'GTEX-WOFM'
p126
g3
(g4
(I0
tS'b'
tRp127
(I1
(I1
I1
tg7
I00
S'\xecn`\xe8\xe5\x1b\xdc\xbf'
tbsS'GTEX-XUZC'
p128
g3
(g4
(I0
tS'b'
tRp129
(I1
(I1
I1
tg7
I00
S'z\xb8/|r\x18\xe9\xbf'
tbsS'GTEX-ZDTS'
p130
g3
(g4
(I0
tS'b'
tRp131
(I1
(I1
I1
tg7
I00
S'\x127X4\x90e\xf3?'
tbsS'GTEX-ZDTT'
p132
g3
(g4
(I0
tS'b'
tRp133
(I1
(I1
I1
tg7
I00
S'\x13\xfc\x0e\xa8\xbbd\x92?'
tbsS'GTEX-PWN1'
p134
g3
(g4
(I0
tS'b'
tRp135
(I1
(I1
I1
tg7
I00
S'TcU\x95\x04\xd0\xf7?'
tbsS'GTEX-N7MS'
p136
g3
(g4
(I0
tS'b'
tRp137
(I1
(I1
I1
tg7
I00
S'W\x94\x9d\x9c\x87\x1b\x00@'
tbsS'GTEX-N7MT'
p138
g3
(g4
(I0
tS'b'
tRp139
(I1
(I1
I1
tg7
I00
S'g<&\xa8\xded\x03\xc0'
tbsS'GTEX-W5WG'
p140
g3
(g4
(I0
tS'b'
tRp141
(I1
(I1
I1
tg7
I00
S'\xb7n\xc7\xdf\xc3\x9a\xf1?'
tbsS'GTEX-XYKS'
p142
g3
(g4
(I0
tS'b'
tRp143
(I1
(I1
I1
tg7
I00
S'\xad\x8e\x94\x00\xa0\xa0\x01\xc0'
tbsS'GTEX-NPJ7'
p144
g3
(g4
(I0
tS'b'
tRp145
(I1
(I1
I1
tg7
I00
S'\xe0\xcaC\xc6?\x1b\x0e\xc0'
tbsS'GTEX-13RTK'
p146
g3
(g4
(I0
tS'b'
tRp147
(I1
(I1
I1
tg7
I00
S'\xe8\x16ndA\x18\xc0?'
tbsS'GTEX-13RTJ'
p148
g3
(g4
(I0
tS'b'
tRp149
(I1
(I1
I1
tg7
I00
S'\x13\xe2\xa3*]\xa2\xe3\xbf'
tbsS'GTEX-O5YT'
p150
g3
(g4
(I0
tS'b'
tRp151
(I1
(I1
I1
tg7
I00
S'I>u>\x16^\t\xc0'
tbsS'GTEX-O5YW'
p152
g3
(g4
(I0
tS'b'
tRp153
(I1
(I1
I1
tg7
I00
S'<\xaax \x9eb\xc5?'
tbsS'GTEX-O5YV'
p154
g3
(g4
(I0
tS'b'
tRp155
(I1
(I1
I1
tg7
I00
S'\xe7\xa1\x8c\xaa\xf8\x17\x15\xc0'
tbsS'GTEX-WL46'
p156
g3
(g4
(I0
tS'b'
tRp157
(I1
(I1
I1
tg7
I00
S'S\x1e3\xd2\xe8C\x00@'
tbsS'GTEX-NPJ8'
p158
g3
(g4
(I0
tS'b'
tRp159
(I1
(I1
I1
tg7
I00
S'Ow\xa9\xa3ai"\xc0'
tbsS'GTEX-ZVE2'
p160
g3
(g4
(I0
tS'b'
tRp161
(I1
(I1
I1
tg7
I00
S'\x04O8\x0e\xc1\xd5\x01\xc0'
tbsS'GTEX-11EM3'
p162
g3
(g4
(I0
tS'b'
tRp163
(I1
(I1
I1
tg7
I00
S'M\x96\xb4O\xddx\xf8?'
tbsS'GTEX-Q734'
p164
g3
(g4
(I0
tS'b'
tRp165
(I1
(I1
I1
tg7
I00
S'\xf7\x8dm\x8d3t\x11\xc0'
tbsS'GTEX-11EMC'
p166
g3
(g4
(I0
tS'b'
tRp167
(I1
(I1
I1
tg7
I00
S'\tWL\x95\x8a\x82\xea?'
tbsS'GTEX-13N11'
p168
g3
(g4
(I0
tS'b'
tRp169
(I1
(I1
I1
tg7
I00
S'\xf8\xe7\xc7&`\xfd\xdf?'
tbsS'GTEX-1128S'
p170
g3
(g4
(I0
tS'b'
tRp171
(I1
(I1
I1
tg7
I00
S'\x8dPq\xd5W/\xf9\xbf'
tbsS'GTEX-WHSE'
p172
g3
(g4
(I0
tS'b'
tRp173
(I1
(I1
I1
tg7
I00
S'\x06\x0c\x92\xe8\x9dz\x01\xc0'
tbsS'GTEX-WHSB'
p174
g3
(g4
(I0
tS'b'
tRp175
(I1
(I1
I1
tg7
I00
S'\x98\rbT\xd8\x98\xf6\xbf'
tbsS'GTEX-133LE'
p176
g3
(g4
(I0
tS'b'
tRp177
(I1
(I1
I1
tg7
I00
S'\x040$0\x9c\xaa\xc2\xbf'
tbsS'GTEX-NL4W'
p178
g3
(g4
(I0
tS'b'
tRp179
(I1
(I1
I1
tg7
I00
S'?\x1c\xab\x1c69\x11\xc0'
tbsS'GTEX-SUCS'
p180
g3
(g4
(I0
tS'b'
tRp181
(I1
(I1
I1
tg7
I00
S'\x9a0m\x82\xa3\x07\xfb\xbf'
tbsS'GTEX-13QIC'
p182
g3
(g4
(I0
tS'b'
tRp183
(I1
(I1
I1
tg7
I00
S'\x86\xc2\xb6\xfb\x9c\t\x04@'
tbsS'GTEX-ZYY3'
p184
g3
(g4
(I0
tS'b'
tRp185
(I1
(I1
I1
tg7
I00
S'\xf1\xfe\x0f\xc7\x7f\x1f\xfb\xbf'
tbsS'GTEX-WYBS'
p186
g3
(g4
(I0
tS'b'
tRp187
(I1
(I1
I1
tg7
I00
S'\xc9\x03\xd6?Wm\xce?'
tbsS'GTEX-Y3I4'
p188
g3
(g4
(I0
tS'b'
tRp189
(I1
(I1
I1
tg7
I00
S'\xc8S\x15\xda\xe2\xf2\xf1\xbf'
tbsS'GTEX-13O21'
p190
g3
(g4
(I0
tS'b'
tRp191
(I1
(I1
I1
tg7
I00
S'c^{\xf4\xfc3\xec?'
tbsS'GTEX-PVOW'
p192
g3
(g4
(I0
tS'b'
tRp193
(I1
(I1
I1
tg7
I00
S'g\xd9bM\x19\xaf\xf7?'
tbsS'GTEX-13QBU'
p194
g3
(g4
(I0
tS'b'
tRp195
(I1
(I1
I1
tg7
I00
S'\xd3\xfa\x85j\xd7}\xef?'
tbsS'GTEX-QEL4'
p196
g3
(g4
(I0
tS'b'
tRp197
(I1
(I1
I1
tg7
I00
S'\xccv\xa3\xf6T\xbd\x10\xc0'
tbsS'GTEX-X585'
p198
g3
(g4
(I0
tS'b'
tRp199
(I1
(I1
I1
tg7
I00
S'^\xbc!\xdb\x01\xa1\x08\xc0'
tbsS'GTEX-11VI4'
p200
g3
(g4
(I0
tS'b'
tRp201
(I1
(I1
I1
tg7
I00
S'\x01O\xe4c\x9a\xd9\xfa?'
tbsS'GTEX-NL3G'
p202
g3
(g4
(I0
tS'b'
tRp203
(I1
(I1
I1
tg7
I00
S'D\xacs\x05{\xc2\xf5?'
tbsS'GTEX-NL3H'
p204
g3
(g4
(I0
tS'b'
tRp205
(I1
(I1
I1
tg7
I00
S'\xc7\xba\xb3\x13\x96m\x14\xc0'
tbsS'GTEX-139TT'
p206
g3
(g4
(I0
tS'b'
tRp207
(I1
(I1
I1
tg7
I00
S'i\\N\x11\x88\t\x0e@'
tbsS'GTEX-XUYS'
p208
g3
(g4
(I0
tS'b'
tRp209
(I1
(I1
I1
tg7
I00
S'\xa2\xed\x191%\xed\x11@'
tbsS'GTEX-P4QT'
p210
g3
(g4
(I0
tS'b'
tRp211
(I1
(I1
I1
tg7
I00
S'\\JU`\xa7R\x00\xc0'
tbsS'GTEX-ZVZP'
p212
g3
(g4
(I0
tS'b'
tRp213
(I1
(I1
I1
tg7
I00
S'\xb7\xe1\x82*"N\xd4?'
tbsS'GTEX-ZVZQ'
p214
g3
(g4
(I0
tS'b'
tRp215
(I1
(I1
I1
tg7
I00
S'~\x02\x94\xa9i\x06\x0e@'
tbsS'GTEX-P4QS'
p216
g3
(g4
(I0
tS'b'
tRp217
(I1
(I1
I1
tg7
I00
S'\tr}\xb9\xb3\x90\x08\xc0'
tbsS'GTEX-P4QR'
p218
g3
(g4
(I0
tS'b'
tRp219
(I1
(I1
I1
tg7
I00
S'j\x03W\xadP\xc8\x1d\xc0'
tbsS'GTEX-13SLW'
p220
g3
(g4
(I0
tS'b'
tRp221
(I1
(I1
I1
tg7
I00
S'\r\xb0\xdafC\x10\xd4\xbf'
tbsS'GTEX-13SLX'
p222
g3
(g4
(I0
tS'b'
tRp223
(I1
(I1
I1
tg7
I00
S"g'U\xd4\xb0\xad\x03@"
tbsS'GTEX-13FXS'
p224
g3
(g4
(I0
tS'b'
tRp225
(I1
(I1
I1
tg7
I00
S'W\x97\xbcQA\x1c\t@'
tbsS'GTEX-X3Y1'
p226
g3
(g4
(I0
tS'b'
tRp227
(I1
(I1
I1
tg7
I00
S'\xe0)\x89\x8f"\xdd\xe9\xbf'
tbsS'GTEX-SE5C'
p228
g3
(g4
(I0
tS'b'
tRp229
(I1
(I1
I1
tg7
I00
S'\xcaz\xab\xb9\xc2\xc8\xe0\xbf'
tbsS'GTEX-OHPK'
p230
g3
(g4
(I0
tS'b'
tRp231
(I1
(I1
I1
tg7
I00
S'\xa0\xc9\x17\x9d^\xca\xe2?'
tbsS'GTEX-Y3IK'
p232
g3
(g4
(I0
tS'b'
tRp233
(I1
(I1
I1
tg7
I00
S'\xe6\xabLHp\x81\xf9?'
tbsS'GTEX-ZF2S'
p234
g3
(g4
(I0
tS'b'
tRp235
(I1
(I1
I1
tg7
I00
S'Z\xd27\xf83\xa2\xf0?'
tbsS'GTEX-111YS'
p236
g3
(g4
(I0
tS'b'
tRp237
(I1
(I1
I1
tg7
I00
S'\xbe\xd8W3K\xaf\xe1?'
tbsS'GTEX-139UW'
p238
g3
(g4
(I0
tS'b'
tRp239
(I1
(I1
I1
tg7
I00
S"'p\x045\xc2#\x03@"
tbsS'GTEX-U3ZG'
p240
g3
(g4
(I0
tS'b'
tRp241
(I1
(I1
I1
tg7
I00
S'\xdbM\xa9K;e\xfc?'
tbsS'GTEX-U3ZM'
p242
g3
(g4
(I0
tS'b'
tRp243
(I1
(I1
I1
tg7
I00
S'\xb0\xdeuq\xe1b\xd2\xbf'
tbsS'GTEX-U3ZN'
p244
g3
(g4
(I0
tS'b'
tRp245
(I1
(I1
I1
tg7
I00
S'~\xbc\x81\xa3\xefc\xd4?'
tbsS'GTEX-ZV6S'
p246
g3
(g4
(I0
tS'b'
tRp247
(I1
(I1
I1
tg7
I00
S'B\xc6\x0c\xff\xcf\x8b\xd3\xbf'
tbsS'GTEX-U3ZH'
p248
g3
(g4
(I0
tS'b'
tRp249
(I1
(I1
I1
tg7
I00
S'AB\xf6\x9e\xd3\xe6\xec?'
tbsS'GTEX-RTLS'
p250
g3
(g4
(I0
tS'b'
tRp251
(I1
(I1
I1
tg7
I00
S'\x11/\xd9\x1b\xb2o\xf2?'
tbsS'GTEX-PWCY'
p252
g3
(g4
(I0
tS'b'
tRp253
(I1
(I1
I1
tg7
I00
S'y=\xcb\xc5A\x82\xb7\xbf'
tbsS'GTEX-P44H'
p254
g3
(g4
(I0
tS'b'
tRp255
(I1
(I1
I1
tg7
I00
S'@\xa6\xdfx\xa7\x9b\xfa?'
tbsS'GTEX-11WQK'
p256
g3
(g4
(I0
tS'b'
tRp257
(I1
(I1
I1
tg7
I00
S'\x8c\x05\xfd\x14\xdf\xcd\x14\xc0'
tbsS'GTEX-12696'
p258
g3
(g4
(I0
tS'b'
tRp259
(I1
(I1
I1
tg7
I00
S'l\x1a\r\xfc\xae\xbf\xff?'
tbsS'GTEX-XUW1'
p260
g3
(g4
(I0
tS'b'
tRp261
(I1
(I1
I1
tg7
I00
S'\xdc)\xfa\xf9\t\xc8\xf7\xbf'
tbsS'GTEX-13JVG'
p262
g3
(g4
(I0
tS'b'
tRp263
(I1
(I1
I1
tg7
I00
S'\x8dW\x14\xf2\t\xb1\xd4\xbf'
tbsS'GTEX-XBEW'
p264
g3
(g4
(I0
tS'b'
tRp265
(I1
(I1
I1
tg7
I00
S'kd\xa2\x87Eg\xc2\xbf'
tbsS'GTEX-WK11'
p266
g3
(g4
(I0
tS'b'
tRp267
(I1
(I1
I1
tg7
I00
S'\x97,yXc\r\x0c@'
tbsS'GTEX-XBEC'
p268
g3
(g4
(I0
tS'b'
tRp269
(I1
(I1
I1
tg7
I00
S'b\xd0O\xdb\xc1\x80\xf2?'
tbsS'GTEX-XBED'
p270
g3
(g4
(I0
tS'b'
tRp271
(I1
(I1
I1
tg7
I00
S'\xf0\x13\x8fe\xe4\xf7\xe9\xbf'
tbsS'GTEX-ZDYS'
p272
g3
(g4
(I0
tS'b'
tRp273
(I1
(I1
I1
tg7
I00
S"\x13`U'\xf5\xc5\x01@"
tbsS'GTEX-X8HC'
p274
g3
(g4
(I0
tS'b'
tRp275
(I1
(I1
I1
tg7
I00
S'+\xd3\xf5\xc8\xc2\xd5\xf8\xbf'
tbsS'GTEX-ZF28'
p276
g3
(g4
(I0
tS'b'
tRp277
(I1
(I1
I1
tg7
I00
S'\x800\x14\x81\x9a\xde\x19\xc0'
tbsS'GTEX-ZF29'
p278
g3
(g4
(I0
tS'b'
tRp279
(I1
(I1
I1
tg7
I00
S'\xe0)q\xd0\xed\xe6\xf8?'
tbsS'GTEX-ZV68'
p280
g3
(g4
(I0
tS'b'
tRp281
(I1
(I1
I1
tg7
I00
S'M]\xfa\x98\xdf\x83\x00@'
tbsS'GTEX-Y8LW'
p282
g3
(g4
(I0
tS'b'
tRp283
(I1
(I1
I1
tg7
I00
S'sv\xbb\xc9m\xb8\xcb\xbf'
tbsS'GTEX-13CIG'
p284
g3
(g4
(I0
tS'b'
tRp285
(I1
(I1
I1
tg7
I00
S'\xb5\xeb=k\xe3\x13\x14\xc0'
tbsS'GTEX-13O61'
p286
g3
(g4
(I0
tS'b'
tRp287
(I1
(I1
I1
tg7
I00
S"Il\xf1a'\x19\xe3\xbf"
tbsS'GTEX-12WSC'
p288
g3
(g4
(I0
tS'b'
tRp289
(I1
(I1
I1
tg7
I00
S'^\xa3Y\xd1v\x05\n@'
tbsS'GTEX-12WSA'
p290
g3
(g4
(I0
tS'b'
tRp291
(I1
(I1
I1
tg7
I00
S'\xf0\xed\xeb\x9f9\x84\xf4\xbf'
tbsS'GTEX-12WSF'
p292
g3
(g4
(I0
tS'b'
tRp293
(I1
(I1
I1
tg7
I00
S'iL\xd1\x91!\x8f\xf4\xbf'
tbsS'GTEX-12WSG'
p294
g3
(g4
(I0
tS'b'
tRp295
(I1
(I1
I1
tg7
I00
S'\x82t\xcdd\xb5\x8c\xe9?'
tbsS'GTEX-12WSD'
p296
g3
(g4
(I0
tS'b'
tRp297
(I1
(I1
I1
tg7
I00
S'T\xdf\xc1\x0b\x94\x93\x0e@'
tbsS'GTEX-12WSE'
p298
g3
(g4
(I0
tS'b'
tRp299
(I1
(I1
I1
tg7
I00
S'v\x93v\x12\xa1 \x11@'
tbsS'GTEX-12WSJ'
p300
g3
(g4
(I0
tS'b'
tRp301
(I1
(I1
I1
tg7
I00
S'/\x81\x87\x8c\xde\t\xfd\xbf'
tbsS'GTEX-12WSK'
p302
g3
(g4
(I0
tS'b'
tRp303
(I1
(I1
I1
tg7
I00
S'2%\x0fv\x19\xa9\xec?'
tbsS'GTEX-12WSH'
p304
g3
(g4
(I0
tS'b'
tRp305
(I1
(I1
I1
tg7
I00
S'c\xc4\\\x18\xb9\xbd\x01\xc0'
tbsS'GTEX-12WSI'
p306
g3
(g4
(I0
tS'b'
tRp307
(I1
(I1
I1
tg7
I00
S'^\xc8\x91\x80E\xdc\x0b@'
tbsS'GTEX-12WSN'
p308
g3
(g4
(I0
tS'b'
tRp309
(I1
(I1
I1
tg7
I00
S'\x16#Z&\xe7x\xf6\xbf'
tbsS'GTEX-12WSL'
p310
g3
(g4
(I0
tS'b'
tRp311
(I1
(I1
I1
tg7
I00
S'\xd0f/nK\xb2\x08\xc0'
tbsS'GTEX-12WSM'
p312
g3
(g4
(I0
tS'b'
tRp313
(I1
(I1
I1
tg7
I00
S'T5\x9f\xb6C\xd7\x01@'
tbsS'GTEX-13N2G'
p314
g3
(g4
(I0
tS'b'
tRp315
(I1
(I1
I1
tg7
I00
S'\x8bR&>i\xdf\x03\xc0'
tbsS'GTEX-X15G'
p316
g3
(g4
(I0
tS'b'
tRp317
(I1
(I1
I1
tg7
I00
S'\xdeM\x1d;@\x88\xf9\xbf'
tbsS'GTEX-YF7O'
p318
g3
(g4
(I0
tS'b'
tRp319
(I1
(I1
I1
tg7
I00
S'Pi[F\xbed\xd1?'
tbsS'GTEX-S4P3'
p320
g3
(g4
(I0
tS'b'
tRp321
(I1
(I1
I1
tg7
I00
S'6\xf7\xe0\xe8\xd8\x92\xf0?'
tbsS'GTEX-X4LF'
p322
g3
(g4
(I0
tS'b'
tRp323
(I1
(I1
I1
tg7
I00
S'\xe1\xb2\x1b\x884A\xe1\xbf'
tbsS'GTEX-ZE7O'
p324
g3
(g4
(I0
tS'b'
tRp325
(I1
(I1
I1
tg7
I00
S'ih\xfd\x18e\xd3\xfb?'
tbsS'GTEX-ZQUD'
p326
g3
(g4
(I0
tS'b'
tRp327
(I1
(I1
I1
tg7
I00
S'"T\x05$\xf3\xb9\x04@'
tbsS'GTEX-ZQG8'
p328
g3
(g4
(I0
tS'b'
tRp329
(I1
(I1
I1
tg7
I00
S'\x85\xa0\xb0\n\x86\xa5\xe4?'
tbsS'GTEX-ZVZO'
p330
g3
(g4
(I0
tS'b'
tRp331
(I1
(I1
I1
tg7
I00
S'\x94"u7\x0f\x0e\xe3?'
tbsS'GTEX-WFG7'
p332
g3
(g4
(I0
tS'b'
tRp333
(I1
(I1
I1
tg7
I00
S'^\x05\xda-\xa0?\xe4\xbf'
tbsS'GTEX-WFG8'
p334
g3
(g4
(I0
tS'b'
tRp335
(I1
(I1
I1
tg7
I00
S'\x01\xee\x8e[\x8f\xe2\xce\xbf'
tbsS'GTEX-RU72'
p336
g3
(g4
(I0
tS'b'
tRp337
(I1
(I1
I1
tg7
I00
S'$\r\x99\xf0L\x1a\xf0\xbf'
tbsS'GTEX-13W46'
p338
g3
(g4
(I0
tS'b'
tRp339
(I1
(I1
I1
tg7
I00
S'\xc3\xd2[k\x9b(\n\xc0'
tbsS'GTEX-UPJH'
p340
g3
(g4
(I0
tS'b'
tRp341
(I1
(I1
I1
tg7
I00
S'\xd1\x15:\xcd5\x81\x05@'
tbsS'GTEX-PW2O'
p342
g3
(g4
(I0
tS'b'
tRp343
(I1
(I1
I1
tg7
I00
S'\xad*\x03\xb4\x9c\x03\xed\xbf'
tbsS'GTEX-T8EM'
p344
g3
(g4
(I0
tS'b'
tRp345
(I1
(I1
I1
tg7
I00
S'\xc6J\xd1m\xd0\xaa\xc0?'
tbsS'GTEX-XQ3S'
p346
g3
(g4
(I0
tS'b'
tRp347
(I1
(I1
I1
tg7
I00
S'\xbd99\xc2L,\x0b@'
tbsS'GTEX-ZPCL'
p348
g3
(g4
(I0
tS'b'
tRp349
(I1
(I1
I1
tg7
I00
S'\xf3J\xe5\x94\xa6\x0f\xda\xbf'
tbsS'GTEX-11ONC'
p350
g3
(g4
(I0
tS'b'
tRp351
(I1
(I1
I1
tg7
I00
S'\xd4\xb4\xc5\xef"\xc9\x01@'
tbsS'GTEX-QV44'
p352
g3
(g4
(I0
tS'b'
tRp353
(I1
(I1
I1
tg7
I00
S'\x86\x98\xcd\xf1\x15\xf7\xff\xbf'
tbsS'GTEX-WHPG'
p354
g3
(g4
(I0
tS'b'
tRp355
(I1
(I1
I1
tg7
I00
S'\xf1:\xf3\xbd\xe0R\xe6?'
tbsS'GTEX-T6MO'
p356
g3
(g4
(I0
tS'b'
tRp357
(I1
(I1
I1
tg7
I00
S't\x85\xaf\xc5\xc5|\xe9\xbf'
tbsS'GTEX-T6MN'
p358
g3
(g4
(I0
tS'b'
tRp359
(I1
(I1
I1
tg7
I00
S'\xba\x13k\xd4\x07_\x10@'
tbsS'GTEX-XXEK'
p360
g3
(g4
(I0
tS'b'
tRp361
(I1
(I1
I1
tg7
I00
S'\xcdH\x8b-\xd0B\x08\xc0'
tbsS'GTEX-ZTTD'
p362
g3
(g4
(I0
tS'b'
tRp363
(I1
(I1
I1
tg7
I00
S'ZJ\xc9\xb6\xe6\xc5\xe7\xbf'
tbsS'GTEX-ZUA1'
p364
g3
(g4
(I0
tS'b'
tRp365
(I1
(I1
I1
tg7
I00
S'\xbc\xf5\xd1\xab\x05\x1c\x10@'
tbsS'GTEX-OXRP'
p366
g3
(g4
(I0
tS'b'
tRp367
(I1
(I1
I1
tg7
I00
S'X\xecL\xd3\x1eu\xef\xbf'
tbsS'GTEX-13OVL'
p368
g3
(g4
(I0
tS'b'
tRp369
(I1
(I1
I1
tg7
I00
S'y\xb3\xeb,Z\xdf\x0f@'
tbsS'GTEX-13OVJ'
p370
g3
(g4
(I0
tS'b'
tRp371
(I1
(I1
I1
tg7
I00
S'\xb9i\xb8\xca<\x9e\x02\xc0'
tbsS'GTEX-13OVH'
p372
g3
(g4
(I0
tS'b'
tRp373
(I1
(I1
I1
tg7
I00
S'\xfc\xefXF\x9c\xd3\xd4\xbf'
tbsS'GTEX-13OVI'
p374
g3
(g4
(I0
tS'b'
tRp375
(I1
(I1
I1
tg7
I00
S'\xde\xe2\xdc\xb5\xb0\xa6\xf4?'
tbsS'GTEX-13OVG'
p376
g3
(g4
(I0
tS'b'
tRp377
(I1
(I1
I1
tg7
I00
S'\x8f\x97\\\xfb\xa2\x9f\xf2?'
tbsS'GTEX-113IC'
p378
g3
(g4
(I0
tS'b'
tRp379
(I1
(I1
I1
tg7
I00
S'\xb3\x85\xa1\xa2\x83\xa1\x00@'
tbsS'GTEX-XLM4'
p380
g3
(g4
(I0
tS'b'
tRp381
(I1
(I1
I1
tg7
I00
S'/\xd4t\x87\x82\xf1\xdd\xbf'
tbsS'GTEX-13JUV'
p382
g3
(g4
(I0
tS'b'
tRp383
(I1
(I1
I1
tg7
I00
S'\xa13t\x0b\xd4P\xf4\xbf'
tbsS'GTEX-PLZ5'
p384
g3
(g4
(I0
tS'b'
tRp385
(I1
(I1
I1
tg7
I00
S'\xc3$#\xc3\x17\xf4\t\xc0'
tbsS'GTEX-PLZ6'
p386
g3
(g4
(I0
tS'b'
tRp387
(I1
(I1
I1
tg7
I00
S'\x7fI\xdb(\x19\xd5\xb6\xbf'
tbsS'GTEX-ZZPT'
p388
g3
(g4
(I0
tS'b'
tRp389
(I1
(I1
I1
tg7
I00
S'\xc4\xb5`$\xb0\xdf\x16\xc0'
tbsS'GTEX-ZZPU'
p390
g3
(g4
(I0
tS'b'
tRp391
(I1
(I1
I1
tg7
I00
S'\xf9Ur\xd2~t\xd8?'
tbsS'GTEX-ZXES'
p392
g3
(g4
(I0
tS'b'
tRp393
(I1
(I1
I1
tg7
I00
S'\x9f]\xc1\xcaW\x06\x04@'
tbsS'GTEX-TSE9'
p394
g3
(g4
(I0
tS'b'
tRp395
(I1
(I1
I1
tg7
I00
S' jl\x1e\xa6\xb8\xee\xbf'
tbsS'GTEX-ZC5H'
p396
g3
(g4
(I0
tS'b'
tRp397
(I1
(I1
I1
tg7
I00
S'\x8b\x1df+l0\x04\xc0'
tbsS'GTEX-QDVN'
p398
g3
(g4
(I0
tS'b'
tRp399
(I1
(I1
I1
tg7
I00
S'\x84D\xd3&.@\x0b\xc0'
tbsS'GTEX-QDVJ'
p400
g3
(g4
(I0
tS'b'
tRp401
(I1
(I1
I1
tg7
I00
S'70\x877\x98\xa8\x03\xc0'
tbsS'GTEX-P4PP'
p402
g3
(g4
(I0
tS'b'
tRp403
(I1
(I1
I1
tg7
I00
S'\xfe \xf9\x1er\xd2\xe7?'
tbsS'GTEX-P4PQ'
p404
g3
(g4
(I0
tS'b'
tRp405
(I1
(I1
I1
tg7
I00
S'\xcbB\t\xa8\x7fj\xfc\xbf'
tbsS'GTEX-S4UY'
p406
g3
(g4
(I0
tS'b'
tRp407
(I1
(I1
I1
tg7
I00
S'\xc2,2\x82$\xc9\xc2?'
tbsS'GTEX-S341'
p408
g3
(g4
(I0
tS'b'
tRp409
(I1
(I1
I1
tg7
I00
S'\x87\xc1\xe8\x05\xe2\x13\xd9?'
tbsS'GTEX-11UD1'
p410
g3
(g4
(I0
tS'b'
tRp411
(I1
(I1
I1
tg7
I00
S'\x0b\x16t\x94\xa2\x8d\xfd?'
tbsS'GTEX-13FHO'
p412
g3
(g4
(I0
tS'b'
tRp413
(I1
(I1
I1
tg7
I00
S'Q:)T\x12B\xbb?'
tbsS'GTEX-13O3O'
p414
g3
(g4
(I0
tS'b'
tRp415
(I1
(I1
I1
tg7
I00
S'\x96.BG\x04%\x05@'
tbsS'GTEX-13O3Q'
p416
g3
(g4
(I0
tS'b'
tRp417
(I1
(I1
I1
tg7
I00
S'\xb1\x9cL\x87+.\xfa?'
tbsS'GTEX-POYW'
p418
g3
(g4
(I0
tS'b'
tRp419
(I1
(I1
I1
tg7
I00
S'\xa5\n\xfd\xa0\xdc\x9a\x13\xc0'
tbsS'GTEX-ZYWO'
p420
g3
(g4
(I0
tS'b'
tRp421
(I1
(I1
I1
tg7
I00
S'v|\xa0Y\x1f\x19\x07\xc0'
tbsS'GTEX-X638'
p422
g3
(g4
(I0
tS'b'
tRp423
(I1
(I1
I1
tg7
I00
S'z-5\xbd\x02L\xd8\xbf'
tbsS'GTEX-13111'
p424
g3
(g4
(I0
tS'b'
tRp425
(I1
(I1
I1
tg7
I00
S'\x0b\x87\xba\x0c\x18l\r@'
tbsS'GTEX-13113'
p426
g3
(g4
(I0
tS'b'
tRp427
(I1
(I1
I1
tg7
I00
S'\xf4\xfc\xf5CYR\xcc\xbf'
tbsS'GTEX-13112'
p428
g3
(g4
(I0
tS'b'
tRp429
(I1
(I1
I1
tg7
I00
S'%!\xa9\x90O3\n@'
tbsS'GTEX-POMQ'
p430
g3
(g4
(I0
tS'b'
tRp431
(I1
(I1
I1
tg7
I00
S'L.fi(\xe2\xe2\xbf'
tbsS'GTEX-PWOO'
p432
g3
(g4
(I0
tS'b'
tRp433
(I1
(I1
I1
tg7
I00
S'\x04\xfd\t\x1a\x039\x10\xc0'
tbsS'GTEX-ZT9W'
p434
g3
(g4
(I0
tS'b'
tRp435
(I1
(I1
I1
tg7
I00
S'\xe4\x1c\x9a/\xdf\x82\xf3?'
tbsS'GTEX-ZT9X'
p436
g3
(g4
(I0
tS'b'
tRp437
(I1
(I1
I1
tg7
I00
S'\x0b\x83\x062\xfb{\xde?'
tbsS'GTEX-RNOR'
p438
g3
(g4
(I0
tS'b'
tRp439
(I1
(I1
I1
tg7
I00
S':\x00\x9eG\x05W\xee?'
tbsS'GTEX-REY6'
p440
g3
(g4
(I0
tS'b'
tRp441
(I1
(I1
I1
tg7
I00
S'd\xfc\x85\x14\xe0\xf1\xc9?'
tbsS'GTEX-111CU'
p442
g3
(g4
(I0
tS'b'
tRp443
(I1
(I1
I1
tg7
I00
S'WT\x87,\xcb\xf0\xee\xbf'
tbsS'GTEX-XGQ4'
p444
g3
(g4
(I0
tS'b'
tRp445
(I1
(I1
I1
tg7
I00
S'\xa2A\x1f\x9a\xc8\x11\xf1\xbf'
tbsS'GTEX-WFJO'
p446
g3
(g4
(I0
tS'b'
tRp447
(I1
(I1
I1
tg7
I00
S'\xb2\xc1\x99\xe6e\xb8\xc0\xbf'
tbsS'GTEX-VUSH'
p448
g3
(g4
(I0
tS'b'
tRp449
(I1
(I1
I1
tg7
I00
S'$\xa7F\xe5\x9c\xfd\x0e@'
tbsS'GTEX-XPT6'
p450
g3
(g4
(I0
tS'b'
tRp451
(I1
(I1
I1
tg7
I00
S'\xa0\x9c\x86\xd75\xe2\xe3?'
tbsS'GTEX-VUSG'
p452
g3
(g4
(I0
tS'b'
tRp453
(I1
(I1
I1
tg7
I00
S'<rV#|_\x02\xc0'
tbsS'GTEX-TKQ2'
p454
g3
(g4
(I0
tS'b'
tRp455
(I1
(I1
I1
tg7
I00
S'n\x1dl\\\xc5\xff\xf2?'
tbsS'GTEX-11NV4'
p456
g3
(g4
(I0
tS'b'
tRp457
(I1
(I1
I1
tg7
I00
S'(0t\xe2\xfbd\x11@'
tbsS'GTEX-Y8DK'
p458
g3
(g4
(I0
tS'b'
tRp459
(I1
(I1
I1
tg7
I00
S'\x19W=\xbcZ\x82\x08@'
tbsS'GTEX-ZLFU'
p460
g3
(g4
(I0
tS'b'
tRp461
(I1
(I1
I1
tg7
I00
S'\xc7}*\xd9\xb66\xe5\xbf'
tbsS'GTEX-139YR'
p462
g3
(g4
(I0
tS'b'
tRp463
(I1
(I1
I1
tg7
I00
S'\x19"\xd6k:\x1a\x0c\xc0'
tbsS'GTEX-YECK'
p464
g3
(g4
(I0
tS'b'
tRp465
(I1
(I1
I1
tg7
I00
S'\x1c;pHy{\x0e@'
tbsS'GTEX-13G51'
p466
g3
(g4
(I0
tS'b'
tRp467
(I1
(I1
I1
tg7
I00
S'`.bM\xdb\x13\r@'
tbsS'GTEX-ZLV1'
p468
g3
(g4
(I0
tS'b'
tRp469
(I1
(I1
I1
tg7
I00
S't\xff@\x17\xff\xd0\xfd\xbf'
tbsS'GTEX-13QJ3'
p470
g3
(g4
(I0
tS'b'
tRp471
(I1
(I1
I1
tg7
I00
S'\x94t\xda\xc9\xf7\x1d\xf9?'
tbsS'GTEX-T2IS'
p472
g3
(g4
(I0
tS'b'
tRp473
(I1
(I1
I1
tg7
I00
S'\xbc\xbb/\xef\x8f8\xfd?'
tbsS'GTEX-ZDXO'
p474
g3
(g4
(I0
tS'b'
tRp475
(I1
(I1
I1
tg7
I00
S'\x85\x18q\xe1([\x05@'
tbsS'GTEX-WY7C'
p476
g3
(g4
(I0
tS'b'
tRp477
(I1
(I1
I1
tg7
I00
S'\x00\x11D|\x90k\x8b?'
tbsS'GTEX-PLZ4'
p478
g3
(g4
(I0
tS'b'
tRp479
(I1
(I1
I1
tg7
I00
S'\x10\xe6\xb1\x00M\xbb\x12\xc0'
tbsS'GTEX-13QJC'
p480
g3
(g4
(I0
tS'b'
tRp481
(I1
(I1
I1
tg7
I00
S'\x15\x83-a\x9d\xa9\x02\xc0'
tbsS'GTEX-11WQC'
p482
g3
(g4
(I0
tS'b'
tRp483
(I1
(I1
I1
tg7
I00
S'\xa1\x06\x8c\xda\x06%\xfe?'
tbsS'GTEX-YEC4'
p484
g3
(g4
(I0
tS'b'
tRp485
(I1
(I1
I1
tg7
I00
S'\xe8\x9d\xe2.7\xc7\xea?'
tbsS'GTEX-ZTPG'
p486
g3
(g4
(I0
tS'b'
tRp487
(I1
(I1
I1
tg7
I00
S'\xb5\x92\x05M\xd3\xc2\n\xc0'
tbsS'GTEX-YEC3'
p488
g3
(g4
(I0
tS'b'
tRp489
(I1
(I1
I1
tg7
I00
S'DS\x9e\xf6\xfb\x0f\xd8?'
tbsS'GTEX-T5JW'
p490
g3
(g4
(I0
tS'b'
tRp491
(I1
(I1
I1
tg7
I00
S"(!)'\x08\x8d\xfd?"
tbsS'GTEX-R53T'
p492
g3
(g4
(I0
tS'b'
tRp493
(I1
(I1
I1
tg7
I00
S'i(\xfc?\x9e\xec\x06\xc0'
tbsS'GTEX-WQUQ'
p494
g3
(g4
(I0
tS'b'
tRp495
(I1
(I1
I1
tg7
I00
S'\xe4\xb7h\xa8\xc7\x88\x00\xc0'
tbsS'GTEX-111VG'
p496
g3
(g4
(I0
tS'b'
tRp497
(I1
(I1
I1
tg7
I00
S'\xa6~(M\xb2\x0b\t@'
tbsS'GTEX-NFK9'
p498
g3
(g4
(I0
tS'b'
tRp499
(I1
(I1
I1
tg7
I00
S'\xe7*\xf4`\xad\xdc\xd3?'
tbsS'GTEX-T5JC'
p500
g3
(g4
(I0
tS'b'
tRp501
(I1
(I1
I1
tg7
I00
S'\x1c\xb4\x92\xde\x87\x12\xe2\xbf'
tbsS'GTEX-RVPV'
p502
g3
(g4
(I0
tS'b'
tRp503
(I1
(I1
I1
tg7
I00
S'\xea\x0b\x85y\xe1\x0b\xf9?'
tbsS'GTEX-RVPU'
p504
g3
(g4
(I0
tS'b'
tRp505
(I1
(I1
I1
tg7
I00
S'G\xb5\xee\xd4A\xf9\xe9?'
tbsS'GTEX-UTHO'
p506
g3
(g4
(I0
tS'b'
tRp507
(I1
(I1
I1
tg7
I00
S';\xbc\x00\x84\x97K\x0e\xc0'
tbsS'GTEX-11LCK'
p508
g3
(g4
(I0
tS'b'
tRp509
(I1
(I1
I1
tg7
I00
S'\xdf\x92p\x85\x90O\xcb?'
tbsS'GTEX-X88G'
p510
g3
(g4
(I0
tS'b'
tRp511
(I1
(I1
I1
tg7
I00
S'\xa0\xc2\x8aR\xbfV\x00\xc0'
tbsS'GTEX-QLQW'
p512
g3
(g4
(I0
tS'b'
tRp513
(I1
(I1
I1
tg7
I00
S':\xf5\xce:P\x93\xe0?'
tbsS'GTEX-13PL7'
p514
g3
(g4
(I0
tS'b'
tRp515
(I1
(I1
I1
tg7
I00
S'\x1f\x12\xf4\xb5\x9a\xf8\xbb\xbf'
tbsS'GTEX-13PL6'
p516
g3
(g4
(I0
tS'b'
tRp517
(I1
(I1
I1
tg7
I00
S'\xf0\xccw\x02\x80Z\xe2\xbf'
tbsS'GTEX-11ZUS'
p518
g3
(g4
(I0
tS'b'
tRp519
(I1
(I1
I1
tg7
I00
S'\xd3\xaf\xf5\xea~9\n@'
tbsS'GTEX-WFON'
p520
g3
(g4
(I0
tS'b'
tRp521
(I1
(I1
I1
tg7
I00
S'N\x1c^\xbe\xdf\t\xcf?'
tbsS'GTEX-QVUS'
p522
g3
(g4
(I0
tS'b'
tRp523
(I1
(I1
I1
tg7
I00
S'a\xa2v\xfc\xb2T\xfa\xbf'
tbsS'GTEX-U8T8'
p524
g3
(g4
(I0
tS'b'
tRp525
(I1
(I1
I1
tg7
I00
S'\x0bS\xf18MM\xe1\xbf'
tbsS'GTEX-YFCO'
p526
g3
(g4
(I0
tS'b'
tRp527
(I1
(I1
I1
tg7
I00
S' 3i\xccu@\xe0\xbf'
tbsS'GTEX-P78B'
p528
g3
(g4
(I0
tS'b'
tRp529
(I1
(I1
I1
tg7
I00
S'\x02\x12^\xc9O\x90\xe8\xbf'
tbsS'GTEX-YFC4'
p530
g3
(g4
(I0
tS'b'
tRp531
(I1
(I1
I1
tg7
I00
S'\x90\xd6b#\xbd,\xfd?'
tbsS'GTEX-11ZTT'
p532
g3
(g4
(I0
tS'b'
tRp533
(I1
(I1
I1
tg7
I00
S'\x90\xa8H\xdb\xe8\x9a\xf4?'
tbsS'GTEX-11ZTS'
p534
g3
(g4
(I0
tS'b'
tRp535
(I1
(I1
I1
tg7
I00
S'\xc0\xad\xfe\xd4\x1a_\x06@'
tbsS'GTEX-13PLJ'
p536
g3
(g4
(I0
tS'b'
tRp537
(I1
(I1
I1
tg7
I00
S'\xb0\xed6#e\n\xfc?'
tbsS'GTEX-OOBJ'
p538
g3
(g4
(I0
tS'b'
tRp539
(I1
(I1
I1
tg7
I00
S'I\x15%1\xa8\xfc\xea\xbf'
tbsS'GTEX-XOT4'
p540
g3
(g4
(I0
tS'b'
tRp541
(I1
(I1
I1
tg7
I00
S'\xe0\xe8!\xdcx\xa4\x01@'
tbsS'GTEX-S4Q7'
p542
g3
(g4
(I0
tS'b'
tRp543
(I1
(I1
I1
tg7
I00
S'E\x7fj\xd5\xee5\x00\xc0'
tbsS'GTEX-13FLW'
p544
g3
(g4
(I0
tS'b'
tRp545
(I1
(I1
I1
tg7
I00
S'\xa4\x88\x8d\xe19E\x0b@'
tbsS'GTEX-13FLV'
p546
g3
(g4
(I0
tS'b'
tRp547
(I1
(I1
I1
tg7
I00
S'!C{\x89\x0c\xd9\x0b@'
tbsS'GTEX-QLQ7'
p548
g3
(g4
(I0
tS'b'
tRp549
(I1
(I1
I1
tg7
I00
S'\x90\xacv\xe35^\xb1?'
tbsS'GTEX-RN64'
p550
g3
(g4
(I0
tS'b'
tRp551
(I1
(I1
I1
tg7
I00
S'Q\xe6\xcc:\xbd\x83\x03@'
tbsS'GTEX-ZYT6'
p552
g3
(g4
(I0
tS'b'
tRp553
(I1
(I1
I1
tg7
I00
S'c\xfe\xe1\xc0\xcd\xf5\x0b@'
tbsS'GTEX-11XUK'
p554
g3
(g4
(I0
tS'b'
tRp555
(I1
(I1
I1
tg7
I00
S'e\xa6\xa58\x07\x86\xdf\xbf'
tbsS'GTEX-ZTSS'
p556
g3
(g4
(I0
tS'b'
tRp557
(I1
(I1
I1
tg7
I00
S'\x87\x9f*\xde\x7f\x1b\xd1?'
tbsS'GTEX-1117F'
p558
g3
(g4
(I0
tS'b'
tRp559
(I1
(I1
I1
tg7
I00
S'\xea\xd1$\x04\xd0\x12\xfe\xbf'
tbsS'GTEX-113JC'
p560
g3
(g4
(I0
tS'b'
tRp561
(I1
(I1
I1
tg7
I00
S'7-\xb0\x95r\xc1\x04@'
tbsS'GTEX-Z9EW'
p562
g3
(g4
(I0
tS'b'
tRp563
(I1
(I1
I1
tg7
I00
S';\xa4E\x820\xdc\xe9\xbf'
tbsS'GTEX-ZPU1'
p564
g3
(g4
(I0
tS'b'
tRp565
(I1
(I1
I1
tg7
I00
S'N$\xb9\x95\x1eQ\xf9?'
tbsS'GTEX-XUJ4'
p566
g3
(g4
(I0
tS'b'
tRp567
(I1
(I1
I1
tg7
I00
S'\xf7\xa8\xe3\xf6.\xcb\xf1\xbf'
tbsS'GTEX-11DZ1'
p568
g3
(g4
(I0
tS'b'
tRp569
(I1
(I1
I1
tg7
I00
S'\xb3\x96b\xda\xa1 \x12\xc0'
tbsS'GTEX-R3RS'
p570
g3
(g4
(I0
tS'b'
tRp571
(I1
(I1
I1
tg7
I00
S'WZ\xe3\x80\xbe\x93\xf7\xbf'
tbsS'GTEX-13NZ8'
p572
g3
(g4
(I0
tS'b'
tRp573
(I1
(I1
I1
tg7
I00
S'9p\x95\xad\xca\xb0\x1a\xc0'
tbsS'GTEX-QMR6'
p574
g3
(g4
(I0
tS'b'
tRp575
(I1
(I1
I1
tg7
I00
S' f\xf6\x10\xdd\xbd\xf8?'
tbsS'GTEX-WRHU'
p576
g3
(g4
(I0
tS'b'
tRp577
(I1
(I1
I1
tg7
I00
S'\xe9\x18\xc6\xc9\x08\xc3\x05@'
tbsS'GTEX-WCDI'
p578
g3
(g4
(I0
tS'b'
tRp579
(I1
(I1
I1
tg7
I00
S'm\x02`X\xe4\xfc\x16\xc0'
tbsS'GTEX-QMRM'
p580
g3
(g4
(I0
tS'b'
tRp581
(I1
(I1
I1
tg7
I00
S'\xc2\xaag+\xdc\xdf\xdb\xbf'
tbsS'GTEX-TMZS'
p582
g3
(g4
(I0
tS'b'
tRp583
(I1
(I1
I1
tg7
I00
S'\x88\xb1\xebLiU\x00@'
tbsS'GTEX-13NZB'
p584
g3
(g4
(I0
tS'b'
tRp585
(I1
(I1
I1
tg7
I00
S'\x80\xd5|s\xc9_\xff\xbf'
tbsS'GTEX-13NZA'
p586
g3
(g4
(I0
tS'b'
tRp587
(I1
(I1
I1
tg7
I00
S'\xb9\xfc\xb6(\x8f\x8d\xf7?'
tbsS'GTEX-12ZZX'
p588
g3
(g4
(I0
tS'b'
tRp589
(I1
(I1
I1
tg7
I00
S'S\x06\xd1\x10\xa8&\xfc?'
tbsS'GTEX-13OW8'
p590
g3
(g4
(I0
tS'b'
tRp591
(I1
(I1
I1
tg7
I00
S'?\xcf\xf6l\x04\xd1\x02@'
tbsS'GTEX-13OW5'
p592
g3
(g4
(I0
tS'b'
tRp593
(I1
(I1
I1
tg7
I00
S'\xb9\xcd\x19\xc7\xd2o\r\xc0'
tbsS'GTEX-13OW7'
p594
g3
(g4
(I0
tS'b'
tRp595
(I1
(I1
I1
tg7
I00
S'?\xd3,Q/\xc1\x10@'
tbsS'GTEX-13OW6'
p596
g3
(g4
(I0
tS'b'
tRp597
(I1
(I1
I1
tg7
I00
S'O*\xea|\xf1\xbe\x08@'
tbsS'GTEX-U4B1'
p598
g3
(g4
(I0
tS'b'
tRp599
(I1
(I1
I1
tg7
I00
S'5,\xc7\xcevm\xf6\xbf'
tbsS'GTEX-11P81'
p600
g3
(g4
(I0
tS'b'
tRp601
(I1
(I1
I1
tg7
I00
S'zzG6W\xf7\xe6?'
tbsS'GTEX-11P82'
p602
g3
(g4
(I0
tS'b'
tRp603
(I1
(I1
I1
tg7
I00
S'\xf9f\xe7r\x04\xa6\xf3?'
tbsS'GTEX-117YW'
p604
g3
(g4
(I0
tS'b'
tRp605
(I1
(I1
I1
tg7
I00
S'\xd3\xb6k\xffN\x05\r@'
tbsS'GTEX-12KS4'
p606
g3
(g4
(I0
tS'b'
tRp607
(I1
(I1
I1
tg7
I00
S'\xdbRR\xc1\xbe\xb5\xf1?'
tbsS'GTEX-X62O'
p608
g3
(g4
(I0
tS'b'
tRp609
(I1
(I1
I1
tg7
I00
S'\xa8\xd1@L?\xee\x0e\xc0'
tbsS'GTEX-13FH7'
p610
g3
(g4
(I0
tS'b'
tRp611
(I1
(I1
I1
tg7
I00
S'\xad\x12\xc2i0\x90\xaf\xbf'
tbsS'GTEX-ZPIC'
p612
g3
(g4
(I0
tS'b'
tRp613
(I1
(I1
I1
tg7
I00
S'\x87\xdb\x89\xbf\xabZ\xef?'
tbsS'GTEX-117XS'
p614
g3
(g4
(I0
tS'b'
tRp615
(I1
(I1
I1
tg7
I00
S'%\x90\xdf\xb26[\n@'
tbsS'GTEX-OOBK'
p616
g3
(g4
(I0
tS'b'
tRp617
(I1
(I1
I1
tg7
I00
S'1\xd1\\\xf1?\xe3\x08\xc0'
tbsS'GTEX-12584'
p618
g3
(g4
(I0
tS'b'
tRp619
(I1
(I1
I1
tg7
I00
S'0z\x7f\xa5\x08\xf5\xcf?'
tbsS'GTEX-12ZZZ'
p620
g3
(g4
(I0
tS'b'
tRp621
(I1
(I1
I1
tg7
I00
S'u\xc7\x81s\xbf\xe4\x02@'
tbsS'GTEX-Y114'
p622
g3
(g4
(I0
tS'b'
tRp623
(I1
(I1
I1
tg7
I00
S'\x08y\x96\xad\xb8\x08\x04@'
tbsS'GTEX-S33H'
p624
g3
(g4
(I0
tS'b'
tRp625
(I1
(I1
I1
tg7
I00
S'k\xc2\xd3\xac\x9e\x9e\xf8\xbf'
tbsS'GTEX-Y111'
p626
g3
(g4
(I0
tS'b'
tRp627
(I1
(I1
I1
tg7
I00
S'2\xba\xa5E\xddy\x07@'
tbsS'GTEX-ZYFC'
p628
g3
(g4
(I0
tS'b'
tRp629
(I1
(I1
I1
tg7
I00
S'\x0by\xaeG\x93\x06\x14@'
tbsS'GTEX-ZYFG'
p630
g3
(g4
(I0
tS'b'
tRp631
(I1
(I1
I1
tg7
I00
S'\x81\x16x$\xc7t\xc9?'
tbsS'GTEX-OHPN'
p632
g3
(g4
(I0
tS'b'
tRp633
(I1
(I1
I1
tg7
I00
S'tj\x7fW\x0b\xd0\xf2?'
tbsS'GTEX-OHPM'
p634
g3
(g4
(I0
tS'b'
tRp635
(I1
(I1
I1
tg7
I00
S']\x91\x89H\x83N\x02\xc0'
tbsS'GTEX-ZYFD'
p636
g3
(g4
(I0
tS'b'
tRp637
(I1
(I1
I1
tg7
I00
S'D\xa8u4\xd4\xbe\xec\xbf'
tbsS'GTEX-Z93S'
p638
g3
(g4
(I0
tS'b'
tRp639
(I1
(I1
I1
tg7
I00
S'7\x06\xcb\xb2\xf3u\x07@'
tbsS'GTEX-Z93T'
p640
g3
(g4
(I0
tS'b'
tRp641
(I1
(I1
I1
tg7
I00
S'4\r}\x10\x06\xb1\x01@'
tbsS'GTEX-UPK5'
p642
g3
(g4
(I0
tS'b'
tRp643
(I1
(I1
I1
tg7
I00
S'\x05\xbe\x87\xfb\x9cW\xf5\xbf'
tbsS'GTEX-13U4I'
p644
g3
(g4
(I0
tS'b'
tRp645
(I1
(I1
I1
tg7
I00
S'p{\xbf\xb9\xe5\x1e\xfa?'
tbsS'GTEX-Y5LM'
p646
g3
(g4
(I0
tS'b'
tRp647
(I1
(I1
I1
tg7
I00
S'\xeb\xdd\xee\x11#R\x02\xc0'
tbsS'GTEX-QESD'
p648
g3
(g4
(I0
tS'b'
tRp649
(I1
(I1
I1
tg7
I00
S'\\\xeb";]\x17\xfa\xbf'
tbsS'GTEX-UJHI'
p650
g3
(g4
(I0
tS'b'
tRp651
(I1
(I1
I1
tg7
I00
S'\x99\x91\xd2D\xa6s\xd1\xbf'
tbsS'GTEX-S3XE'
p652
g3
(g4
(I0
tS'b'
tRp653
(I1
(I1
I1
tg7
I00
S'\xa8\x04\xef\xf99,\xea\xbf'
tbsS'GTEX-11EQ9'
p654
g3
(g4
(I0
tS'b'
tRp655
(I1
(I1
I1
tg7
I00
S'\xe0\xc6\xa3\xb6\xaa\x9f\xda\xbf'
tbsS'GTEX-11EQ8'
p656
g3
(g4
(I0
tS'b'
tRp657
(I1
(I1
I1
tg7
I00
S'c\xd53\xb1\xb6\xfa\x16\xc0'
tbsS'GTEX-RM2N'
p658
g3
(g4
(I0
tS'b'
tRp659
(I1
(I1
I1
tg7
I00
S'\xf3\x17U\xa7Y\x9b\xfb\xbf'
tbsS'GTEX-13FHP'
p660
g3
(g4
(I0
tS'b'
tRp661
(I1
(I1
I1
tg7
I00
S'z\x9b\xafY+?\n@'
tbsS'GTEX-XMD3'
p662
g3
(g4
(I0
tS'b'
tRp663
(I1
(I1
I1
tg7
I00
S'\xe5r\xf1\x8f\x8c9\x1e\xc0'
tbsS'GTEX-XMD2'
p664
g3
(g4
(I0
tS'b'
tRp665
(I1
(I1
I1
tg7
I00
S'\xb6\x83\xe5\xb0\x16D\x03\xc0'
tbsS'GTEX-XMD1'
p666
g3
(g4
(I0
tS'b'
tRp667
(I1
(I1
I1
tg7
I00
S'\xab\xc9\x8c\xe2\x01\xe1\x19\xc0'
tbsS'GTEX-11TUW'
p668
g3
(g4
(I0
tS'b'
tRp669
(I1
(I1
I1
tg7
I00
S'>-<i^\xf5\xea?'
tbsS'GTEX-U412'
p670
g3
(g4
(I0
tS'b'
tRp671
(I1
(I1
I1
tg7
I00
S'\xa69\xc9\xb4\x9a\xee\xff?'
tbsS'GTEX-1339X'
p672
g3
(g4
(I0
tS'b'
tRp673
(I1
(I1
I1
tg7
I00
S'Q\xc15\x8e\xb3\xf6\x14\xc0'
tbsS'GTEX-XV7Q'
p674
g3
(g4
(I0
tS'b'
tRp675
(I1
(I1
I1
tg7
I00
S'\xca(\xd0I\x97\x15\x11\xc0'
tbsS'GTEX-12126'
p676
g3
(g4
(I0
tS'b'
tRp677
(I1
(I1
I1
tg7
I00
S'\xea\xbd\xe0\xebk\x8b\x02@'
tbsS'GTEX-ZLWG'
p678
g3
(g4
(I0
tS'b'
tRp679
(I1
(I1
I1
tg7
I00
S'\xdf\xb4\xf9\x95\x10\x95\xc3?'
tbsS'GTEX-VJYA'
p680
g3
(g4
(I0
tS'b'
tRp681
(I1
(I1
I1
tg7
I00
S'\xdcV4;\xa1\xea\xee?'
tbsS'GTEX-ZTX8'
p682
g3
(g4
(I0
tS'b'
tRp683
(I1
(I1
I1
tg7
I00
S'\xa2\xf9U\xdf\xcf\xe6\xbc\xbf'
tbsS'GTEX-ZVT2'
p684
g3
(g4
(I0
tS'b'
tRp685
(I1
(I1
I1
tg7
I00
S'\xf6\xd5\xa5e\x8e\x0f\xf7?'
tbsS'GTEX-ZVT3'
p686
g3
(g4
(I0
tS'b'
tRp687
(I1
(I1
I1
tg7
I00
S'g\xf9\xf1h\xfbO\n@'
tbsS'GTEX-WXYG'
p688
g3
(g4
(I0
tS'b'
tRp689
(I1
(I1
I1
tg7
I00
S"Q\x1b+'\xc1\x0e\xca\xbf"
tbsS'GTEX-ZVT4'
p690
g3
(g4
(I0
tS'b'
tRp691
(I1
(I1
I1
tg7
I00
S'\x13X\x80  G\x05@'
tbsS'GTEX-TML8'
p692
g3
(g4
(I0
tS'b'
tRp693
(I1
(I1
I1
tg7
I00
S'\x16O\x86*a\xb5\x03@'
tbsS'GTEX-13FTY'
p694
g3
(g4
(I0
tS'b'
tRp695
(I1
(I1
I1
tg7
I00
S'\x1d\x0f\xfb4\x90\x18\xfa?'
tbsS'GTEX-13FTX'
p696
g3
(g4
(I0
tS'b'
tRp697
(I1
(I1
I1
tg7
I00
S'\x06u\x8e\xbby\xc7\xfb\xbf'
tbsS'GTEX-13FTZ'
p698
g3
(g4
(I0
tS'b'
tRp699
(I1
(I1
I1
tg7
I00
S'P\xberU~\x11\x0c@'
tbsS'GTEX-13S86'
p700
g3
(g4
(I0
tS'b'
tRp701
(I1
(I1
I1
tg7
I00
S'\x9c\x9c\xc4\x83\xcfe\x1b\xc0'
tbsS'GTEX-W5X1'
p702
g3
(g4
(I0
tS'b'
tRp703
(I1
(I1
I1
tg7
I00
S'\xe4\x1dv\xb0\x7f\xd3\xbd?'
tbsS'GTEX-ZAJG'
p704
g3
(g4
(I0
tS'b'
tRp705
(I1
(I1
I1
tg7
I00
S'\xbe\x03N\x17\x9b\xdb\x18\xc0'
tbsS'GTEX-SNMC'
p706
g3
(g4
(I0
tS'b'
tRp707
(I1
(I1
I1
tg7
I00
S'\x91j\x8a\x10\x15>\xe0\xbf'
tbsS'GTEX-13FTW'
p708
g3
(g4
(I0
tS'b'
tRp709
(I1
(I1
I1
tg7
I00
S'e\xf3\xb4\xc3\x05\xba\xd1?'
tbsS'GTEX-11NUK'
p710
g3
(g4
(I0
tS'b'
tRp711
(I1
(I1
I1
tg7
I00
S'K\xcd\x99\xdd\x91z\x13@'
tbsS'GTEX-ZVTK'
p712
g3
(g4
(I0
tS'b'
tRp713
(I1
(I1
I1
tg7
I00
S'\xfb"\x1d\x89Ht\x0c@'
tbsS'GTEX-ZZ64'
p714
g3
(g4
(I0
tS'b'
tRp715
(I1
(I1
I1
tg7
I00
S'!\xf0\x95\xf1\xf5^\xd0?'
tbsS'GTEX-PWO3'
p716
g3
(g4
(I0
tS'b'
tRp717
(I1
(I1
I1
tg7
I00
S'\x15\xc1S\x17Z$\x14\xc0'
tbsS'GTEX-13NYS'
p718
g3
(g4
(I0
tS'b'
tRp719
(I1
(I1
I1
tg7
I00
S'\x8caV_;s \xc0'
tbsS'GTEX-1212Z'
p720
g3
(g4
(I0
tS'b'
tRp721
(I1
(I1
I1
tg7
I00
S'L\xc9P?F\xd4\n@'
tbsS'GTEX-11I78'
p722
g3
(g4
(I0
tS'b'
tRp723
(I1
(I1
I1
tg7
I00
S'\xc4\x04P\xa1q\xcf\xe8\xbf'
tbsS'GTEX-13NYB'
p724
g3
(g4
(I0
tS'b'
tRp725
(I1
(I1
I1
tg7
I00
S'\xc7,t\x86\x00\x0c\n@'
tbsS'GTEX-13NYC'
p726
g3
(g4
(I0
tS'b'
tRp727
(I1
(I1
I1
tg7
I00
S'\xfe\x1d\xe7S\xe1(\x1e\xc0'
tbsS'GTEX-Y9LG'
p728
g3
(g4
(I0
tS'b'
tRp729
(I1
(I1
I1
tg7
I00
S'\x94\x0e\xc0\\\x8e\xfa\xce?'
tbsS'GTEX-X5EB'
p730
g3
(g4
(I0
tS'b'
tRp731
(I1
(I1
I1
tg7
I00
S'U1n\x97\x816\xd6\xbf'
tbsS'GTEX-1399Q'
p732
g3
(g4
(I0
tS'b'
tRp733
(I1
(I1
I1
tg7
I00
S'eoY-a7\x19\xc0'
tbsS'GTEX-1399R'
p734
g3
(g4
(I0
tS'b'
tRp735
(I1
(I1
I1
tg7
I00
S'.6?\xcdd\xc7\xe8\xbf'
tbsS'GTEX-1399U'
p736
g3
(g4
(I0
tS'b'
tRp737
(I1
(I1
I1
tg7
I00
S'\xac\n\xa5/\xb6^\xe9?'
tbsS'GTEX-1399T'
p738
g3
(g4
(I0
tS'b'
tRp739
(I1
(I1
I1
tg7
I00
S"5^'\x9a\xd4\x9c\r@"
tbsS'GTEX-13X6I'
p740
g3
(g4
(I0
tS'b'
tRp741
(I1
(I1
I1
tg7
I00
S'\x14\x1aY\x0b\xe9a\x06\xc0'
tbsS'GTEX-13X6H'
p742
g3
(g4
(I0
tS'b'
tRp743
(I1
(I1
I1
tg7
I00
S'\xf8\x9e\xb5`\xda\x1c\xf0\xbf'
tbsS'GTEX-13X6K'
p744
g3
(g4
(I0
tS'b'
tRp745
(I1
(I1
I1
tg7
I00
S'\xae\x84\x00\x04\xa5\x12\xfc?'
tbsS'GTEX-13X6J'
p746
g3
(g4
(I0
tS'b'
tRp747
(I1
(I1
I1
tg7
I00
S'\x08\xdc<\xa95\t\x11@'
tbsS'GTEX-ZXG5'
p748
g3
(g4
(I0
tS'b'
tRp749
(I1
(I1
I1
tg7
I00
S'\x10\x9cq\x02\x9c\x1b\xfb?'
tbsS'GTEX-11ZU8'
p750
g3
(g4
(I0
tS'b'
tRp751
(I1
(I1
I1
tg7
I00
S'\xa1/$V\xac(\x00@'
tbsS'GTEX-QVJO'
p752
g3
(g4
(I0
tS'b'
tRp753
(I1
(I1
I1
tg7
I00
S'\xab\xfcoh\xdc\xba\xeb\xbf'
tbsS'GTEX-RWS6'
p754
g3
(g4
(I0
tS'b'
tRp755
(I1
(I1
I1
tg7
I00
S'7 O\xbf\xd8\xbc\xed\xbf'
tbsS'GTEX-ZP4G'
p756
g3
(g4
(I0
tS'b'
tRp757
(I1
(I1
I1
tg7
I00
S'\xd1\xf6\xfa-C\xad\xf2?'
tbsS'GTEX-Y8E4'
p758
g3
(g4
(I0
tS'b'
tRp759
(I1
(I1
I1
tg7
I00
S'\x83\xf1\xd0\xc7$\x1b\xe1?'
tbsS'GTEX-Y8E5'
p760
g3
(g4
(I0
tS'b'
tRp761
(I1
(I1
I1
tg7
I00
S'\x91]\xc7\xea\x99=\xd2\xbf'
tbsS'GTEX-WH7G'
p762
g3
(g4
(I0
tS'b'
tRp763
(I1
(I1
I1
tg7
I00
S'\x12\x99\xe1\xb6F1\xdb\xbf'
tbsS'GTEX-WEY5'
p764
g3
(g4
(I0
tS'b'
tRp765
(I1
(I1
I1
tg7
I00
S'\xa3\xcd\xc4\x94\xcfw\xf0?'
tbsS'GTEX-11P7K'
p766
g3
(g4
(I0
tS'b'
tRp767
(I1
(I1
I1
tg7
I00
S'\x96\xb8l\x0f+\xa3\xf9?'
tbsS'GTEX-S7PM'
p768
g3
(g4
(I0
tS'b'
tRp769
(I1
(I1
I1
tg7
I00
S'\xcc\r\xc0c\xa5\xcd\x07@'
tbsS'GTEX-V1D1'
p770
g3
(g4
(I0
tS'b'
tRp771
(I1
(I1
I1
tg7
I00
S'"\xf6k\xc5\x17\x86\xd7\xbf'
tbsS'GTEX-WRHK'
p772
g3
(g4
(I0
tS'b'
tRp773
(I1
(I1
I1
tg7
I00
S'\x00\x9d\x12\xde\x19\x90\xdd\xbf'
tbsS'GTEX-R55C'
p774
g3
(g4
(I0
tS'b'
tRp775
(I1
(I1
I1
tg7
I00
S'\xa7\x8c\xcd\x90\x00\xa8\xf0\xbf'
tbsS'GTEX-R55F'
p776
g3
(g4
(I0
tS'b'
tRp777
(I1
(I1
I1
tg7
I00
S'/I3N\xbcJ\x11\xc0'
tbsS'GTEX-R55G'
p778
g3
(g4
(I0
tS'b'
tRp779
(I1
(I1
I1
tg7
I00
S'\x87\xeb\x97|\xacw\xfe\xbf'
tbsS'GTEX-R55D'
p780
g3
(g4
(I0
tS'b'
tRp781
(I1
(I1
I1
tg7
I00
S'3\xd2\x1e\x12\x1f\x8d\x00\xc0'
tbsS'GTEX-R55E'
p782
g3
(g4
(I0
tS'b'
tRp783
(I1
(I1
I1
tg7
I00
S'\x1a|\xd1c\xee~\xf4?'
tbsS'GTEX-PSDG'
p784
g3
(g4
(I0
tS'b'
tRp785
(I1
(I1
I1
tg7
I00
S'\xedy\xa52E\xe7\x02\xc0'
tbsS'GTEX-RWSA'
p786
g3
(g4
(I0
tS'b'
tRp787
(I1
(I1
I1
tg7
I00
S'\x16\x01\x17\x85\xf0\\\x08@'
tbsS'GTEX-1122O'
p788
g3
(g4
(I0
tS'b'
tRp789
(I1
(I1
I1
tg7
I00
S'\x80\xa1\xadf%*\xed?'
tbsS'GTEX-X4EO'
p790
g3
(g4
(I0
tS'b'
tRp791
(I1
(I1
I1
tg7
I00
S'6n\xc6"}\xb4\x02@'
tbsS'GTEX-WVLH'
p792
g3
(g4
(I0
tS'b'
tRp793
(I1
(I1
I1
tg7
I00
S'\xa7\xa4\x07\xa7\xc2\xac\xf6?'
tbsS'GTEX-WYVS'
p794
g3
(g4
(I0
tS'b'
tRp795
(I1
(I1
I1
tg7
I00
S'\xe9\xb8^g,j\xf9?'
tbsS'GTEX-X4EP'
p796
g3
(g4
(I0
tS'b'
tRp797
(I1
(I1
I1
tg7
I00
S'\xc5\xdd\xcb\x94\x8c\xe1\n\xc0'
tbsS'GTEX-YB5E'
p798
g3
(g4
(I0
tS'b'
tRp799
(I1
(I1
I1
tg7
I00
S'\x7fV\xe7dZ\xc1\xda?'
tbsS'GTEX-RU1J'
p800
g3
(g4
(I0
tS'b'
tRp801
(I1
(I1
I1
tg7
I00
S'\xc2\x95D\xe5L\xf3\x00\xc0'
tbsS'GTEX-11GSP'
p802
g3
(g4
(I0
tS'b'
tRp803
(I1
(I1
I1
tg7
I00
S'\xb1\xf8\xf4O\xf3\xad\x05@'
tbsS'GTEX-11GSO'
p804
g3
(g4
(I0
tS'b'
tRp805
(I1
(I1
I1
tg7
I00
S'\xbd\xbehm0\x7f\x03@'
tbsS'GTEX-12ZZY'
p806
g3
(g4
(I0
tS'b'
tRp807
(I1
(I1
I1
tg7
I00
S'\xd8\xf2\xe1\x01\x8e\xc0\x07@'
tbsS'GTEX-11UD2'
p808
g3
(g4
(I0
tS'b'
tRp809
(I1
(I1
I1
tg7
I00
S'\x06\xbeAf\xfc\xb1\xd1?'
tbsS'GTEX-11PRG'
p810
g3
(g4
(I0
tS'b'
tRp811
(I1
(I1
I1
tg7
I00
S'\x08)\xbc\r\x12X\x10@'
tbsS'GTEX-SN8G'
p812
g3
(g4
(I0
tS'b'
tRp813
(I1
(I1
I1
tg7
I00
S'e\xfa\x8c_\x99v\xf9\xbf'
tbsS'GTEX-ZVP2'
p814
g3
(g4
(I0
tS'b'
tRp815
(I1
(I1
I1
tg7
I00
S'\xd9O\n_\xfd\x10\xa9\xbf'
tbsS'GTEX-12ZZW'
p816
g3
(g4
(I0
tS'b'
tRp817
(I1
(I1
I1
tg7
I00
S'\xf2,\xa9\x1d\xe5H\xed\xbf'
tbsS'GTEX-13W3W'
p818
g3
(g4
(I0
tS'b'
tRp819
(I1
(I1
I1
tg7
I00
S'\xc4\xc4\x85\xd6\xda\xf6\xe1\xbf'
tbsS'GTEX-S4Z8'
p820
g3
(g4
(I0
tS'b'
tRp821
(I1
(I1
I1
tg7
I00
S'6\xb0\xf6l6\xbf\xe1\xbf'
tbsS'GTEX-1211K'
p822
g3
(g4
(I0
tS'b'
tRp823
(I1
(I1
I1
tg7
I00
S'u>f)\xb6\xcc\xc1?'
tbsS'GTEX-ZG7Y'
p824
g3
(g4
(I0
tS'b'
tRp825
(I1
(I1
I1
tg7
I00
S'\xd7^h3\x9e\x97\x08\xc0'
tbsS'GTEX-ZA64'
p826
g3
(g4
(I0
tS'b'
tRp827
(I1
(I1
I1
tg7
I00
S'\xc5\x95K!\x9b\xc1\xcc?'
tbsS'GTEX-QCQG'
p828
g3
(g4
(I0
tS'b'
tRp829
(I1
(I1
I1
tg7
I00
S'\x90VM\x97J\x02\xa4\xbf'
tbsS'GTEX-11DYG'
p830
g3
(g4
(I0
tS'b'
tRp831
(I1
(I1
I1
tg7
I00
S'\xd6\x80\x06Vk\xd4\r@'
tbsS'GTEX-S95S'
p832
g3
(g4
(I0
tS'b'
tRp833
(I1
(I1
I1
tg7
I00
S'$KV\xef\xc8\xb4\xe3\xbf'
tbsS'GTEX-Y5V6'
p834
g3
(g4
(I0
tS'b'
tRp835
(I1
(I1
I1
tg7
I00
S'j?\xb2\x94\xb1\x8d\xf3\xbf'
tbsS'GTEX-Y5V5'
p836
g3
(g4
(I0
tS'b'
tRp837
(I1
(I1
I1
tg7
I00
S"\x05\xe2\xe8'\xb9\x19\xee?"
tbsS'GTEX-11GS4'
p838
g3
(g4
(I0
tS'b'
tRp839
(I1
(I1
I1
tg7
I00
S'6\x0c\x04\x01\x8e\x01\x0f@'
tbsS'GTEX-QDT8'
p840
g3
(g4
(I0
tS'b'
tRp841
(I1
(I1
I1
tg7
I00
S'B\xaf\xef\xfab\xdc\xb0?'
tbsS'GTEX-QXCU'
p842
g3
(g4
(I0
tS'b'
tRp843
(I1
(I1
I1
tg7
I00
S'\xd6\t\xbf>{\xeb\x0e@'
tbsS'GTEX-YBZK'
p844
g3
(g4
(I0
tS'b'
tRp845
(I1
(I1
I1
tg7
I00
S'@E\x88\xd5\n\xb8\xc6\xbf'
tbsS'GTEX-SSA3'
p846
g3
(g4
(I0
tS'b'
tRp847
(I1
(I1
I1
tg7
I00
S'\x19|\xf0\x08[\xcf\xd9?'
tbsS'GTEX-PX3G'
p848
g3
(g4
(I0
tS'b'
tRp849
(I1
(I1
I1
tg7
I00
S'\xe6\xa0\xbe\x80\xbd\xfa\x02@'
tbsS'GTEX-13O3P'
p850
g3
(g4
(I0
tS'b'
tRp851
(I1
(I1
I1
tg7
I00
S'^\x9c\x00\x87Zy\x12\xc0'
tbsS'GTEX-V955'
p852
g3
(g4
(I0
tS'b'
tRp853
(I1
(I1
I1
tg7
I00
S'\x1d\xa3\xe5\xac\xe2\x8c\n\xc0'
tbsS'GTEX-11TTK'
p854
g3
(g4
(I0
tS'b'
tRp855
(I1
(I1
I1
tg7
I00
S'K\x1fn\xca\xb3\xd4\xcf\xbf'
tbsS'GTEX-ZV7C'
p856
g3
(g4
(I0
tS'b'
tRp857
(I1
(I1
I1
tg7
I00
S'\xb3\xe5\xe1\xce\x9cX\xcb?'
tbsS'GTEX-11ZVC'
p858
g3
(g4
(I0
tS'b'
tRp859
(I1
(I1
I1
tg7
I00
S'\x0e$\xba{\x17\xf8\x01@'
tbsS'GTEX-11EI6'
p860
g3
(g4
(I0
tS'b'
tRp861
(I1
(I1
I1
tg7
I00
S'\xe1L>\x15v\x1a\xe3?'
tbsS'GTEX-145MG'
p862
g3
(g4
(I0
tS'b'
tRp863
(I1
(I1
I1
tg7
I00
S')\xc5\xd4\x91\xd2+\x04@'
tbsS'GTEX-11TT1'
p864
g3
(g4
(I0
tS'b'
tRp865
(I1
(I1
I1
tg7
I00
S'\xf3Y\x0c\xb1\xe34\r\xc0'
tbsS'GTEX-ZGAY'
p866
g3
(g4
(I0
tS'b'
tRp867
(I1
(I1
I1
tg7
I00
S'\x8c\xb4\xba\xe7\xd6\x8c\x01@'
tbsS'GTEX-R45C'
p868
g3
(g4
(I0
tS'b'
tRp869
(I1
(I1
I1
tg7
I00
S'\xe4\n\xcczlg\x00\xc0'
tbsS'GTEX-XAJ8'
p870
g3
(g4
(I0
tS'b'
tRp871
(I1
(I1
I1
tg7
I00
S'\xd6\xf6\x12RD\xec\x03\xc0'
tbsS'GTEX-YB5K'
p872
g3
(g4
(I0
tS'b'
tRp873
(I1
(I1
I1
tg7
I00
S'Nv\xba\x8e\x81\x97\xe3\xbf'
tbsS'GTEX-RUSQ'
p874
g3
(g4
(I0
tS'b'
tRp875
(I1
(I1
I1
tg7
I00
S'un8S\xad\x9a\x1e\xc0'
tbsS'GTEX-VJWN'
p876
g3
(g4
(I0
tS'b'
tRp877
(I1
(I1
I1
tg7
I00
S'\xc4MH]\x1a8\xc1\xbf'
tbsS'GTEX-U8XE'
p878
g3
(g4
(I0
tS'b'
tRp879
(I1
(I1
I1
tg7
I00
S'\xa7\xb25qG8\x0b\xc0'
tbsS'GTEX-XQ8I'
p880
g3
(g4
(I0
tS'b'
tRp881
(I1
(I1
I1
tg7
I00
S'P\xa9\x07\x1b\xb8+\x07\xc0'
tbsS'GTEX-SNOS'
p882
g3
(g4
(I0
tS'b'
tRp883
(I1
(I1
I1
tg7
I00
S'\xc4\\pr\xf8\xe7\x03\xc0'
tbsS'GTEX-QV31'
p884
g3
(g4
(I0
tS'b'
tRp885
(I1
(I1
I1
tg7
I00
S'9\xf9O\x05\x1b\x13\xdc?'
tbsS'GTEX-S7SE'
p886
g3
(g4
(I0
tS'b'
tRp887
(I1
(I1
I1
tg7
I00
S'\xd1\xec7\xc6\xbc\xcf\x0e@'
tbsS'GTEX-145MF'
p888
g3
(g4
(I0
tS'b'
tRp889
(I1
(I1
I1
tg7
I00
S'\xa6\xf4\x1e%N[\x07@'
tbsS'GTEX-S7SF'
p890
g3
(g4
(I0
tS'b'
tRp891
(I1
(I1
I1
tg7
I00
S'\xa6r\x81\x13\xc5\xf5\xe5\xbf'
tbsS'GTEX-145MH'
p892
g3
(g4
(I0
tS'b'
tRp893
(I1
(I1
I1
tg7
I00
S'\x0b\xb8\x97\x14\xe8/\x08@'
tbsS'GTEX-WYJK'
p894
g3
(g4
(I0
tS'b'
tRp895
(I1
(I1
I1
tg7
I00
S'%H\xd7]\xd8\x0f\xa3\xbf'
tbsS'GTEX-145MO'
p896
g3
(g4
(I0
tS'b'
tRp897
(I1
(I1
I1
tg7
I00
S'\xb4FN\xcc\x0b\x8f\xe5?'
tbs.