(dp1
S'GTEX-YJ89'
p2
cnumpy.core.multiarray
_reconstruct
p3
(cnumpy
ndarray
p4
(I0
tS'b'
tRp5
(I1
(I1
I1
tcnumpy
dtype
p6
(S'f8'
I0
I1
tRp7
(I3
S'<'
NNNI-1
I-1
I0
tbI00
S'\xcc~#D\xfb\x1f\x07@'
tbsS'GTEX-XPVG'
p8
g3
(g4
(I0
tS'b'
tRp9
(I1
(I1
I1
tg7
I00
S'\xfb\xf6\xcc\xedfQ\xe7?'
tbsS'GTEX-TMMY'
p10
g3
(g4
(I0
tS'b'
tRp11
(I1
(I1
I1
tg7
I00
S'n\xdf%\nV\xca\xec\xbf'
tbsS'GTEX-13IVO'
p12
g3
(g4
(I0
tS'b'
tRp13
(I1
(I1
I1
tg7
I00
S'^_\xf8\xae)\xf7\x1b\xc0'
tbsS'GTEX-WWYW'
p14
g3
(g4
(I0
tS'b'
tRp15
(I1
(I1
I1
tg7
I00
S'\x06\xd0\xf4\xd1O\xb1\x14\xc0'
tbsS'GTEX-111FC'
p16
g3
(g4
(I0
tS'b'
tRp17
(I1
(I1
I1
tg7
I00
S'>\x16\x9b\x02\xafh\x02@'
tbsS'GTEX-139T8'
p18
g3
(g4
(I0
tS'b'
tRp19
(I1
(I1
I1
tg7
I00
S' \xec\xc0\x96(M\x11\xc0'
tbsS'GTEX-139T6'
p20
g3
(g4
(I0
tS'b'
tRp21
(I1
(I1
I1
tg7
I00
S'\x16\x8f0i\xf2n\xe4?'
tbsS'GTEX-13O1R'
p22
g3
(g4
(I0
tS'b'
tRp23
(I1
(I1
I1
tg7
I00
S'\x0cjK2\x8d\xba\xd0\xbf'
tbsS'GTEX-TKQ1'
p24
g3
(g4
(I0
tS'b'
tRp25
(I1
(I1
I1
tg7
I00
S'\x9d\xf1\x0b]\x8b\x15\xf4\xbf'
tbsS'GTEX-ZVE1'
p26
g3
(g4
(I0
tS'b'
tRp27
(I1
(I1
I1
tg7
I00
S'g\xb9%\x9c*!\xfc\xbf'
tbsS'GTEX-Q2AG'
p28
g3
(g4
(I0
tS'b'
tRp29
(I1
(I1
I1
tg7
I00
S'"\xdc\xf9\xb8h\xe9\xc0\xbf'
tbsS'GTEX-Q2AH'
p30
g3
(g4
(I0
tS'b'
tRp31
(I1
(I1
I1
tg7
I00
S';\xcd\xc5.\xc2\xe8\x0c\xc0'
tbsS'GTEX-Q2AI'
p32
g3
(g4
(I0
tS'b'
tRp33
(I1
(I1
I1
tg7
I00
S'\x15\x95\x8b+\xc3\xbd\x07\xc0'
tbsS'GTEX-S32W'
p34
g3
(g4
(I0
tS'b'
tRp35
(I1
(I1
I1
tg7
I00
S'`\xc4\xf2\x1e{N\x07\xc0'
tbsS'GTEX-ZEX8'
p36
g3
(g4
(I0
tS'b'
tRp37
(I1
(I1
I1
tg7
I00
S'\xa6\xeb\xe1\xf3x\r\xee?'
tbsS'GTEX-13D11'
p38
g3
(g4
(I0
tS'b'
tRp39
(I1
(I1
I1
tg7
I00
S't4D\xd6\x9d!\xf2\xbf'
tbsS'GTEX-WZTO'
p40
g3
(g4
(I0
tS'b'
tRp41
(I1
(I1
I1
tg7
I00
S'-F\xa9\xd0Ev\xf7?'
tbsS'GTEX-139TU'
p42
g3
(g4
(I0
tS'b'
tRp43
(I1
(I1
I1
tg7
I00
S'\xfb\x7f\x8b\x7f\x17\xdf\x03@'
tbsS'GTEX-139TS'
p44
g3
(g4
(I0
tS'b'
tRp45
(I1
(I1
I1
tg7
I00
S'\x15\xf3\xe4\xe1T\xa1\xf0?'
tbsS'GTEX-ZF3C'
p46
g3
(g4
(I0
tS'b'
tRp47
(I1
(I1
I1
tg7
I00
S'\x05\x0eC\xf1g\n\xed?'
tbsS'GTEX-XMK1'
p48
g3
(g4
(I0
tS'b'
tRp49
(I1
(I1
I1
tg7
I00
S'[k\xcbV\xaf\xa2\xf5?'
tbsS'GTEX-WHWD'
p50
g3
(g4
(I0
tS'b'
tRp51
(I1
(I1
I1
tg7
I00
S'\x04M\\\x11\xe4F\x04\xc0'
tbsS'GTEX-1192W'
p52
g3
(g4
(I0
tS'b'
tRp53
(I1
(I1
I1
tg7
I00
S'}E\xfa\x8e\x12\xb2\t@'
tbsS'GTEX-X4XX'
p54
g3
(g4
(I0
tS'b'
tRp55
(I1
(I1
I1
tg7
I00
S'\xb4\xef\xcb]\xb3.\x12\xc0'
tbsS'GTEX-X4XY'
p56
g3
(g4
(I0
tS'b'
tRp57
(I1
(I1
I1
tg7
I00
S'?\xc4L\x8c\x81B\x08\xc0'
tbsS'GTEX-13CZV'
p58
g3
(g4
(I0
tS'b'
tRp59
(I1
(I1
I1
tg7
I00
S'\x06\xea\x90,#\xb2\xcd?'
tbsS'GTEX-1192X'
p60
g3
(g4
(I0
tS'b'
tRp61
(I1
(I1
I1
tg7
I00
S'\x8bE\x8b\t\x02\xfa\xfb\xbf'
tbsS'GTEX-T2YK'
p62
g3
(g4
(I0
tS'b'
tRp63
(I1
(I1
I1
tg7
I00
S'\x13\xb0\xad\\\xe8^\x1e\xc0'
tbsS'GTEX-YJ8A'
p64
g3
(g4
(I0
tS'b'
tRp65
(I1
(I1
I1
tg7
I00
S'\xda\xa8\xcfDF7\n\xc0'
tbsS'GTEX-SIU8'
p66
g3
(g4
(I0
tS'b'
tRp67
(I1
(I1
I1
tg7
I00
S',:\xf2\xe9\x81\x83\x08@'
tbsS'GTEX-QEG5'
p68
g3
(g4
(I0
tS'b'
tRp69
(I1
(I1
I1
tg7
I00
S'Mq\xef\xe7\xfa\xdf\x10\xc0'
tbsS'GTEX-QEG4'
p70
g3
(g4
(I0
tS'b'
tRp71
(I1
(I1
I1
tg7
I00
S'~\x8c#E\xe45\x06@'
tbsS'GTEX-SIU7'
p72
g3
(g4
(I0
tS'b'
tRp73
(I1
(I1
I1
tg7
I00
S'\xe0^7\x89|/\xf1\xbf'
tbsS'GTEX-WI4N'
p74
g3
(g4
(I0
tS'b'
tRp75
(I1
(I1
I1
tg7
I00
S'I\xc9\xbd\xefy\x96\x08\xc0'
tbsS'GTEX-OXRL'
p76
g3
(g4
(I0
tS'b'
tRp77
(I1
(I1
I1
tg7
I00
S'\xba\xde\xde\x14+W\xe1\xbf'
tbsS'GTEX-OXRO'
p78
g3
(g4
(I0
tS'b'
tRp79
(I1
(I1
I1
tg7
I00
S'p8\xd4]\xd3Y\x15\xc0'
tbsS'GTEX-OXRN'
p80
g3
(g4
(I0
tS'b'
tRp81
(I1
(I1
I1
tg7
I00
S'\xd2\x04R\xd6xS\r\xc0'
tbsS'GTEX-OXRK'
p82
g3
(g4
(I0
tS'b'
tRp83
(I1
(I1
I1
tg7
I00
S't\xb5\xe4U\xde7\t\xc0'
tbsS'GTEX-X261'
p84
g3
(g4
(I0
tS'b'
tRp85
(I1
(I1
I1
tg7
I00
S'\x02lP~\x0c\x8f\x0f\xc0'
tbsS'GTEX-13N1W'
p86
g3
(g4
(I0
tS'b'
tRp87
(I1
(I1
I1
tg7
I00
S'\xd2\x80s3ZB\x01@'
tbsS'GTEX-UJMC'
p88
g3
(g4
(I0
tS'b'
tRp89
(I1
(I1
I1
tg7
I00
S'y\x89\x1cy\x10O\xb2?'
tbsS'GTEX-SJXC'
p90
g3
(g4
(I0
tS'b'
tRp91
(I1
(I1
I1
tg7
I00
S'2\xd86\xf4U\xa6\x06@'
tbsS'GTEX-13VXU'
p92
g3
(g4
(I0
tS'b'
tRp93
(I1
(I1
I1
tg7
I00
S'y~]\x1f^y\x07@'
tbsS'GTEX-13VXT'
p94
g3
(g4
(I0
tS'b'
tRp95
(I1
(I1
I1
tg7
I00
S'+_\xab\x1a\xd6\xf5\xb6?'
tbsS'GTEX-OIZH'
p96
g3
(g4
(I0
tS'b'
tRp97
(I1
(I1
I1
tg7
I00
S'\x1c\x01\x89\xd6\xa1I\x07\xc0'
tbsS'GTEX-OIZI'
p98
g3
(g4
(I0
tS'b'
tRp99
(I1
(I1
I1
tg7
I00
S'\xeb\xb7\x08\x8e\x80#\x10@'
tbsS'GTEX-ZAB5'
p100
g3
(g4
(I0
tS'b'
tRp101
(I1
(I1
I1
tg7
I00
S'{\xb6$\xde\xcb\xb7\x01\xc0'
tbsS'GTEX-ZAB4'
p102
g3
(g4
(I0
tS'b'
tRp103
(I1
(I1
I1
tg7
I00
S'\x1c\xf3\xbc@\x95b\xe9?'
tbsS'GTEX-OHPL'
p104
g3
(g4
(I0
tS'b'
tRp105
(I1
(I1
I1
tg7
I00
S'\xabL\xe6_d\xd2\xf7\xbf'
tbsS'GTEX-OIZG'
p106
g3
(g4
(I0
tS'b'
tRp107
(I1
(I1
I1
tg7
I00
S'\x03\xe2Y\xde\xfe\x87\xf8?'
tbsS'GTEX-ZY6K'
p108
g3
(g4
(I0
tS'b'
tRp109
(I1
(I1
I1
tg7
I00
S',\x169\xeb\xa2{\x01\xc0'
tbsS'GTEX-11DXW'
p110
g3
(g4
(I0
tS'b'
tRp111
(I1
(I1
I1
tg7
I00
S'R\x055\xb3\xed\x88\x0b@'
tbsS'GTEX-13CF2'
p112
g3
(g4
(I0
tS'b'
tRp113
(I1
(I1
I1
tg7
I00
S'h\x01\x8cZ\xdd\xf5\x04@'
tbsS'GTEX-13CF3'
p114
g3
(g4
(I0
tS'b'
tRp115
(I1
(I1
I1
tg7
I00
S'\x1fYP\xa9\xcfj\xf7\xbf'
tbsS'GTEX-11DXY'
p116
g3
(g4
(I0
tS'b'
tRp117
(I1
(I1
I1
tg7
I00
S'\xf7O\xb4Pj\x86\x02@'
tbsS'GTEX-11DXX'
p118
g3
(g4
(I0
tS'b'
tRp119
(I1
(I1
I1
tg7
I00
S'\xa6\x01k,\x08_\xe7\xbf'
tbsS'GTEX-11DXZ'
p120
g3
(g4
(I0
tS'b'
tRp121
(I1
(I1
I1
tg7
I00
S'\xd1\xc8\xf1\x8f\xea\xe8\x06@'
tbsS'GTEX-13S7M'
p122
g3
(g4
(I0
tS'b'
tRp123
(I1
(I1
I1
tg7
I00
S'\x8a[\xfe\xe1\xbbf\xf4?'
tbsS'GTEX-WOFL'
p124
g3
(g4
(I0
tS'b'
tRp125
(I1
(I1
I1
tg7
I00
S'\xeb\xf6t\x995\xcf\x06\xc0'
tbsS'GTEX-WOFM'
p126
g3
(g4
(I0
tS'b'
tRp127
(I1
(I1
I1
tg7
I00
S'.\xc3-`\x91\xd1\xdb\xbf'
tbsS'GTEX-XUZC'
p128
g3
(g4
(I0
tS'b'
tRp129
(I1
(I1
I1
tg7
I00
S'\xc2\xf4QQB\xd7\xe7\xbf'
tbsS'GTEX-ZDTS'
p130
g3
(g4
(I0
tS'b'
tRp131
(I1
(I1
I1
tg7
I00
S'\xa6@\x01\xf7\xd6y\xf2?'
tbsS'GTEX-ZDTT'
p132
g3
(g4
(I0
tS'b'
tRp133
(I1
(I1
I1
tg7
I00
S'@j7}\x94k\x8a?'
tbsS'GTEX-PWN1'
p134
g3
(g4
(I0
tS'b'
tRp135
(I1
(I1
I1
tg7
I00
S'MkD\x9aX\x85\xf7?'
tbsS'GTEX-N7MS'
p136
g3
(g4
(I0
tS'b'
tRp137
(I1
(I1
I1
tg7
I00
S'\x87\x92\x99b\x1e\x01\xff?'
tbsS'GTEX-N7MT'
p138
g3
(g4
(I0
tS'b'
tRp139
(I1
(I1
I1
tg7
I00
S'\x998p\xf9\x98\x03\x02\xc0'
tbsS'GTEX-W5WG'
p140
g3
(g4
(I0
tS'b'
tRp141
(I1
(I1
I1
tg7
I00
S'D\xd9\xb6\x15\xb5\x15\xf1?'
tbsS'GTEX-XYKS'
p142
g3
(g4
(I0
tS'b'
tRp143
(I1
(I1
I1
tg7
I00
S'\xba\x05\x81\x88\xf9\t\x01\xc0'
tbsS'GTEX-NPJ7'
p144
g3
(g4
(I0
tS'b'
tRp145
(I1
(I1
I1
tg7
I00
S'D\xef=)\xa8<\r\xc0'
tbsS'GTEX-13RTK'
p146
g3
(g4
(I0
tS'b'
tRp147
(I1
(I1
I1
tg7
I00
S'5\xcf\xfb|\xac\x10\xbe?'
tbsS'GTEX-13RTJ'
p148
g3
(g4
(I0
tS'b'
tRp149
(I1
(I1
I1
tg7
I00
S'\x8e\x93\xf96\xc0\xf8\xe1\xbf'
tbsS'GTEX-O5YT'
p150
g3
(g4
(I0
tS'b'
tRp151
(I1
(I1
I1
tg7
I00
S'?0s\xbc\x9e\xbd\x08\xc0'
tbsS'GTEX-O5YW'
p152
g3
(g4
(I0
tS'b'
tRp153
(I1
(I1
I1
tg7
I00
S'Q\x87\xd5\xb7\xa2!\xc4?'
tbsS'GTEX-O5YV'
p154
g3
(g4
(I0
tS'b'
tRp155
(I1
(I1
I1
tg7
I00
S'\xd2<\x9d[4j\x14\xc0'
tbsS'GTEX-WL46'
p156
g3
(g4
(I0
tS'b'
tRp157
(I1
(I1
I1
tg7
I00
S'\x10\xc4s\x1f\x1a\x89\xff?'
tbsS'GTEX-NPJ8'
p158
g3
(g4
(I0
tS'b'
tRp159
(I1
(I1
I1
tg7
I00
S'i\xea\xfd\xce\xb9\xda!\xc0'
tbsS'GTEX-ZVE2'
p160
g3
(g4
(I0
tS'b'
tRp161
(I1
(I1
I1
tg7
I00
S'%\xa7\xf7\x10\xd1X\x01\xc0'
tbsS'GTEX-11EM3'
p162
g3
(g4
(I0
tS'b'
tRp163
(I1
(I1
I1
tg7
I00
S'\x8f\xbf\xdd\xde\xd7Q\xf7?'
tbsS'GTEX-Q734'
p164
g3
(g4
(I0
tS'b'
tRp165
(I1
(I1
I1
tg7
I00
S'z[\x81\x8c\xf1\xbf\x10\xc0'
tbsS'GTEX-11EMC'
p166
g3
(g4
(I0
tS'b'
tRp167
(I1
(I1
I1
tg7
I00
S'\xa9HR\x0f\x0b\xe4\xe8?'
tbsS'GTEX-13N11'
p168
g3
(g4
(I0
tS'b'
tRp169
(I1
(I1
I1
tg7
I00
S'o\x08\xcd1,Z\xd5?'
tbsS'GTEX-1128S'
p170
g3
(g4
(I0
tS'b'
tRp171
(I1
(I1
I1
tg7
I00
S'\x1d\x98\xc9\x86\x1aR\xf8\xbf'
tbsS'GTEX-WHSE'
p172
g3
(g4
(I0
tS'b'
tRp173
(I1
(I1
I1
tg7
I00
S'>\xf3\x1a|\xcf\x10\x01\xc0'
tbsS'GTEX-WHSB'
p174
g3
(g4
(I0
tS'b'
tRp175
(I1
(I1
I1
tg7
I00
S'\x81"#\xbd\xbb_\xf6\xbf'
tbsS'GTEX-133LE'
p176
g3
(g4
(I0
tS'b'
tRp177
(I1
(I1
I1
tg7
I00
S'lQ\xd8\xf2Q/\xc3\xbf'
tbsS'GTEX-NL4W'
p178
g3
(g4
(I0
tS'b'
tRp179
(I1
(I1
I1
tg7
I00
S'\x7f\xb9\xf1\xc3\xbe\xe8\x10\xc0'
tbsS'GTEX-SUCS'
p180
g3
(g4
(I0
tS'b'
tRp181
(I1
(I1
I1
tg7
I00
S'\x87m\xde\xb3IV\xfa\xbf'
tbsS'GTEX-13QIC'
p182
g3
(g4
(I0
tS'b'
tRp183
(I1
(I1
I1
tg7
I00
S'\xa0l\xcc*Zw\x03@'
tbsS'GTEX-ZYY3'
p184
g3
(g4
(I0
tS'b'
tRp185
(I1
(I1
I1
tg7
I00
S'\xc7\xd61\xa9\xdb\xf2\xf9\xbf'
tbsS'GTEX-WYBS'
p186
g3
(g4
(I0
tS'b'
tRp187
(I1
(I1
I1
tg7
I00
S'\xd2\x1c\xd0\x8e\xb2\x90\xce?'
tbsS'GTEX-Y3I4'
p188
g3
(g4
(I0
tS'b'
tRp189
(I1
(I1
I1
tg7
I00
S'\xa2 \x03/\x93p\xf1\xbf'
tbsS'GTEX-13O21'
p190
g3
(g4
(I0
tS'b'
tRp191
(I1
(I1
I1
tg7
I00
S'\xc6U\x1a\x07\xech\xeb?'
tbsS'GTEX-PVOW'
p192
g3
(g4
(I0
tS'b'
tRp193
(I1
(I1
I1
tg7
I00
S'\x1bd\xd7\xb5\xf1\xf9\xf6?'
tbsS'GTEX-13QBU'
p194
g3
(g4
(I0
tS'b'
tRp195
(I1
(I1
I1
tg7
I00
S'\xcdT\x99\xbb\x12,\xf0?'
tbsS'GTEX-QEL4'
p196
g3
(g4
(I0
tS'b'
tRp197
(I1
(I1
I1
tg7
I00
S'qJ\x93\x8c\xa95\x10\xc0'
tbsS'GTEX-X585'
p198
g3
(g4
(I0
tS'b'
tRp199
(I1
(I1
I1
tg7
I00
S'\xc0\x151\x11v}\x07\xc0'
tbsS'GTEX-11VI4'
p200
g3
(g4
(I0
tS'b'
tRp201
(I1
(I1
I1
tg7
I00
S'\x0eR\xa7V\xbb\xf9\xf9?'
tbsS'GTEX-NL3G'
p202
g3
(g4
(I0
tS'b'
tRp203
(I1
(I1
I1
tg7
I00
S'\xdd\xf1zw\xdf\xb3\xf3?'
tbsS'GTEX-NL3H'
p204
g3
(g4
(I0
tS'b'
tRp205
(I1
(I1
I1
tg7
I00
S'a\xb4\xa9\xe5\xae\x16\x14\xc0'
tbsS'GTEX-139TT'
p206
g3
(g4
(I0
tS'b'
tRp207
(I1
(I1
I1
tg7
I00
S'\x9d\x07\x1a|\x18\x14\r@'
tbsS'GTEX-XUYS'
p208
g3
(g4
(I0
tS'b'
tRp209
(I1
(I1
I1
tg7
I00
S'\x96?\xd4G\x1d\x93\x11@'
tbsS'GTEX-P4QT'
p210
g3
(g4
(I0
tS'b'
tRp211
(I1
(I1
I1
tg7
I00
S'\x99\xcb\x83^\x9c\x16\xfe\xbf'
tbsS'GTEX-ZVZP'
p212
g3
(g4
(I0
tS'b'
tRp213
(I1
(I1
I1
tg7
I00
S'u\xe4><\xdc\x19\xd3?'
tbsS'GTEX-ZVZQ'
p214
g3
(g4
(I0
tS'b'
tRp215
(I1
(I1
I1
tg7
I00
S'\xe8^\xd1\xd9s\x10\r@'
tbsS'GTEX-P4QS'
p216
g3
(g4
(I0
tS'b'
tRp217
(I1
(I1
I1
tg7
I00
S'w]\xaeb\xc4\xc9\x07\xc0'
tbsS'GTEX-P4QR'
p218
g3
(g4
(I0
tS'b'
tRp219
(I1
(I1
I1
tg7
I00
S'x\xf8\xde\x93|\xed\x1c\xc0'
tbsS'GTEX-13SLW'
p220
g3
(g4
(I0
tS'b'
tRp221
(I1
(I1
I1
tg7
I00
S'XL\x14\xeaa~\xd4\xbf'
tbsS'GTEX-13SLX'
p222
g3
(g4
(I0
tS'b'
tRp223
(I1
(I1
I1
tg7
I00
S'\xf6\xac\xe5\x0c&\xf9\x02@'
tbsS'GTEX-13FXS'
p224
g3
(g4
(I0
tS'b'
tRp225
(I1
(I1
I1
tg7
I00
S'\x03\x93.\xb3~`\x08@'
tbsS'GTEX-X3Y1'
p226
g3
(g4
(I0
tS'b'
tRp227
(I1
(I1
I1
tg7
I00
S'a\xf8\xd5K\xf5\xa3\xe8\xbf'
tbsS'GTEX-SE5C'
p228
g3
(g4
(I0
tS'b'
tRp229
(I1
(I1
I1
tg7
I00
S'\xe7\xde\x023\x88 \xe0\xbf'
tbsS'GTEX-OHPK'
p230
g3
(g4
(I0
tS'b'
tRp231
(I1
(I1
I1
tg7
I00
S'\xf6\xb2\x85\x87\xcf\xf6\xe1?'
tbsS'GTEX-Y3IK'
p232
g3
(g4
(I0
tS'b'
tRp233
(I1
(I1
I1
tg7
I00
S'\xca\xe2\rdO\xce\xf7?'
tbsS'GTEX-ZF2S'
p234
g3
(g4
(I0
tS'b'
tRp235
(I1
(I1
I1
tg7
I00
S'w(\x17\x84\xd1Z\xef?'
tbsS'GTEX-111YS'
p236
g3
(g4
(I0
tS'b'
tRp237
(I1
(I1
I1
tg7
I00
S'\xbb\x93L\xc5;\x1a\xe1?'
tbsS'GTEX-139UW'
p238
g3
(g4
(I0
tS'b'
tRp239
(I1
(I1
I1
tg7
I00
S'\xf7\r\x0f\x0e3\x95\x02@'
tbsS'GTEX-U3ZG'
p240
g3
(g4
(I0
tS'b'
tRp241
(I1
(I1
I1
tg7
I00
S'\xc0\xf0\xc4\x1eE\xd9\xfd?'
tbsS'GTEX-U3ZM'
p242
g3
(g4
(I0
tS'b'
tRp243
(I1
(I1
I1
tg7
I00
S'\x95\xa3E!\xfeF\xd0\xbf'
tbsS'GTEX-U3ZN'
p244
g3
(g4
(I0
tS'b'
tRp245
(I1
(I1
I1
tg7
I00
S'\x9dK\xb9\x08d\x8d\xd5?'
tbsS'GTEX-ZV6S'
p246
g3
(g4
(I0
tS'b'
tRp247
(I1
(I1
I1
tg7
I00
S'^\x82\x86m\xcb\x16\xcf\xbf'
tbsS'GTEX-U3ZH'
p248
g3
(g4
(I0
tS'b'
tRp249
(I1
(I1
I1
tg7
I00
S'\x19\x8d\x01\xf0\x1e0\xec?'
tbsS'GTEX-RTLS'
p250
g3
(g4
(I0
tS'b'
tRp251
(I1
(I1
I1
tg7
I00
S'\x15\x84lX\x15\x89\xf2?'
tbsS'GTEX-PWCY'
p252
g3
(g4
(I0
tS'b'
tRp253
(I1
(I1
I1
tg7
I00
S'B\xab\x92y\xf7h\xb7\xbf'
tbsS'GTEX-P44H'
p254
g3
(g4
(I0
tS'b'
tRp255
(I1
(I1
I1
tg7
I00
S'\xcf\x0b\xb3\x13w\xef\xf9?'
tbsS'GTEX-11WQK'
p256
g3
(g4
(I0
tS'b'
tRp257
(I1
(I1
I1
tg7
I00
S'\x9eP\xa3\x80\xe8\x1e\x14\xc0'
tbsS'GTEX-12696'
p258
g3
(g4
(I0
tS'b'
tRp259
(I1
(I1
I1
tg7
I00
S'\xf2\x99\n\x11\x87\xe2\xfe?'
tbsS'GTEX-XUW1'
p260
g3
(g4
(I0
tS'b'
tRp261
(I1
(I1
I1
tg7
I00
S'\xa0\x9f\x9f>\xbaY\xf7\xbf'
tbsS'GTEX-13JVG'
p262
g3
(g4
(I0
tS'b'
tRp263
(I1
(I1
I1
tg7
I00
S'\xcf<\xc5\xa2\x97\xe4\xd3\xbf'
tbsS'GTEX-XBEW'
p264
g3
(g4
(I0
tS'b'
tRp265
(I1
(I1
I1
tg7
I00
S'Q\xda{t\xe7\xf1\xc1\xbf'
tbsS'GTEX-WK11'
p266
g3
(g4
(I0
tS'b'
tRp267
(I1
(I1
I1
tg7
I00
S'\xdb\x99H(\xd2\x1e\x0b@'
tbsS'GTEX-XBEC'
p268
g3
(g4
(I0
tS'b'
tRp269
(I1
(I1
I1
tg7
I00
S'=\xb9\xb1b%\xfd\xf1?'
tbsS'GTEX-XBED'
p270
g3
(g4
(I0
tS'b'
tRp271
(I1
(I1
I1
tg7
I00
S'\xcdo\xeb \x050\xe9\xbf'
tbsS'GTEX-ZDYS'
p272
g3
(g4
(I0
tS'b'
tRp273
(I1
(I1
I1
tg7
I00
S'2\xa3|,\xb0C\x01@'
tbsS'GTEX-X8HC'
p274
g3
(g4
(I0
tS'b'
tRp275
(I1
(I1
I1
tg7
I00
S'\xb02[\x8e\x82\x08\xf8\xbf'
tbsS'GTEX-ZF28'
p276
g3
(g4
(I0
tS'b'
tRp277
(I1
(I1
I1
tg7
I00
S'\xad\xdc\x94\xb1AC\x19\xc0'
tbsS'GTEX-ZF29'
p278
g3
(g4
(I0
tS'b'
tRp279
(I1
(I1
I1
tg7
I00
S'<\xe4\xa6\xd1\x9c(\xf8?'
tbsS'GTEX-ZV68'
p280
g3
(g4
(I0
tS'b'
tRp281
(I1
(I1
I1
tg7
I00
S'`\x10\xc7t\x96\x8c\xff?'
tbsS'GTEX-Y8LW'
p282
g3
(g4
(I0
tS'b'
tRp283
(I1
(I1
I1
tg7
I00
S'\x1bM\xbd\xb5\xf6\x8c\xcb\xbf'
tbsS'GTEX-13CIG'
p284
g3
(g4
(I0
tS'b'
tRp285
(I1
(I1
I1
tg7
I00
S'4m\xdb\x86\x07\xba\x13\xc0'
tbsS'GTEX-13O61'
p286
g3
(g4
(I0
tS'b'
tRp287
(I1
(I1
I1
tg7
I00
S'L\xa4\xa9\xc6\xdem\xe2\xbf'
tbsS'GTEX-12WSC'
p288
g3
(g4
(I0
tS'b'
tRp289
(I1
(I1
I1
tg7
I00
S'\xfe\xab\x11`e3\t@'
tbsS'GTEX-12WSA'
p290
g3
(g4
(I0
tS'b'
tRp291
(I1
(I1
I1
tg7
I00
S't\x9b\xea$G\x9a\xf3\xbf'
tbsS'GTEX-12WSF'
p292
g3
(g4
(I0
tS'b'
tRp293
(I1
(I1
I1
tg7
I00
S'\x7f\x95]\xd5X\xbd\xf3\xbf'
tbsS'GTEX-12WSG'
p294
g3
(g4
(I0
tS'b'
tRp295
(I1
(I1
I1
tg7
I00
S'\xcfQ\x8b\xd5l/\xeb?'
tbsS'GTEX-12WSD'
p296
g3
(g4
(I0
tS'b'
tRp297
(I1
(I1
I1
tg7
I00
S'uX&\xf5\xcbe\r@'
tbsS'GTEX-12WSE'
p298
g3
(g4
(I0
tS'b'
tRp299
(I1
(I1
I1
tg7
I00
S'59Y`&\x88\x10@'
tbsS'GTEX-12WSJ'
p300
g3
(g4
(I0
tS'b'
tRp301
(I1
(I1
I1
tg7
I00
S'|\x87\xec\x86\x16\x1e\xfc\xbf'
tbsS'GTEX-12WSK'
p302
g3
(g4
(I0
tS'b'
tRp303
(I1
(I1
I1
tg7
I00
S';V\xd6\xdf\xa8[\xec?'
tbsS'GTEX-12WSH'
p304
g3
(g4
(I0
tS'b'
tRp305
(I1
(I1
I1
tg7
I00
S'\xf1\x81\x17\x07\x9b5\x01\xc0'
tbsS'GTEX-12WSI'
p306
g3
(g4
(I0
tS'b'
tRp307
(I1
(I1
I1
tg7
I00
S'|\x07\xfd\x9e)\x00\x0b@'
tbsS'GTEX-12WSN'
p308
g3
(g4
(I0
tS'b'
tRp309
(I1
(I1
I1
tg7
I00
S'\xe5&\xbfu:\xb7\xf5\xbf'
tbsS'GTEX-12WSL'
p310
g3
(g4
(I0
tS'b'
tRp311
(I1
(I1
I1
tg7
I00
S'\x1a\xa2!X\x86\xea\x07\xc0'
tbsS'GTEX-12WSM'
p312
g3
(g4
(I0
tS'b'
tRp313
(I1
(I1
I1
tg7
I00
S'\x9c\x87u\x84\x89O\x01@'
tbsS'GTEX-13N2G'
p314
g3
(g4
(I0
tS'b'
tRp315
(I1
(I1
I1
tg7
I00
S'\n9\xf7\x1a\xd71\x03\xc0'
tbsS'GTEX-X15G'
p316
g3
(g4
(I0
tS'b'
tRp317
(I1
(I1
I1
tg7
I00
S'\xcb\x0c\x1a\xe2\xed\xec\xf8\xbf'
tbsS'GTEX-YF7O'
p318
g3
(g4
(I0
tS'b'
tRp319
(I1
(I1
I1
tg7
I00
S'\x16\xbb\x19ASl\xd1?'
tbsS'GTEX-S4P3'
p320
g3
(g4
(I0
tS'b'
tRp321
(I1
(I1
I1
tg7
I00
S'\xfc7\x11\x9e\xa0b\xf0?'
tbsS'GTEX-X4LF'
p322
g3
(g4
(I0
tS'b'
tRp323
(I1
(I1
I1
tg7
I00
S'\x05F|>\x17\xeb\xe0\xbf'
tbsS'GTEX-ZE7O'
p324
g3
(g4
(I0
tS'b'
tRp325
(I1
(I1
I1
tg7
I00
S'\x0f3\x93\xf2=\x82\xfa?'
tbsS'GTEX-ZQUD'
p326
g3
(g4
(I0
tS'b'
tRp327
(I1
(I1
I1
tg7
I00
S'G\xc4\xf0\xc5R\x02\x04@'
tbsS'GTEX-ZQG8'
p328
g3
(g4
(I0
tS'b'
tRp329
(I1
(I1
I1
tg7
I00
S'\xe7\xc8\xa1\x8dD\xd5\xe3?'
tbsS'GTEX-ZVZO'
p330
g3
(g4
(I0
tS'b'
tRp331
(I1
(I1
I1
tg7
I00
S'F\xeb\xba\x9fY$\xe2?'
tbsS'GTEX-WFG7'
p332
g3
(g4
(I0
tS'b'
tRp333
(I1
(I1
I1
tg7
I00
S'\xdc\xfb!;8r\xe3\xbf'
tbsS'GTEX-WFG8'
p334
g3
(g4
(I0
tS'b'
tRp335
(I1
(I1
I1
tg7
I00
S'cF\xeaUn\xa5\xce\xbf'
tbsS'GTEX-RU72'
p336
g3
(g4
(I0
tS'b'
tRp337
(I1
(I1
I1
tg7
I00
S'\x13h\x8cFRK\xec\xbf'
tbsS'GTEX-13W46'
p338
g3
(g4
(I0
tS'b'
tRp339
(I1
(I1
I1
tg7
I00
S'=\x93\xce`.L\t\xc0'
tbsS'GTEX-UPJH'
p340
g3
(g4
(I0
tS'b'
tRp341
(I1
(I1
I1
tg7
I00
S'9\x82\x85\x06a\xd0\x04@'
tbsS'GTEX-PW2O'
p342
g3
(g4
(I0
tS'b'
tRp343
(I1
(I1
I1
tg7
I00
S'\xf5\x8f\x92`\xb4-\xec\xbf'
tbsS'GTEX-T8EM'
p344
g3
(g4
(I0
tS'b'
tRp345
(I1
(I1
I1
tg7
I00
S'\xba\xaf\xfe\x9a\x88$\xc1?'
tbsS'GTEX-XQ3S'
p346
g3
(g4
(I0
tS'b'
tRp347
(I1
(I1
I1
tg7
I00
S'M\xfa\xee^\xdbT\n@'
tbsS'GTEX-ZPCL'
p348
g3
(g4
(I0
tS'b'
tRp349
(I1
(I1
I1
tg7
I00
S'C3\x83\x8ac|\xdb\xbf'
tbsS'GTEX-11ONC'
p350
g3
(g4
(I0
tS'b'
tRp351
(I1
(I1
I1
tg7
I00
S'3\xe8p\naO\x01@'
tbsS'GTEX-QV44'
p352
g3
(g4
(I0
tS'b'
tRp353
(I1
(I1
I1
tg7
I00
S'\xcc\xaaSzg\x07\xff\xbf'
tbsS'GTEX-WHPG'
p354
g3
(g4
(I0
tS'b'
tRp355
(I1
(I1
I1
tg7
I00
S'.\xaf[V-D\xe5?'
tbsS'GTEX-T6MO'
p356
g3
(g4
(I0
tS'b'
tRp357
(I1
(I1
I1
tg7
I00
S'\xcb\xe4i\xfd\xb91\xe5\xbf'
tbsS'GTEX-T6MN'
p358
g3
(g4
(I0
tS'b'
tRp359
(I1
(I1
I1
tg7
I00
S'\x94\xdaI\x01\xeb\xd2\x0f@'
tbsS'GTEX-XXEK'
p360
g3
(g4
(I0
tS'b'
tRp361
(I1
(I1
I1
tg7
I00
S'\x0b\x06\x03\xe6\x93r\x07\xc0'
tbsS'GTEX-ZTTD'
p362
g3
(g4
(I0
tS'b'
tRp363
(I1
(I1
I1
tg7
I00
S'\x12N\x1dV\x83f\xe7\xbf'
tbsS'GTEX-ZUA1'
p364
g3
(g4
(I0
tS'b'
tRp365
(I1
(I1
I1
tg7
I00
S'L\xf5\xd5~?K\x0f@'
tbsS'GTEX-OXRP'
p366
g3
(g4
(I0
tS'b'
tRp367
(I1
(I1
I1
tg7
I00
S'\x80\xff\x90[\xe4N\xee\xbf'
tbsS'GTEX-13OVL'
p368
g3
(g4
(I0
tS'b'
tRp369
(I1
(I1
I1
tg7
I00
S'\x0b\x02c5b\xec\x0e@'
tbsS'GTEX-13OVJ'
p370
g3
(g4
(I0
tS'b'
tRp371
(I1
(I1
I1
tg7
I00
S'\x9dr\xa0\x92\x1c\xb1\x01\xc0'
tbsS'GTEX-13OVH'
p372
g3
(g4
(I0
tS'b'
tRp373
(I1
(I1
I1
tg7
I00
S'u-\x81\no\x8b\xd3\xbf'
tbsS'GTEX-13OVI'
p374
g3
(g4
(I0
tS'b'
tRp375
(I1
(I1
I1
tg7
I00
S'3\x18\xbe\x9c\xb5\x03\xf5?'
tbsS'GTEX-13OVG'
p376
g3
(g4
(I0
tS'b'
tRp377
(I1
(I1
I1
tg7
I00
S'\t\xb0M\xbe\x02(\xf2?'
tbsS'GTEX-113IC'
p378
g3
(g4
(I0
tS'b'
tRp379
(I1
(I1
I1
tg7
I00
S'\x87\xecU(\x1a\x07\x00@'
tbsS'GTEX-XLM4'
p380
g3
(g4
(I0
tS'b'
tRp381
(I1
(I1
I1
tg7
I00
S'\xdf&\xbf\x87\xcdQ\xda\xbf'
tbsS'GTEX-13JUV'
p382
g3
(g4
(I0
tS'b'
tRp383
(I1
(I1
I1
tg7
I00
S'\xed5\x99\x0c\xd7}\xf3\xbf'
tbsS'GTEX-PLZ5'
p384
g3
(g4
(I0
tS'b'
tRp385
(I1
(I1
I1
tg7
I00
S'\x0eT\xd0\x87@\x1c\t\xc0'
tbsS'GTEX-PLZ6'
p386
g3
(g4
(I0
tS'b'
tRp387
(I1
(I1
I1
tg7
I00
S'NG%\xb4@\xf3\xb4\xbf'
tbsS'GTEX-ZZPT'
p388
g3
(g4
(I0
tS'b'
tRp389
(I1
(I1
I1
tg7
I00
S'm(\xa0\xac\xe0\x1d\x16\xc0'
tbsS'GTEX-ZZPU'
p390
g3
(g4
(I0
tS'b'
tRp391
(I1
(I1
I1
tg7
I00
S'\x15\x8am\xd8\xee\xb9\xd7?'
tbsS'GTEX-ZXES'
p392
g3
(g4
(I0
tS'b'
tRp393
(I1
(I1
I1
tg7
I00
S'\xb4T\x91d\x02\x90\x02@'
tbsS'GTEX-TSE9'
p394
g3
(g4
(I0
tS'b'
tRp395
(I1
(I1
I1
tg7
I00
S'\xb8g\x06\\O\xe9\xee\xbf'
tbsS'GTEX-ZC5H'
p396
g3
(g4
(I0
tS'b'
tRp397
(I1
(I1
I1
tg7
I00
S'a$V#\\\xac\x03\xc0'
tbsS'GTEX-QDVN'
p398
g3
(g4
(I0
tS'b'
tRp399
(I1
(I1
I1
tg7
I00
S'\xf7W(\xc8\xbfo\n\xc0'
tbsS'GTEX-QDVJ'
p400
g3
(g4
(I0
tS'b'
tRp401
(I1
(I1
I1
tg7
I00
S'\x83\xf9\x9e`\xfc\x1b\x03\xc0'
tbsS'GTEX-P4PP'
p402
g3
(g4
(I0
tS'b'
tRp403
(I1
(I1
I1
tg7
I00
S'\xee@C=\xb8u\xe6?'
tbsS'GTEX-P4PQ'
p404
g3
(g4
(I0
tS'b'
tRp405
(I1
(I1
I1
tg7
I00
S'\xb5\xcb\xd9cTO\xfb\xbf'
tbsS'GTEX-S4UY'
p406
g3
(g4
(I0
tS'b'
tRp407
(I1
(I1
I1
tg7
I00
S'\xb2`\xbd\xb8pa\xbb?'
tbsS'GTEX-S341'
p408
g3
(g4
(I0
tS'b'
tRp409
(I1
(I1
I1
tg7
I00
S'\xff\xa9\x1e\x92M\x08\xdc?'
tbsS'GTEX-11UD1'
p410
g3
(g4
(I0
tS'b'
tRp411
(I1
(I1
I1
tg7
I00
S'\x80$Y\x95\x98\x9e\xfc?'
tbsS'GTEX-13FHO'
p412
g3
(g4
(I0
tS'b'
tRp413
(I1
(I1
I1
tg7
I00
S'xa$\x82\xbf\xe7\xbd?'
tbsS'GTEX-13O3O'
p414
g3
(g4
(I0
tS'b'
tRp415
(I1
(I1
I1
tg7
I00
S'\xab\xc6\xc8N\xec\x84\x04@'
tbsS'GTEX-13O3Q'
p416
g3
(g4
(I0
tS'b'
tRp417
(I1
(I1
I1
tg7
I00
S'\xd3\xe4\xe7\xbc\xe6X\xf9?'
tbsS'GTEX-POYW'
p418
g3
(g4
(I0
tS'b'
tRp419
(I1
(I1
I1
tg7
I00
S'\xf41\x15\xd9\xeb\x04\x13\xc0'
tbsS'GTEX-ZYWO'
p420
g3
(g4
(I0
tS'b'
tRp421
(I1
(I1
I1
tg7
I00
S'\xccy\x97\xd7\x05"\x06\xc0'
tbsS'GTEX-X638'
p422
g3
(g4
(I0
tS'b'
tRp423
(I1
(I1
I1
tg7
I00
S':\n\xb4Oq\x86\xd4\xbf'
tbsS'GTEX-13111'
p424
g3
(g4
(I0
tS'b'
tRp425
(I1
(I1
I1
tg7
I00
S'\x96\xd4\xf8?\x91\x93\x0c@'
tbsS'GTEX-13113'
p426
g3
(g4
(I0
tS'b'
tRp427
(I1
(I1
I1
tg7
I00
S'0O\xc9j\xc9\xaa\xcb\xbf'
tbsS'GTEX-13112'
p428
g3
(g4
(I0
tS'b'
tRp429
(I1
(I1
I1
tg7
I00
S'3\xe4\x87\xc6\xe3O\t@'
tbsS'GTEX-POMQ'
p430
g3
(g4
(I0
tS'b'
tRp431
(I1
(I1
I1
tg7
I00
S'.\x02\xd2\x9eP\x84\xe3\xbf'
tbsS'GTEX-PWOO'
p432
g3
(g4
(I0
tS'b'
tRp433
(I1
(I1
I1
tg7
I00
S'\x95\xdf\xb0B\x91\x17\x0f\xc0'
tbsS'GTEX-ZT9W'
p434
g3
(g4
(I0
tS'b'
tRp435
(I1
(I1
I1
tg7
I00
S'\x0b\xe7\xea\xa1X\xc5\xf2?'
tbsS'GTEX-ZT9X'
p436
g3
(g4
(I0
tS'b'
tRp437
(I1
(I1
I1
tg7
I00
S'\x15RJBV[\xdd?'
tbsS'GTEX-RNOR'
p438
g3
(g4
(I0
tS'b'
tRp439
(I1
(I1
I1
tg7
I00
S'\x0f\x9d\xd9\x8c\xaf\xb6\xed?'
tbsS'GTEX-REY6'
p440
g3
(g4
(I0
tS'b'
tRp441
(I1
(I1
I1
tg7
I00
S'=\xa6\x95\xd4\xd0m\xca?'
tbsS'GTEX-111CU'
p442
g3
(g4
(I0
tS'b'
tRp443
(I1
(I1
I1
tg7
I00
S'\x9e\xd3\xd7\xe9\xf5F\xee\xbf'
tbsS'GTEX-XGQ4'
p444
g3
(g4
(I0
tS'b'
tRp445
(I1
(I1
I1
tg7
I00
S']\xc8t\xe1S\x85\xf0\xbf'
tbsS'GTEX-WFJO'
p446
g3
(g4
(I0
tS'b'
tRp447
(I1
(I1
I1
tg7
I00
S'Cb\xd3\x85\xe6O\xbd\xbf'
tbsS'GTEX-VUSH'
p448
g3
(g4
(I0
tS'b'
tRp449
(I1
(I1
I1
tg7
I00
S'>4\x94\xfat\xef\x0e@'
tbsS'GTEX-XPT6'
p450
g3
(g4
(I0
tS'b'
tRp451
(I1
(I1
I1
tg7
I00
S'U\xe69\xa8\xeb\xd8\xe2?'
tbsS'GTEX-VUSG'
p452
g3
(g4
(I0
tS'b'
tRp453
(I1
(I1
I1
tg7
I00
S'&\xc7\n\xde9\xdb\x01\xc0'
tbsS'GTEX-TKQ2'
p454
g3
(g4
(I0
tS'b'
tRp455
(I1
(I1
I1
tg7
I00
S'\xd0\xd2\xe7\xd6nZ\xf2?'
tbsS'GTEX-11NV4'
p456
g3
(g4
(I0
tS'b'
tRp457
(I1
(I1
I1
tg7
I00
S'\x8a\xb7\xd3\x9f\xba\xcf\x10@'
tbsS'GTEX-Y8DK'
p458
g3
(g4
(I0
tS'b'
tRp459
(I1
(I1
I1
tg7
I00
S'\xa6Z\x1d\xe8\xd8\xdb\x07@'
tbsS'GTEX-ZLFU'
p460
g3
(g4
(I0
tS'b'
tRp461
(I1
(I1
I1
tg7
I00
S'\xe9J:\xd7}\xba\xe4\xbf'
tbsS'GTEX-139YR'
p462
g3
(g4
(I0
tS'b'
tRp463
(I1
(I1
I1
tg7
I00
S'WM>^\xf6M\x0b\xc0'
tbsS'GTEX-YECK'
p464
g3
(g4
(I0
tS'b'
tRp465
(I1
(I1
I1
tg7
I00
S'\xc9\xc7\xefO\x80\x8d\r@'
tbsS'GTEX-13G51'
p466
g3
(g4
(I0
tS'b'
tRp467
(I1
(I1
I1
tg7
I00
S'\x9a\xb58\xb6\xad<\x0c@'
tbsS'GTEX-ZLV1'
p468
g3
(g4
(I0
tS'b'
tRp469
(I1
(I1
I1
tg7
I00
S'\xbd\xed\x86^z/\xfd\xbf'
tbsS'GTEX-13QJ3'
p470
g3
(g4
(I0
tS'b'
tRp471
(I1
(I1
I1
tg7
I00
S'\xdf\x84`\x94$=\xf8?'
tbsS'GTEX-T2IS'
p472
g3
(g4
(I0
tS'b'
tRp473
(I1
(I1
I1
tg7
I00
S'8e\xf1\xd4q\xe4\xfb?'
tbsS'GTEX-ZDXO'
p474
g3
(g4
(I0
tS'b'
tRp475
(I1
(I1
I1
tg7
I00
S',\xf2\xb0m\x0c\xa8\x04@'
tbsS'GTEX-WY7C'
p476
g3
(g4
(I0
tS'b'
tRp477
(I1
(I1
I1
tg7
I00
S'\xfa\xd3\x1fMJ\xbd\x92?'
tbsS'GTEX-PLZ4'
p478
g3
(g4
(I0
tS'b'
tRp479
(I1
(I1
I1
tg7
I00
S'K\xe4\xde\x182\x0b\x12\xc0'
tbsS'GTEX-13QJC'
p480
g3
(g4
(I0
tS'b'
tRp481
(I1
(I1
I1
tg7
I00
S'\x8d\xb0\xba\x86\x86\xf5\x01\xc0'
tbsS'GTEX-11WQC'
p482
g3
(g4
(I0
tS'b'
tRp483
(I1
(I1
I1
tg7
I00
S'\x05\xa1\x05\x14\xd8(\xfd?'
tbsS'GTEX-YEC4'
p484
g3
(g4
(I0
tS'b'
tRp485
(I1
(I1
I1
tg7
I00
S'\x1e=\xe1\x18\x9b\x95\xe9?'
tbsS'GTEX-ZTPG'
p486
g3
(g4
(I0
tS'b'
tRp487
(I1
(I1
I1
tg7
I00
S'\xf8\xb7J\xe3\x15\xd8\n\xc0'
tbsS'GTEX-YEC3'
p488
g3
(g4
(I0
tS'b'
tRp489
(I1
(I1
I1
tg7
I00
S'\xb5\x0c\\\xe7\xc1\x0e\xd7?'
tbsS'GTEX-T5JW'
p490
g3
(g4
(I0
tS'b'
tRp491
(I1
(I1
I1
tg7
I00
S'vh1\xf7<\x89\xfc?'
tbsS'GTEX-R53T'
p492
g3
(g4
(I0
tS'b'
tRp493
(I1
(I1
I1
tg7
I00
S'\xf1\xa0t\xeao>\x06\xc0'
tbsS'GTEX-WQUQ'
p494
g3
(g4
(I0
tS'b'
tRp495
(I1
(I1
I1
tg7
I00
S'5\xe1\x88\x14\xb7\xdf\xff\xbf'
tbsS'GTEX-111VG'
p496
g3
(g4
(I0
tS'b'
tRp497
(I1
(I1
I1
tg7
I00
S'\xa8\xe9\x8f\xd3\xf7$\x08@'
tbsS'GTEX-NFK9'
p498
g3
(g4
(I0
tS'b'
tRp499
(I1
(I1
I1
tg7
I00
S'\xca\xef0\xfb\xfb\x97\xd3?'
tbsS'GTEX-T5JC'
p500
g3
(g4
(I0
tS'b'
tRp501
(I1
(I1
I1
tg7
I00
S"\xe9s:'\x86h\xe1\xbf"
tbsS'GTEX-RVPV'
p502
g3
(g4
(I0
tS'b'
tRp503
(I1
(I1
I1
tg7
I00
S'\xce6r\xca\x08\x9d\xf7?'
tbsS'GTEX-RVPU'
p504
g3
(g4
(I0
tS'b'
tRp505
(I1
(I1
I1
tg7
I00
S'\x86.\xb4\x8f%\x95\xe8?'
tbsS'GTEX-UTHO'
p506
g3
(g4
(I0
tS'b'
tRp507
(I1
(I1
I1
tg7
I00
S'\xa0\xb3\xc0\x82\xee\xdf\x0c\xc0'
tbsS'GTEX-11LCK'
p508
g3
(g4
(I0
tS'b'
tRp509
(I1
(I1
I1
tg7
I00
S'$\xb5\xb7\xdfF\x99\xcb?'
tbsS'GTEX-X88G'
p510
g3
(g4
(I0
tS'b'
tRp511
(I1
(I1
I1
tg7
I00
S'\n\xd7/4\x0bj\xff\xbf'
tbsS'GTEX-QLQW'
p512
g3
(g4
(I0
tS'b'
tRp513
(I1
(I1
I1
tg7
I00
S'K*\xd0\xe3\t\x9b\xdf?'
tbsS'GTEX-13PL7'
p514
g3
(g4
(I0
tS'b'
tRp515
(I1
(I1
I1
tg7
I00
S'3\xfa\xe8!N3\xae\xbf'
tbsS'GTEX-13PL6'
p516
g3
(g4
(I0
tS'b'
tRp517
(I1
(I1
I1
tg7
I00
S'\x9c\x02\x14\xa0\xd4\xe5\xe1\xbf'
tbsS'GTEX-11ZUS'
p518
g3
(g4
(I0
tS'b'
tRp519
(I1
(I1
I1
tg7
I00
S'\xa2\xf21\xf1*V\t@'
tbsS'GTEX-WFON'
p520
g3
(g4
(I0
tS'b'
tRp521
(I1
(I1
I1
tg7
I00
S'\xa7\x7f\\\x12\xf3\x02\xce?'
tbsS'GTEX-QVUS'
p522
g3
(g4
(I0
tS'b'
tRp523
(I1
(I1
I1
tg7
I00
S'\x8aCzu\x9dd\xf9\xbf'
tbsS'GTEX-U8T8'
p524
g3
(g4
(I0
tS'b'
tRp525
(I1
(I1
I1
tg7
I00
S'\xf2)\x93,\ty\xe0\xbf'
tbsS'GTEX-YFCO'
p526
g3
(g4
(I0
tS'b'
tRp527
(I1
(I1
I1
tg7
I00
S'r\xd8s\xab\x04\xc8\xdf\xbf'
tbsS'GTEX-P78B'
p528
g3
(g4
(I0
tS'b'
tRp529
(I1
(I1
I1
tg7
I00
S'E\xf0Ou\x0eI\xe7\xbf'
tbsS'GTEX-YFC4'
p530
g3
(g4
(I0
tS'b'
tRp531
(I1
(I1
I1
tg7
I00
S'BM\xfb\xca\x18b\xfc?'
tbsS'GTEX-11ZTT'
p532
g3
(g4
(I0
tS'b'
tRp533
(I1
(I1
I1
tg7
I00
S'?\xaf\xc0\xb4\x02~\xf5?'
tbsS'GTEX-11ZTS'
p534
g3
(g4
(I0
tS'b'
tRp535
(I1
(I1
I1
tg7
I00
S'\x1ai\xff\xa4\xd2,\x06@'
tbsS'GTEX-13PLJ'
p536
g3
(g4
(I0
tS'b'
tRp537
(I1
(I1
I1
tg7
I00
S'\xa4Z>\xb3\x08\xfe\xfa?'
tbsS'GTEX-OOBJ'
p538
g3
(g4
(I0
tS'b'
tRp539
(I1
(I1
I1
tg7
I00
S'\xd2c\x0cv\xd6i\xea\xbf'
tbsS'GTEX-XOT4'
p540
g3
(g4
(I0
tS'b'
tRp541
(I1
(I1
I1
tg7
I00
S'\xa5P\xfc\xd5\xf0\x14\x01@'
tbsS'GTEX-S4Q7'
p542
g3
(g4
(I0
tS'b'
tRp543
(I1
(I1
I1
tg7
I00
S'\xfd\xa8\xa4:\x0fo\xff\xbf'
tbsS'GTEX-13FLW'
p544
g3
(g4
(I0
tS'b'
tRp545
(I1
(I1
I1
tg7
I00
S'o\x17\x82V.n\n@'
tbsS'GTEX-13FLV'
p546
g3
(g4
(I0
tS'b'
tRp547
(I1
(I1
I1
tg7
I00
S'=\x9f^\xac\xd0\xfe\n@'
tbsS'GTEX-QLQ7'
p548
g3
(g4
(I0
tS'b'
tRp549
(I1
(I1
I1
tg7
I00
S'\x19\x02\x81K&I\xb1?'
tbsS'GTEX-RN64'
p550
g3
(g4
(I0
tS'b'
tRp551
(I1
(I1
I1
tg7
I00
S'\x0e\xa2\x08\xa2\xba\x15\x03@'
tbsS'GTEX-ZYT6'
p552
g3
(g4
(I0
tS'b'
tRp553
(I1
(I1
I1
tg7
I00
S'\xd6\x95\xb6\xd7\xe3\x05\x0b@'
tbsS'GTEX-11XUK'
p554
g3
(g4
(I0
tS'b'
tRp555
(I1
(I1
I1
tg7
I00
S'\xaa_\xf1\xbb\x08V\xde\xbf'
tbsS'GTEX-ZTSS'
p556
g3
(g4
(I0
tS'b'
tRp557
(I1
(I1
I1
tg7
I00
S'\xdc\x93.\xfa\x80\xd0\xcd?'
tbsS'GTEX-1117F'
p558
g3
(g4
(I0
tS'b'
tRp559
(I1
(I1
I1
tg7
I00
S'\x04)>n\xb6\xf4\xfa\xbf'
tbsS'GTEX-113JC'
p560
g3
(g4
(I0
tS'b'
tRp561
(I1
(I1
I1
tg7
I00
S'\x05v\xa3\xb6\xe8\xc0\x04@'
tbsS'GTEX-Z9EW'
p562
g3
(g4
(I0
tS'b'
tRp563
(I1
(I1
I1
tg7
I00
S'4\xea\x02\x88O3\xe9\xbf'
tbsS'GTEX-ZPU1'
p564
g3
(g4
(I0
tS'b'
tRp565
(I1
(I1
I1
tg7
I00
S'\xb57\xa4\x8f\xd2/\xf8?'
tbsS'GTEX-XUJ4'
p566
g3
(g4
(I0
tS'b'
tRp567
(I1
(I1
I1
tg7
I00
S'<\x06q\x80\xd5\x89\xf0\xbf'
tbsS'GTEX-11DZ1'
p568
g3
(g4
(I0
tS'b'
tRp569
(I1
(I1
I1
tg7
I00
S'.^r\xc6T\x93\x11\xc0'
tbsS'GTEX-R3RS'
p570
g3
(g4
(I0
tS'b'
tRp571
(I1
(I1
I1
tg7
I00
S'\xe1\x9bB-7\x99\xf6\xbf'
tbsS'GTEX-13NZ8'
p572
g3
(g4
(I0
tS'b'
tRp573
(I1
(I1
I1
tg7
I00
S'\xd9\x0ca\xe5/\xe4\x19\xc0'
tbsS'GTEX-QMR6'
p574
g3
(g4
(I0
tS'b'
tRp575
(I1
(I1
I1
tg7
I00
S'>\xe3\xddDpE\xf8?'
tbsS'GTEX-WRHU'
p576
g3
(g4
(I0
tS'b'
tRp577
(I1
(I1
I1
tg7
I00
S'r \x05\x1e\xa2&\x05@'
tbsS'GTEX-WCDI'
p578
g3
(g4
(I0
tS'b'
tRp579
(I1
(I1
I1
tg7
I00
S'Q\x8f\xe3\xfc6T\x16\xc0'
tbsS'GTEX-QMRM'
p580
g3
(g4
(I0
tS'b'
tRp581
(I1
(I1
I1
tg7
I00
S'\x10Ct\xc7\xb4v\xdb\xbf'
tbsS'GTEX-TMZS'
p582
g3
(g4
(I0
tS'b'
tRp583
(I1
(I1
I1
tg7
I00
S'\xbb\xc2\xf9q(\xc5\xff?'
tbsS'GTEX-13NZB'
p584
g3
(g4
(I0
tS'b'
tRp585
(I1
(I1
I1
tg7
I00
S'\x1eN\xfc0\xcdo\xfe\xbf'
tbsS'GTEX-13NZA'
p586
g3
(g4
(I0
tS'b'
tRp587
(I1
(I1
I1
tg7
I00
S'\x94\x0b\xe8\x05\xc3\xc7\xf6?'
tbsS'GTEX-12ZZX'
p588
g3
(g4
(I0
tS'b'
tRp589
(I1
(I1
I1
tg7
I00
S'~\xfd\x1fN\xf9\x88\xfa?'
tbsS'GTEX-13OW8'
p590
g3
(g4
(I0
tS'b'
tRp591
(I1
(I1
I1
tg7
I00
S'\xa3p\x96h\x96R\x02@'
tbsS'GTEX-13OW5'
p592
g3
(g4
(I0
tS'b'
tRp593
(I1
(I1
I1
tg7
I00
S'\xd1z:.\xef`\x0c\xc0'
tbsS'GTEX-13OW7'
p594
g3
(g4
(I0
tS'b'
tRp595
(I1
(I1
I1
tg7
I00
S'\x16#C\xd8\xae:\x10@'
tbsS'GTEX-13OW6'
p596
g3
(g4
(I0
tS'b'
tRp597
(I1
(I1
I1
tg7
I00
S'\xde\x9d\xc5\xbc7\xf2\x07@'
tbsS'GTEX-U4B1'
p598
g3
(g4
(I0
tS'b'
tRp599
(I1
(I1
I1
tg7
I00
S'\x8c-\xd1>\x97\x9d\xf5\xbf'
tbsS'GTEX-11P81'
p600
g3
(g4
(I0
tS'b'
tRp601
(I1
(I1
I1
tg7
I00
S'\xec\x14\xb4\xc8H\x8c\xe4?'
tbsS'GTEX-11P82'
p602
g3
(g4
(I0
tS'b'
tRp603
(I1
(I1
I1
tg7
I00
S'$}\xc1\xf5\xf3#\xf3?'
tbsS'GTEX-117YW'
p604
g3
(g4
(I0
tS'b'
tRp605
(I1
(I1
I1
tg7
I00
S'\xd1\xd7A\xcb8-\x0c@'
tbsS'GTEX-12KS4'
p606
g3
(g4
(I0
tS'b'
tRp607
(I1
(I1
I1
tg7
I00
S'\xba\x81\xfd\xf9\xd6*\xf1?'
tbsS'GTEX-X62O'
p608
g3
(g4
(I0
tS'b'
tRp609
(I1
(I1
I1
tg7
I00
S"'jO\x1do\xec\r\xc0"
tbsS'GTEX-13FH7'
p610
g3
(g4
(I0
tS'b'
tRp611
(I1
(I1
I1
tg7
I00
S'\xac7\xd2\x074\xed\xad\xbf'
tbsS'GTEX-ZPIC'
p612
g3
(g4
(I0
tS'b'
tRp613
(I1
(I1
I1
tg7
I00
S'2\xf7\xd1\x0b\xb6z\xee?'
tbsS'GTEX-117XS'
p614
g3
(g4
(I0
tS'b'
tRp615
(I1
(I1
I1
tg7
I00
S'\xa7c\xb3\xc0\xae\x80\t@'
tbsS'GTEX-OOBK'
p616
g3
(g4
(I0
tS'b'
tRp617
(I1
(I1
I1
tg7
I00
S' \x02v\xb0\x028\x08\xc0'
tbsS'GTEX-12584'
p618
g3
(g4
(I0
tS'b'
tRp619
(I1
(I1
I1
tg7
I00
S'*\xc0\xef\xd6\xaaO\xcf?'
tbsS'GTEX-12ZZZ'
p620
g3
(g4
(I0
tS'b'
tRp621
(I1
(I1
I1
tg7
I00
S'U\xca\xab\xf5\xab[\x02@'
tbsS'GTEX-Y114'
p622
g3
(g4
(I0
tS'b'
tRp623
(I1
(I1
I1
tg7
I00
S'Ak \x7f3K\x04@'
tbsS'GTEX-S33H'
p624
g3
(g4
(I0
tS'b'
tRp625
(I1
(I1
I1
tg7
I00
S'\x04\xb7 \xf9]\xa9\xf7\xbf'
tbsS'GTEX-Y111'
p626
g3
(g4
(I0
tS'b'
tRp627
(I1
(I1
I1
tg7
I00
S'\x9be\xa4\x888\xc0\x06@'
tbsS'GTEX-ZYFC'
p628
g3
(g4
(I0
tS'b'
tRp629
(I1
(I1
I1
tg7
I00
S'\x7f\xcd\x95\xe4\x16h\x13@'
tbsS'GTEX-ZYFG'
p630
g3
(g4
(I0
tS'b'
tRp631
(I1
(I1
I1
tg7
I00
S'\xa9A\xa4\xc3co\xc8?'
tbsS'GTEX-OHPN'
p632
g3
(g4
(I0
tS'b'
tRp633
(I1
(I1
I1
tg7
I00
S'\x10\x8a3\xbf\x0e%\xf2?'
tbsS'GTEX-OHPM'
p634
g3
(g4
(I0
tS'b'
tRp635
(I1
(I1
I1
tg7
I00
S'\x82\x86f\xcb\xba\xc4\x01\xc0'
tbsS'GTEX-ZYFD'
p636
g3
(g4
(I0
tS'b'
tRp637
(I1
(I1
I1
tg7
I00
S'\xd2\xf2J\xa8\xd3 \xec\xbf'
tbsS'GTEX-Z93S'
p638
g3
(g4
(I0
tS'b'
tRp639
(I1
(I1
I1
tg7
I00
S'\x07\x13rwa\xc6\x06@'
tbsS'GTEX-Z93T'
p640
g3
(g4
(I0
tS'b'
tRp641
(I1
(I1
I1
tg7
I00
S'\x90\x82K\x18,\x1e\x01@'
tbsS'GTEX-UPK5'
p642
g3
(g4
(I0
tS'b'
tRp643
(I1
(I1
I1
tg7
I00
S'\xbbp\xff\xe1\x0f_\xf4\xbf'
tbsS'GTEX-13U4I'
p644
g3
(g4
(I0
tS'b'
tRp645
(I1
(I1
I1
tg7
I00
S'Y=^\x079\x8e\xf9?'
tbsS'GTEX-Y5LM'
p646
g3
(g4
(I0
tS'b'
tRp647
(I1
(I1
I1
tg7
I00
S'2\x1d4\x8f\xd3\xcc\x01\xc0'
tbsS'GTEX-QESD'
p648
g3
(g4
(I0
tS'b'
tRp649
(I1
(I1
I1
tg7
I00
S'\xcc\xc9\x83\xdf\x17N\xf9\xbf'
tbsS'GTEX-UJHI'
p650
g3
(g4
(I0
tS'b'
tRp651
(I1
(I1
I1
tg7
I00
S'\xbc\xb8\x89#?\xcd\xd0\xbf'
tbsS'GTEX-S3XE'
p652
g3
(g4
(I0
tS'b'
tRp653
(I1
(I1
I1
tg7
I00
S'3\xecF\x92\xafe\xe9\xbf'
tbsS'GTEX-11EQ9'
p654
g3
(g4
(I0
tS'b'
tRp655
(I1
(I1
I1
tg7
I00
S'\xa4WqE\xc6\xe8\xd9\xbf'
tbsS'GTEX-11EQ8'
p656
g3
(g4
(I0
tS'b'
tRp657
(I1
(I1
I1
tg7
I00
S'\xe9\xdf\xcb\x82\x11H\x16\xc0'
tbsS'GTEX-RM2N'
p658
g3
(g4
(I0
tS'b'
tRp659
(I1
(I1
I1
tg7
I00
S'\xf33p}k\xe0\xfa\xbf'
tbsS'GTEX-13FHP'
p660
g3
(g4
(I0
tS'b'
tRp661
(I1
(I1
I1
tg7
I00
S'\xd9\xb2\xa0\x9a\xadc\t@'
tbsS'GTEX-XMD3'
p662
g3
(g4
(I0
tS'b'
tRp663
(I1
(I1
I1
tg7
I00
S'ad\xf3G\xd2\x07\x1d\xc0'
tbsS'GTEX-XMD2'
p664
g3
(g4
(I0
tS'b'
tRp665
(I1
(I1
I1
tg7
I00
S'@}\xde\x1bb\xd6\x02\xc0'
tbsS'GTEX-XMD1'
p666
g3
(g4
(I0
tS'b'
tRp667
(I1
(I1
I1
tg7
I00
S'\x9a]\x0cEG#\x19\xc0'
tbsS'GTEX-11TUW'
p668
g3
(g4
(I0
tS'b'
tRp669
(I1
(I1
I1
tg7
I00
S'\x05\x92PSo\x91\xea?'
tbsS'GTEX-U412'
p670
g3
(g4
(I0
tS'b'
tRp671
(I1
(I1
I1
tg7
I00
S'\xe5\x1a\x8e=\xd3\x18\xff?'
tbsS'GTEX-1339X'
p672
g3
(g4
(I0
tS'b'
tRp673
(I1
(I1
I1
tg7
I00
S'1\xf0\x97f$Q\x14\xc0'
tbsS'GTEX-XV7Q'
p674
g3
(g4
(I0
tS'b'
tRp675
(I1
(I1
I1
tg7
I00
S'R\xa4\xcf\xa7\xfd\x8d\x10\xc0'
tbsS'GTEX-12126'
p676
g3
(g4
(I0
tS'b'
tRp677
(I1
(I1
I1
tg7
I00
S'\x06\xac\xd5v\xa7\xd8\x01@'
tbsS'GTEX-ZLWG'
p678
g3
(g4
(I0
tS'b'
tRp679
(I1
(I1
I1
tg7
I00
S'\xfa\x9cC`"1\xc6?'
tbsS'GTEX-VJYA'
p680
g3
(g4
(I0
tS'b'
tRp681
(I1
(I1
I1
tg7
I00
S'\x00\xdfs\x9f@\xc0\xed?'
tbsS'GTEX-ZTX8'
p682
g3
(g4
(I0
tS'b'
tRp683
(I1
(I1
I1
tg7
I00
S'\x0e\x99\xa5\x95\xbe\xff\xbb\xbf'
tbsS'GTEX-ZVT2'
p684
g3
(g4
(I0
tS'b'
tRp685
(I1
(I1
I1
tg7
I00
S'\xd6u\x81\x03q\\\xf5?'
tbsS'GTEX-ZVT3'
p686
g3
(g4
(I0
tS'b'
tRp687
(I1
(I1
I1
tg7
I00
S'\xd1\xcdQ~:w\t@'
tbsS'GTEX-WXYG'
p688
g3
(g4
(I0
tS'b'
tRp689
(I1
(I1
I1
tg7
I00
S'3\x05\xbc\xd8\xec-\xc8\xbf'
tbsS'GTEX-ZVT4'
p690
g3
(g4
(I0
tS'b'
tRp691
(I1
(I1
I1
tg7
I00
S'\xc3\xd9\x04\xf6\xc5\xa9\x04@'
tbsS'GTEX-TML8'
p692
g3
(g4
(I0
tS'b'
tRp693
(I1
(I1
I1
tg7
I00
S'\x03\x1e\x13~\xd6/\x03@'
tbsS'GTEX-13FTY'
p694
g3
(g4
(I0
tS'b'
tRp695
(I1
(I1
I1
tg7
I00
S' \xf6\x06\xc6 \x04\xf9?'
tbsS'GTEX-13FTX'
p696
g3
(g4
(I0
tS'b'
tRp697
(I1
(I1
I1
tg7
I00
S'x\n\xf9;}\xb9\xfa\xbf'
tbsS'GTEX-13FTZ'
p698
g3
(g4
(I0
tS'b'
tRp699
(I1
(I1
I1
tg7
I00
S'\xf7\xaek0\xbb=\x0b@'
tbsS'GTEX-13S86'
p700
g3
(g4
(I0
tS'b'
tRp701
(I1
(I1
I1
tg7
I00
S"\xd1\x86A\x8d'\x9c\x1a\xc0"
tbsS'GTEX-W5X1'
p702
g3
(g4
(I0
tS'b'
tRp703
(I1
(I1
I1
tg7
I00
S'\xb28\xb7\xd6\xde\xc3\xc2?'
tbsS'GTEX-ZAJG'
p704
g3
(g4
(I0
tS'b'
tRp705
(I1
(I1
I1
tg7
I00
S'\x1fs\xc2z\x98\x15\x18\xc0'
tbsS'GTEX-SNMC'
p706
g3
(g4
(I0
tS'b'
tRp707
(I1
(I1
I1
tg7
I00
S'o\x93\x0cn\x9d\x90\xdf\xbf'
tbsS'GTEX-13FTW'
p708
g3
(g4
(I0
tS'b'
tRp709
(I1
(I1
I1
tg7
I00
S'\x8c\xcfL\xca\x85-\xd1?'
tbsS'GTEX-11NUK'
p710
g3
(g4
(I0
tS'b'
tRp711
(I1
(I1
I1
tg7
I00
S'\x1ey;\x00\xd1\xe5\x12@'
tbsS'GTEX-ZVTK'
p712
g3
(g4
(I0
tS'b'
tRp713
(I1
(I1
I1
tg7
I00
S'\xa0\x14\xd16\x18\x80\x0b@'
tbsS'GTEX-ZZ64'
p714
g3
(g4
(I0
tS'b'
tRp715
(I1
(I1
I1
tg7
I00
S'\xe7I\x96\x17\xf2\x03\xcf?'
tbsS'GTEX-PWO3'
p716
g3
(g4
(I0
tS'b'
tRp717
(I1
(I1
I1
tg7
I00
S'\x05qh\xccJ\x91\x13\xc0'
tbsS'GTEX-13NYS'
p718
g3
(g4
(I0
tS'b'
tRp719
(I1
(I1
I1
tg7
I00
S'\xd1\xc0\x82A\x87\xd2\x1f\xc0'
tbsS'GTEX-1212Z'
p720
g3
(g4
(I0
tS'b'
tRp721
(I1
(I1
I1
tg7
I00
S'u\x99w\xb1N\xff\t@'
tbsS'GTEX-11I78'
p722
g3
(g4
(I0
tS'b'
tRp723
(I1
(I1
I1
tg7
I00
S'p\xcbp\xcc{\xee\xe8\xbf'
tbsS'GTEX-13NYB'
p724
g3
(g4
(I0
tS'b'
tRp725
(I1
(I1
I1
tg7
I00
S'\x90\xa56\xc1\xe5<\t@'
tbsS'GTEX-13NYC'
p726
g3
(g4
(I0
tS'b'
tRp727
(I1
(I1
I1
tg7
I00
S'vV++\xf0<\x1d\xc0'
tbsS'GTEX-Y9LG'
p728
g3
(g4
(I0
tS'b'
tRp729
(I1
(I1
I1
tg7
I00
S'\xbb\x15\x1fA\xcey\xce?'
tbsS'GTEX-X5EB'
p730
g3
(g4
(I0
tS'b'
tRp731
(I1
(I1
I1
tg7
I00
S'\x1ct\x93<z?\xd5\xbf'
tbsS'GTEX-1399Q'
p732
g3
(g4
(I0
tS'b'
tRp733
(I1
(I1
I1
tg7
I00
S'_\x8cd9\xe8z\x18\xc0'
tbsS'GTEX-1399R'
p734
g3
(g4
(I0
tS'b'
tRp735
(I1
(I1
I1
tg7
I00
S'>>\xfe\xa0\xc0\x80\xe8\xbf'
tbsS'GTEX-1399U'
p736
g3
(g4
(I0
tS'b'
tRp737
(I1
(I1
I1
tg7
I00
S'\xd1\xdb\xce \x08\xfc\xe6?'
tbsS'GTEX-1399T'
p738
g3
(g4
(I0
tS'b'
tRp739
(I1
(I1
I1
tg7
I00
S'5T\xc2\xc7\r\xc0\x0c@'
tbsS'GTEX-13X6I'
p740
g3
(g4
(I0
tS'b'
tRp741
(I1
(I1
I1
tg7
I00
S'q\x13\xf1\xc4\xd0\x9b\x05\xc0'
tbsS'GTEX-13X6H'
p742
g3
(g4
(I0
tS'b'
tRp743
(I1
(I1
I1
tg7
I00
S'\xabm\xf5_M\t\xef\xbf'
tbsS'GTEX-13X6K'
p744
g3
(g4
(I0
tS'b'
tRp745
(I1
(I1
I1
tg7
I00
S':0\xc9\x01\x1cP\xfb?'
tbsS'GTEX-13X6J'
p746
g3
(g4
(I0
tS'b'
tRp747
(I1
(I1
I1
tg7
I00
S'\x11\x83x\xbc\x1f\x8a\x10@'
tbsS'GTEX-ZXG5'
p748
g3
(g4
(I0
tS'b'
tRp749
(I1
(I1
I1
tg7
I00
S'\x98$\xa3\x06\xaa \xfa?'
tbsS'GTEX-11ZU8'
p750
g3
(g4
(I0
tS'b'
tRp751
(I1
(I1
I1
tg7
I00
S'\x01\xd0H\x1ft.\xff?'
tbsS'GTEX-QVJO'
p752
g3
(g4
(I0
tS'b'
tRp753
(I1
(I1
I1
tg7
I00
S'S\xdf\xeb\xe34\xf6\xea\xbf'
tbsS'GTEX-RWS6'
p754
g3
(g4
(I0
tS'b'
tRp755
(I1
(I1
I1
tg7
I00
S'\x9c\xed\x08\x89^\x80\xe7\xbf'
tbsS'GTEX-ZP4G'
p756
g3
(g4
(I0
tS'b'
tRp757
(I1
(I1
I1
tg7
I00
S'9\x95\xcc\xbb\xa5i\xf1?'
tbsS'GTEX-Y8E4'
p758
g3
(g4
(I0
tS'b'
tRp759
(I1
(I1
I1
tg7
I00
S'\x13\xfb\xda\rxe\xe0?'
tbsS'GTEX-Y8E5'
p760
g3
(g4
(I0
tS'b'
tRp761
(I1
(I1
I1
tg7
I00
S'Tb\x1a\xfb\x94~\xcf\xbf'
tbsS'GTEX-WH7G'
p762
g3
(g4
(I0
tS'b'
tRp763
(I1
(I1
I1
tg7
I00
S'\xe7\x96L\xbc2\xeb\xd8\xbf'
tbsS'GTEX-WEY5'
p764
g3
(g4
(I0
tS'b'
tRp765
(I1
(I1
I1
tg7
I00
S'\r\xed\x06@m\x7f\xf0?'
tbsS'GTEX-11P7K'
p766
g3
(g4
(I0
tS'b'
tRp767
(I1
(I1
I1
tg7
I00
S'\xb4\xc0\xbd\x86e\xa7\xf8?'
tbsS'GTEX-S7PM'
p768
g3
(g4
(I0
tS'b'
tRp769
(I1
(I1
I1
tg7
I00
S'W\nB\xdd\xbc\x1f\x07@'
tbsS'GTEX-V1D1'
p770
g3
(g4
(I0
tS'b'
tRp771
(I1
(I1
I1
tg7
I00
S'*\x03\xfc\x9b\xa0\xd7\xd7\xbf'
tbsS'GTEX-WRHK'
p772
g3
(g4
(I0
tS'b'
tRp773
(I1
(I1
I1
tg7
I00
S'\xe2\xfb-\x11\xf9\xa5\xdc\xbf'
tbsS'GTEX-R55C'
p774
g3
(g4
(I0
tS'b'
tRp775
(I1
(I1
I1
tg7
I00
S'\x06\x00\xa2in\x19\xf0\xbf'
tbsS'GTEX-R55F'
p776
g3
(g4
(I0
tS'b'
tRp777
(I1
(I1
I1
tg7
I00
S'x\x8aFQ9\xbf\x10\xc0'
tbsS'GTEX-R55G'
p778
g3
(g4
(I0
tS'b'
tRp779
(I1
(I1
I1
tg7
I00
S'\x83\x12P\x04b\x07\xfc\xbf'
tbsS'GTEX-R55D'
p780
g3
(g4
(I0
tS'b'
tRp781
(I1
(I1
I1
tg7
I00
S'm\xd0K\x7fg\t\x00\xc0'
tbsS'GTEX-R55E'
p782
g3
(g4
(I0
tS'b'
tRp783
(I1
(I1
I1
tg7
I00
S'\x02"XtG\xc8\xf3?'
tbsS'GTEX-PSDG'
p784
g3
(g4
(I0
tS'b'
tRp785
(I1
(I1
I1
tg7
I00
S'a9\xda\xdc\xe3M\x02\xc0'
tbsS'GTEX-RWSA'
p786
g3
(g4
(I0
tS'b'
tRp787
(I1
(I1
I1
tg7
I00
S'!4\xdb\xaf.\x94\x07@'
tbsS'GTEX-1122O'
p788
g3
(g4
(I0
tS'b'
tRp789
(I1
(I1
I1
tg7
I00
S'\x8e\xc7-\xcc\tl\xec?'
tbsS'GTEX-X4EO'
p790
g3
(g4
(I0
tS'b'
tRp791
(I1
(I1
I1
tg7
I00
S'f9\x00G\xd5H\x02@'
tbsS'GTEX-WVLH'
p792
g3
(g4
(I0
tS'b'
tRp793
(I1
(I1
I1
tg7
I00
S'H\x14\xa5\x9f\xc0n\xf5?'
tbsS'GTEX-WYVS'
p794
g3
(g4
(I0
tS'b'
tRp795
(I1
(I1
I1
tg7
I00
S'C4tq{\x99\xf8?'
tbsS'GTEX-X4EP'
p796
g3
(g4
(I0
tS'b'
tRp797
(I1
(I1
I1
tg7
I00
S'\xe5\xfc\x18\x8fP\xf9\t\xc0'
tbsS'GTEX-YB5E'
p798
g3
(g4
(I0
tS'b'
tRp799
(I1
(I1
I1
tg7
I00
S'\xc4\x1e\x15S\xc3\xaa\xda?'
tbsS'GTEX-RU1J'
p800
g3
(g4
(I0
tS'b'
tRp801
(I1
(I1
I1
tg7
I00
S'\xe6\xc5\x0c.\xb8\x8c\xfe\xbf'
tbsS'GTEX-11GSP'
p802
g3
(g4
(I0
tS'b'
tRp803
(I1
(I1
I1
tg7
I00
S'\x82\x96\x96\x1eR\xdd\x04@'
tbsS'GTEX-11GSO'
p804
g3
(g4
(I0
tS'b'
tRp805
(I1
(I1
I1
tg7
I00
S'\x89\x7fL\xe6\xa5\xd9\x02@'
tbsS'GTEX-12ZZY'
p806
g3
(g4
(I0
tS'b'
tRp807
(I1
(I1
I1
tg7
I00
S'~.f\x81n\xf0\x06@'
tbsS'GTEX-11UD2'
p808
g3
(g4
(I0
tS'b'
tRp809
(I1
(I1
I1
tg7
I00
S'\x98?`\x89\xc7\xf8\xd0?'
tbsS'GTEX-11PRG'
p810
g3
(g4
(I0
tS'b'
tRp811
(I1
(I1
I1
tg7
I00
S'\x8cC\xf0\xdd\xc4\xb8\x0f@'
tbsS'GTEX-SN8G'
p812
g3
(g4
(I0
tS'b'
tRp813
(I1
(I1
I1
tg7
I00
S'5\x90y\xf7<\xc1\xf8\xbf'
tbsS'GTEX-ZVP2'
p814
g3
(g4
(I0
tS'b'
tRp815
(I1
(I1
I1
tg7
I00
S'\x10 l\xc2\x1a^\xaf\xbf'
tbsS'GTEX-12ZZW'
p816
g3
(g4
(I0
tS'b'
tRp817
(I1
(I1
I1
tg7
I00
S'\x1a\x17\xe7/\xf6\xcb\xec\xbf'
tbsS'GTEX-13W3W'
p818
g3
(g4
(I0
tS'b'
tRp819
(I1
(I1
I1
tg7
I00
S'\xdaMG7\x8cy\xdc\xbf'
tbsS'GTEX-S4Z8'
p820
g3
(g4
(I0
tS'b'
tRp821
(I1
(I1
I1
tg7
I00
S'\xdc\xe5\xcc\xc8\x99\xa3\xe0\xbf'
tbsS'GTEX-1211K'
p822
g3
(g4
(I0
tS'b'
tRp823
(I1
(I1
I1
tg7
I00
S'\xa1605T\x05\xc2?'
tbsS'GTEX-ZG7Y'
p824
g3
(g4
(I0
tS'b'
tRp825
(I1
(I1
I1
tg7
I00
S'\xeb\xf4\xab\xfc\xb5\xf6\x07\xc0'
tbsS'GTEX-ZA64'
p826
g3
(g4
(I0
tS'b'
tRp827
(I1
(I1
I1
tg7
I00
S'\xe0\xea&\x8a\x8e\xf0\xcb?'
tbsS'GTEX-QCQG'
p828
g3
(g4
(I0
tS'b'
tRp829
(I1
(I1
I1
tg7
I00
S'\x02\x00\xcb\xff\xa7:\xb3\xbf'
tbsS'GTEX-11DYG'
p830
g3
(g4
(I0
tS'b'
tRp831
(I1
(I1
I1
tg7
I00
S'\xb4\x0f\xae\xc98\xe4\x0c@'
tbsS'GTEX-S95S'
p832
g3
(g4
(I0
tS'b'
tRp833
(I1
(I1
I1
tg7
I00
S'\xd7\xf0\xb8\x14T\x16\xe3\xbf'
tbsS'GTEX-Y5V6'
p834
g3
(g4
(I0
tS'b'
tRp835
(I1
(I1
I1
tg7
I00
S'@\n\t\xbb\x9d\x1d\xf3\xbf'
tbsS'GTEX-Y5V5'
p836
g3
(g4
(I0
tS'b'
tRp837
(I1
(I1
I1
tg7
I00
S'\xf6x\xbf\xec\x00\xde\xec?'
tbsS'GTEX-11GS4'
p838
g3
(g4
(I0
tS'b'
tRp839
(I1
(I1
I1
tg7
I00
S'\x80\x8fz\x07E\x07\x0e@'
tbsS'GTEX-QDT8'
p840
g3
(g4
(I0
tS'b'
tRp841
(I1
(I1
I1
tg7
I00
S'\xf8C\xb1\x81\xd8\xab\xb0?'
tbsS'GTEX-QXCU'
p842
g3
(g4
(I0
tS'b'
tRp843
(I1
(I1
I1
tg7
I00
S'\x14\xfb\x1c\xefx\xfa\r@'
tbsS'GTEX-YBZK'
p844
g3
(g4
(I0
tS'b'
tRp845
(I1
(I1
I1
tg7
I00
S'\x16\xb1\x93\xbd\xcd\xe4\xc9\xbf'
tbsS'GTEX-SSA3'
p846
g3
(g4
(I0
tS'b'
tRp847
(I1
(I1
I1
tg7
I00
S'-\xd8\x83R"\xdc\xda?'
tbsS'GTEX-PX3G'
p848
g3
(g4
(I0
tS'b'
tRp849
(I1
(I1
I1
tg7
I00
S'\xe9\x1e8t\x1e\xd7\x01@'
tbsS'GTEX-13O3P'
p850
g3
(g4
(I0
tS'b'
tRp851
(I1
(I1
I1
tg7
I00
S'my\x81!\xa2\xe5\x11\xc0'
tbsS'GTEX-V955'
p852
g3
(g4
(I0
tS'b'
tRp853
(I1
(I1
I1
tg7
I00
S'E\xe6\x11\xcf\xa7\xa9\t\xc0'
tbsS'GTEX-11TTK'
p854
g3
(g4
(I0
tS'b'
tRp855
(I1
(I1
I1
tg7
I00
S'C\xec*#O\x9d\xcb\xbf'
tbsS'GTEX-ZV7C'
p856
g3
(g4
(I0
tS'b'
tRp857
(I1
(I1
I1
tg7
I00
S'\xbb\x0f\xfbK\xf6\xe7\xc6?'
tbsS'GTEX-11ZVC'
p858
g3
(g4
(I0
tS'b'
tRp859
(I1
(I1
I1
tg7
I00
S'\x1eK\xc6M;P\x01@'
tbsS'GTEX-11EI6'
p860
g3
(g4
(I0
tS'b'
tRp861
(I1
(I1
I1
tg7
I00
S'\xb7\x92A0Eq\xe2?'
tbsS'GTEX-145MG'
p862
g3
(g4
(I0
tS'b'
tRp863
(I1
(I1
I1
tg7
I00
S'd\xfdH\xb1\x8bz\x03@'
tbsS'GTEX-11TT1'
p864
g3
(g4
(I0
tS'b'
tRp865
(I1
(I1
I1
tg7
I00
S'\xbb\xb4\xcc\xfd\xfa\x7f\x0c\xc0'
tbsS'GTEX-ZGAY'
p866
g3
(g4
(I0
tS'b'
tRp867
(I1
(I1
I1
tg7
I00
S'\x9aH\xf9\x85Q\xf1\x00@'
tbsS'GTEX-R45C'
p868
g3
(g4
(I0
tS'b'
tRp869
(I1
(I1
I1
tg7
I00
S'\xd5\x87a\x1a\xea\x84\xff\xbf'
tbsS'GTEX-XAJ8'
p870
g3
(g4
(I0
tS'b'
tRp871
(I1
(I1
I1
tg7
I00
S'\x98w\xe3\x14(P\x03\xc0'
tbsS'GTEX-YB5K'
p872
g3
(g4
(I0
tS'b'
tRp873
(I1
(I1
I1
tg7
I00
S'\x82P\xd8\xe7g\xfc\xe2\xbf'
tbsS'GTEX-RUSQ'
p874
g3
(g4
(I0
tS'b'
tRp875
(I1
(I1
I1
tg7
I00
S'\xb83\xc5\x94\x1c\xa8\x1d\xc0'
tbsS'GTEX-VJWN'
p876
g3
(g4
(I0
tS'b'
tRp877
(I1
(I1
I1
tg7
I00
S'\x00\xb6\xc4\x89\x8d\x1c\xbf\xbf'
tbsS'GTEX-U8XE'
p878
g3
(g4
(I0
tS'b'
tRp879
(I1
(I1
I1
tg7
I00
S'P\x8b\x1b\xcf\xc2f\n\xc0'
tbsS'GTEX-XQ8I'
p880
g3
(g4
(I0
tS'b'
tRp881
(I1
(I1
I1
tg7
I00
S'\xa1\xe7)\x90\\a\x06\xc0'
tbsS'GTEX-SNOS'
p882
g3
(g4
(I0
tS'b'
tRp883
(I1
(I1
I1
tg7
I00
S'\xde\xa3\x82\x02\xbc=\x03\xc0'
tbsS'GTEX-QV31'
p884
g3
(g4
(I0
tS'b'
tRp885
(I1
(I1
I1
tg7
I00
S'pM\x1d\xbf\x91\xe2\xda?'
tbsS'GTEX-S7SE'
p886
g3
(g4
(I0
tS'b'
tRp887
(I1
(I1
I1
tg7
I00
S'\xdf\xbe"t\x0b\xef\r@'
tbsS'GTEX-145MF'
p888
g3
(g4
(I0
tS'b'
tRp889
(I1
(I1
I1
tg7
I00
S'v%\x18\x8c\x7f\x8e\x06@'
tbsS'GTEX-S7SF'
p890
g3
(g4
(I0
tS'b'
tRp891
(I1
(I1
I1
tg7
I00
S'\x1c\xb7\xe6\xe7\x8e\x1a\xe7\xbf'
tbsS'GTEX-145MH'
p892
g3
(g4
(I0
tS'b'
tRp893
(I1
(I1
I1
tg7
I00
S'\x87\x00;\xa4mj\x07@'
tbsS'GTEX-WYJK'
p894
g3
(g4
(I0
tS'b'
tRp895
(I1
(I1
I1
tg7
I00
S'\x1a?\xce\x96\xc1\x8a\x9d\xbf'
tbsS'GTEX-145MO'
p896
g3
(g4
(I0
tS'b'
tRp897
(I1
(I1
I1
tg7
I00
S'\xb0gY\x8f\x03\x1b\xe5?'
tbs.