(dp1
S'GTEX-YJ89'
p2
cnumpy.core.multiarray
_reconstruct
p3
(cnumpy
ndarray
p4
(I0
tS'b'
tRp5
(I1
(I1
I1
tcnumpy
dtype
p6
(S'f8'
I0
I1
tRp7
(I3
S'<'
NNNI-1
I-1
I0
tbI00
S'\xb3:\xb5\xb5xz\xef?'
tbsS'GTEX-XPVG'
p8
g3
(g4
(I0
tS'b'
tRp9
(I1
(I1
I1
tg7
I00
S'I\x8f\x0bQ`\r\n\xc0'
tbsS'GTEX-TMMY'
p10
g3
(g4
(I0
tS'b'
tRp11
(I1
(I1
I1
tg7
I00
S'G\x82\xa9*R\x7f\x00\xc0'
tbsS'GTEX-WWYW'
p12
g3
(g4
(I0
tS'b'
tRp13
(I1
(I1
I1
tg7
I00
S'\xb9pC\xca/\x19\xee\xbf'
tbsS'GTEX-111FC'
p14
g3
(g4
(I0
tS'b'
tRp15
(I1
(I1
I1
tg7
I00
S'\x8d\x1aga\xbc\x93\x03\xc0'
tbsS'GTEX-139T8'
p16
g3
(g4
(I0
tS'b'
tRp17
(I1
(I1
I1
tg7
I00
S'\xc4(P\x13O\x99\xf7?'
tbsS'GTEX-139T6'
p18
g3
(g4
(I0
tS'b'
tRp19
(I1
(I1
I1
tg7
I00
S'C\xb9\xdd\xf0\x88\xe3\xd2\xbf'
tbsS'GTEX-13O1R'
p20
g3
(g4
(I0
tS'b'
tRp21
(I1
(I1
I1
tg7
I00
S'\xc6\x92\xfa\xf1\x93!\xed?'
tbsS'GTEX-TKQ1'
p22
g3
(g4
(I0
tS'b'
tRp23
(I1
(I1
I1
tg7
I00
S'\xf1\xe1\xfa\x1b\xe94\xf5?'
tbsS'GTEX-ZVE1'
p24
g3
(g4
(I0
tS'b'
tRp25
(I1
(I1
I1
tg7
I00
S'\xa5\xd9E\xa2\xe2\xe3\x12\xc0'
tbsS'GTEX-ZVE2'
p26
g3
(g4
(I0
tS'b'
tRp27
(I1
(I1
I1
tg7
I00
S'\xbe\x0c.\x969\xc5\n\xc0'
tbsS'GTEX-Q2AH'
p28
g3
(g4
(I0
tS'b'
tRp29
(I1
(I1
I1
tg7
I00
S'\x00\x867R\x0b.\xe9\xbf'
tbsS'GTEX-Q2AI'
p30
g3
(g4
(I0
tS'b'
tRp31
(I1
(I1
I1
tg7
I00
S'\x95\xc9\xc7i8\xd9\xdd?'
tbsS'GTEX-S32W'
p32
g3
(g4
(I0
tS'b'
tRp33
(I1
(I1
I1
tg7
I00
S'\x90\x0f\x8e\xf3\xcf\xae\xf6?'
tbsS'GTEX-ZEX8'
p34
g3
(g4
(I0
tS'b'
tRp35
(I1
(I1
I1
tg7
I00
S'\xe6\x90\xe3\xb2\xa2\xdb\x12@'
tbsS'GTEX-13D11'
p36
g3
(g4
(I0
tS'b'
tRp37
(I1
(I1
I1
tg7
I00
S'\xfcf\\i\x82n\xd9?'
tbsS'GTEX-WZTO'
p38
g3
(g4
(I0
tS'b'
tRp39
(I1
(I1
I1
tg7
I00
S'\xee\xa3\xa0J\x06\xd3\xd6\xbf'
tbsS'GTEX-139TU'
p40
g3
(g4
(I0
tS'b'
tRp41
(I1
(I1
I1
tg7
I00
S'\xe0\x9e\xb8\xf9N\xbe\x0b\xc0'
tbsS'GTEX-139TS'
p42
g3
(g4
(I0
tS'b'
tRp43
(I1
(I1
I1
tg7
I00
S'\xd1\xad~\xc4\x8d^\x05@'
tbsS'GTEX-ZF3C'
p44
g3
(g4
(I0
tS'b'
tRp45
(I1
(I1
I1
tg7
I00
S'\x18\x11i\xcdj\x08\x02\xc0'
tbsS'GTEX-XMK1'
p46
g3
(g4
(I0
tS'b'
tRp47
(I1
(I1
I1
tg7
I00
S'\xa7\xdb8.L\xe6\x07\xc0'
tbsS'GTEX-WHWD'
p48
g3
(g4
(I0
tS'b'
tRp49
(I1
(I1
I1
tg7
I00
S'\xc5c\x91\xfd#\\\x05\xc0'
tbsS'GTEX-1192W'
p50
g3
(g4
(I0
tS'b'
tRp51
(I1
(I1
I1
tg7
I00
S'\x9a\xe7(\xd5\xfc\x0f\xac?'
tbsS'GTEX-X4XX'
p52
g3
(g4
(I0
tS'b'
tRp53
(I1
(I1
I1
tg7
I00
S'\xdd\x0br\x06\xe0\xf8\xd8\xbf'
tbsS'GTEX-X4XY'
p54
g3
(g4
(I0
tS'b'
tRp55
(I1
(I1
I1
tg7
I00
S'\xf3\x88g@\xc3\x1e\xec\xbf'
tbsS'GTEX-13CZV'
p56
g3
(g4
(I0
tS'b'
tRp57
(I1
(I1
I1
tg7
I00
S'\xee\xe5\xb1\x94&3\x11\xc0'
tbsS'GTEX-1192X'
p58
g3
(g4
(I0
tS'b'
tRp59
(I1
(I1
I1
tg7
I00
S'\xfcS\xb0Eo\xba\xdf?'
tbsS'GTEX-T2YK'
p60
g3
(g4
(I0
tS'b'
tRp61
(I1
(I1
I1
tg7
I00
S'0\xb3\xaf\x88\xedV\xc5\xbf'
tbsS'GTEX-YJ8A'
p62
g3
(g4
(I0
tS'b'
tRp63
(I1
(I1
I1
tg7
I00
S'\x13\x00\x0c\xac\xb0H\xfd\xbf'
tbsS'GTEX-SIU8'
p64
g3
(g4
(I0
tS'b'
tRp65
(I1
(I1
I1
tg7
I00
S'\xc0\x07\xe5\x8e\xaeb\xa6\xbf'
tbsS'GTEX-QEG5'
p66
g3
(g4
(I0
tS'b'
tRp67
(I1
(I1
I1
tg7
I00
S'\xa4\x9e\x84\xb1\x0c\xc1\xf0?'
tbsS'GTEX-QEG4'
p68
g3
(g4
(I0
tS'b'
tRp69
(I1
(I1
I1
tg7
I00
S'f\xdd!S\x17\xcf\x01@'
tbsS'GTEX-SIU7'
p70
g3
(g4
(I0
tS'b'
tRp71
(I1
(I1
I1
tg7
I00
S'\x12\x1f\xfa@9\x82\x03@'
tbsS'GTEX-WI4N'
p72
g3
(g4
(I0
tS'b'
tRp73
(I1
(I1
I1
tg7
I00
S'\xf0\rr\x8e?\xf4\xca?'
tbsS'GTEX-OXRL'
p74
g3
(g4
(I0
tS'b'
tRp75
(I1
(I1
I1
tg7
I00
S'\xe2\x91s\x10\xd2\\\xef?'
tbsS'GTEX-OXRO'
p76
g3
(g4
(I0
tS'b'
tRp77
(I1
(I1
I1
tg7
I00
S'\x9a<\x14\xfa\xda6\x1a\xc0'
tbsS'GTEX-OXRN'
p78
g3
(g4
(I0
tS'b'
tRp79
(I1
(I1
I1
tg7
I00
S'\xa2\xcb\xa4\xa0}R\x1a@'
tbsS'GTEX-OXRK'
p80
g3
(g4
(I0
tS'b'
tRp81
(I1
(I1
I1
tg7
I00
S'cC\xa2\x0e\x03\xd8\xd8\xbf'
tbsS'GTEX-X261'
p82
g3
(g4
(I0
tS'b'
tRp83
(I1
(I1
I1
tg7
I00
S'\x04\xf4\xbf\xa9\xfeC\x16\xc0'
tbsS'GTEX-UJMC'
p84
g3
(g4
(I0
tS'b'
tRp85
(I1
(I1
I1
tg7
I00
S'\xba\xe04Xa\x9f\xb5\xbf'
tbsS'GTEX-SJXC'
p86
g3
(g4
(I0
tS'b'
tRp87
(I1
(I1
I1
tg7
I00
S'\xa3\xfc\x8f|\x9c\xaa\x01@'
tbsS'GTEX-13VXU'
p88
g3
(g4
(I0
tS'b'
tRp89
(I1
(I1
I1
tg7
I00
S'\xaax@\x81\x1d\xfa\x03\xc0'
tbsS'GTEX-13VXT'
p90
g3
(g4
(I0
tS'b'
tRp91
(I1
(I1
I1
tg7
I00
S'\xa1\xac\xa4C2|\x02\xc0'
tbsS'GTEX-OIZH'
p92
g3
(g4
(I0
tS'b'
tRp93
(I1
(I1
I1
tg7
I00
S"'U\x81\xb9fZ\xca\xbf"
tbsS'GTEX-OIZI'
p94
g3
(g4
(I0
tS'b'
tRp95
(I1
(I1
I1
tg7
I00
S'\xab\xe7\xebh\x17\t\xfa\xbf'
tbsS'GTEX-ZAB5'
p96
g3
(g4
(I0
tS'b'
tRp97
(I1
(I1
I1
tg7
I00
S'\x80\x9f\x1b\xf6\xbeq\xe4\xbf'
tbsS'GTEX-ZAB4'
p98
g3
(g4
(I0
tS'b'
tRp99
(I1
(I1
I1
tg7
I00
S'%hv\xbe\xab\x00\xde\xbf'
tbsS'GTEX-OHPL'
p100
g3
(g4
(I0
tS'b'
tRp101
(I1
(I1
I1
tg7
I00
S'\x00YD\xe5\x0f)\xe3\xbf'
tbsS'GTEX-OIZG'
p102
g3
(g4
(I0
tS'b'
tRp103
(I1
(I1
I1
tg7
I00
S'&jTZ\x9f\xdb\t\xc0'
tbsS'GTEX-ZY6K'
p104
g3
(g4
(I0
tS'b'
tRp105
(I1
(I1
I1
tg7
I00
S'^\xc9\xb9L-\xd3\xf4\xbf'
tbsS'GTEX-11DXW'
p106
g3
(g4
(I0
tS'b'
tRp107
(I1
(I1
I1
tg7
I00
S'\x9e\x95\x008E\xc4\x10\xc0'
tbsS'GTEX-13CF2'
p108
g3
(g4
(I0
tS'b'
tRp109
(I1
(I1
I1
tg7
I00
S'\xcbUbA[\t\xe2\xbf'
tbsS'GTEX-13CF3'
p110
g3
(g4
(I0
tS'b'
tRp111
(I1
(I1
I1
tg7
I00
S'\x80\x14\xda\xba^y\xbb?'
tbsS'GTEX-11DXY'
p112
g3
(g4
(I0
tS'b'
tRp113
(I1
(I1
I1
tg7
I00
S'\xc8+\x91\xdc5?\xfc\xbf'
tbsS'GTEX-11DXX'
p114
g3
(g4
(I0
tS'b'
tRp115
(I1
(I1
I1
tg7
I00
S'\xcfI">\x12\x92\xe9?'
tbsS'GTEX-11DXZ'
p116
g3
(g4
(I0
tS'b'
tRp117
(I1
(I1
I1
tg7
I00
S'\x1f\xf5E\xdba\xa6\x10@'
tbsS'GTEX-13S7M'
p118
g3
(g4
(I0
tS'b'
tRp119
(I1
(I1
I1
tg7
I00
S'Y9\xce[c\x92\xc1\xbf'
tbsS'GTEX-WOFL'
p120
g3
(g4
(I0
tS'b'
tRp121
(I1
(I1
I1
tg7
I00
S'\x04\xe0\xdb\x8bo\x03\xf8?'
tbsS'GTEX-WOFM'
p122
g3
(g4
(I0
tS'b'
tRp123
(I1
(I1
I1
tg7
I00
S'\xee\x8f\xfe\x08\xc3\xc1\x1c@'
tbsS'GTEX-XUZC'
p124
g3
(g4
(I0
tS'b'
tRp125
(I1
(I1
I1
tg7
I00
S'\xf2Y\xa4)\xf5k\xca?'
tbsS'GTEX-ZDTS'
p126
g3
(g4
(I0
tS'b'
tRp127
(I1
(I1
I1
tg7
I00
S'\xea\xbb\xc3\x06\xe6h\xf6?'
tbsS'GTEX-ZDTT'
p128
g3
(g4
(I0
tS'b'
tRp129
(I1
(I1
I1
tg7
I00
S'6A\xf4\xe0\xb5\x83\x02\xc0'
tbsS'GTEX-PWN1'
p130
g3
(g4
(I0
tS'b'
tRp131
(I1
(I1
I1
tg7
I00
S'\xd1\x9c\tf\x10\x16\x12\xc0'
tbsS'GTEX-N7MS'
p132
g3
(g4
(I0
tS'b'
tRp133
(I1
(I1
I1
tg7
I00
S'\xd3u]\xb2$\xde\xf0?'
tbsS'GTEX-N7MT'
p134
g3
(g4
(I0
tS'b'
tRp135
(I1
(I1
I1
tg7
I00
S'\xe8\xdc[\x9a\x1c\xeb\xf9\xbf'
tbsS'GTEX-W5WG'
p136
g3
(g4
(I0
tS'b'
tRp137
(I1
(I1
I1
tg7
I00
S'\xe1\x8fk^r\x9d\xee?'
tbsS'GTEX-XYKS'
p138
g3
(g4
(I0
tS'b'
tRp139
(I1
(I1
I1
tg7
I00
S'z\xe0\xd7\xca\x80\x1c\x00\xc0'
tbsS'GTEX-NPJ7'
p140
g3
(g4
(I0
tS'b'
tRp141
(I1
(I1
I1
tg7
I00
S'\x10\xf8`\x03Wh\xed?'
tbsS'GTEX-13RTK'
p142
g3
(g4
(I0
tS'b'
tRp143
(I1
(I1
I1
tg7
I00
S'\xa4/\x80\xac\xb8+\xe9?'
tbsS'GTEX-13RTJ'
p144
g3
(g4
(I0
tS'b'
tRp145
(I1
(I1
I1
tg7
I00
S't\x83\x04\xae@\xd0\n\xc0'
tbsS'GTEX-O5YT'
p146
g3
(g4
(I0
tS'b'
tRp147
(I1
(I1
I1
tg7
I00
S'\xbc\xd2\xd2\xa4\xae[\xe6?'
tbsS'GTEX-O5YW'
p148
g3
(g4
(I0
tS'b'
tRp149
(I1
(I1
I1
tg7
I00
S'\x87\x98\xa3U\xd7\xb3\xf2?'
tbsS'GTEX-O5YV'
p150
g3
(g4
(I0
tS'b'
tRp151
(I1
(I1
I1
tg7
I00
S'\xfa,I\x8f\xbc\xdf\xf0?'
tbsS'GTEX-WL46'
p152
g3
(g4
(I0
tS'b'
tRp153
(I1
(I1
I1
tg7
I00
S'\xe4"\xcfsI\xff\x0b@'
tbsS'GTEX-NPJ8'
p154
g3
(g4
(I0
tS'b'
tRp155
(I1
(I1
I1
tg7
I00
S'\xfe\xdd\xb2\xdc\xd1\xa4\xf4\xbf'
tbsS'GTEX-Q2AG'
p156
g3
(g4
(I0
tS'b'
tRp157
(I1
(I1
I1
tg7
I00
S'U\xbfb\xd1Oo\xf6\xbf'
tbsS'GTEX-11EM3'
p158
g3
(g4
(I0
tS'b'
tRp159
(I1
(I1
I1
tg7
I00
S'\xbcE5>Q~\x03\xc0'
tbsS'GTEX-Q734'
p160
g3
(g4
(I0
tS'b'
tRp161
(I1
(I1
I1
tg7
I00
S'\xb1Y3\x1cb\x0e\x06\xc0'
tbsS'GTEX-11EMC'
p162
g3
(g4
(I0
tS'b'
tRp163
(I1
(I1
I1
tg7
I00
S'@&\x0c]^\x97\xdd?'
tbsS'GTEX-13N11'
p164
g3
(g4
(I0
tS'b'
tRp165
(I1
(I1
I1
tg7
I00
S'\x0c\x10\xfd\xa2\xe4]\x07@'
tbsS'GTEX-1128S'
p166
g3
(g4
(I0
tS'b'
tRp167
(I1
(I1
I1
tg7
I00
S'\xf6[&\xe8\xdd\x1b\xfa?'
tbsS'GTEX-WHSE'
p168
g3
(g4
(I0
tS'b'
tRp169
(I1
(I1
I1
tg7
I00
S'\xf1\xec[=|\xf3\x11@'
tbsS'GTEX-WHSB'
p170
g3
(g4
(I0
tS'b'
tRp171
(I1
(I1
I1
tg7
I00
S'\xb8\xbe\xd8\x8e\x00\xbd\xe8?'
tbsS'GTEX-133LE'
p172
g3
(g4
(I0
tS'b'
tRp173
(I1
(I1
I1
tg7
I00
S')\xc9\xcb\x8bZ\x9e\x0c@'
tbsS'GTEX-NL4W'
p174
g3
(g4
(I0
tS'b'
tRp175
(I1
(I1
I1
tg7
I00
S'gI\xfe\xb6\xfe\xba\x06@'
tbsS'GTEX-SUCS'
p176
g3
(g4
(I0
tS'b'
tRp177
(I1
(I1
I1
tg7
I00
S'\xe6\xc9\xdb\xb3m\x85\x05\xc0'
tbsS'GTEX-13QIC'
p178
g3
(g4
(I0
tS'b'
tRp179
(I1
(I1
I1
tg7
I00
S'\x002\xb6q\xc7\x05b\xbf'
tbsS'GTEX-ZYY3'
p180
g3
(g4
(I0
tS'b'
tRp181
(I1
(I1
I1
tg7
I00
S'P~N\xadT\x01\xb3\xbf'
tbsS'GTEX-WYBS'
p182
g3
(g4
(I0
tS'b'
tRp183
(I1
(I1
I1
tg7
I00
S'\x90\x06\x85\x14\xd1#\xf8\xbf'
tbsS'GTEX-Y3I4'
p184
g3
(g4
(I0
tS'b'
tRp185
(I1
(I1
I1
tg7
I00
S'8\x1b~D\x9f\x9e\xe6\xbf'
tbsS'GTEX-13O21'
p186
g3
(g4
(I0
tS'b'
tRp187
(I1
(I1
I1
tg7
I00
S'\xd9\x9e\xfc\x86\x0f1\xe4\xbf'
tbsS'GTEX-PVOW'
p188
g3
(g4
(I0
tS'b'
tRp189
(I1
(I1
I1
tg7
I00
S'X\xa3m%\xf9\xab\xf6\xbf'
tbsS'GTEX-13QBU'
p190
g3
(g4
(I0
tS'b'
tRp191
(I1
(I1
I1
tg7
I00
S'\xe4F\xdd\xc7)\xdc\xed?'
tbsS'GTEX-QEL4'
p192
g3
(g4
(I0
tS'b'
tRp193
(I1
(I1
I1
tg7
I00
S'\xe0\xc2+\xed\x08B\xd5?'
tbsS'GTEX-X585'
p194
g3
(g4
(I0
tS'b'
tRp195
(I1
(I1
I1
tg7
I00
S'\xe7( \x15\x80\xdc\x05\xc0'
tbsS'GTEX-11VI4'
p196
g3
(g4
(I0
tS'b'
tRp197
(I1
(I1
I1
tg7
I00
S'\x9a\x96\xad\x86\xfd\xd2\xfd\xbf'
tbsS'GTEX-NL3G'
p198
g3
(g4
(I0
tS'b'
tRp199
(I1
(I1
I1
tg7
I00
S'\xe1\x9b\x04w\x0c\x14\x11\xc0'
tbsS'GTEX-NL3H'
p200
g3
(g4
(I0
tS'b'
tRp201
(I1
(I1
I1
tg7
I00
S'\x1d\x8bui\xdc\x8f\xfb?'
tbsS'GTEX-139TT'
p202
g3
(g4
(I0
tS'b'
tRp203
(I1
(I1
I1
tg7
I00
S'\xe6vZ\xd1\x95\xec\xde?'
tbsS'GTEX-XUYS'
p204
g3
(g4
(I0
tS'b'
tRp205
(I1
(I1
I1
tg7
I00
S'\x081\x1c\xd9S\x99\x04\xc0'
tbsS'GTEX-P4QT'
p206
g3
(g4
(I0
tS'b'
tRp207
(I1
(I1
I1
tg7
I00
S'Z\xc54\x92\x01\xf7\x06@'
tbsS'GTEX-WYVS'
p208
g3
(g4
(I0
tS'b'
tRp209
(I1
(I1
I1
tg7
I00
S'uv|\x98\x15\x88\x10\xc0'
tbsS'GTEX-ZVZP'
p210
g3
(g4
(I0
tS'b'
tRp211
(I1
(I1
I1
tg7
I00
S'\xc4\xfc\xaa\x83(\xaa\xf1\xbf'
tbsS'GTEX-ZVZQ'
p212
g3
(g4
(I0
tS'b'
tRp213
(I1
(I1
I1
tg7
I00
S'\x9e_\x04\xfbH\xfc\x10@'
tbsS'GTEX-P4QS'
p214
g3
(g4
(I0
tS'b'
tRp215
(I1
(I1
I1
tg7
I00
S'\x89H\xad\n\xc5\x17\x01@'
tbsS'GTEX-P4QR'
p216
g3
(g4
(I0
tS'b'
tRp217
(I1
(I1
I1
tg7
I00
S'\xe6q\x1eH7\xe3\xd4\xbf'
tbsS'GTEX-ZVZO'
p218
g3
(g4
(I0
tS'b'
tRp219
(I1
(I1
I1
tg7
I00
S'(\rV\xef\x0c\x7f\x0c\xc0'
tbsS'GTEX-13SLX'
p220
g3
(g4
(I0
tS'b'
tRp221
(I1
(I1
I1
tg7
I00
S'\xe7\xc8$NB\x08\x0f\xc0'
tbsS'GTEX-13FXS'
p222
g3
(g4
(I0
tS'b'
tRp223
(I1
(I1
I1
tg7
I00
S"\x9d\x8fh\x87'\xe3\xb1\xbf"
tbsS'GTEX-X3Y1'
p224
g3
(g4
(I0
tS'b'
tRp225
(I1
(I1
I1
tg7
I00
S'\xf1;\xb1\x0c\x06a\xe5?'
tbsS'GTEX-SE5C'
p226
g3
(g4
(I0
tS'b'
tRp227
(I1
(I1
I1
tg7
I00
S'\xfcS\x0e\x07\x04\xb9\r\xc0'
tbsS'GTEX-OHPK'
p228
g3
(g4
(I0
tS'b'
tRp229
(I1
(I1
I1
tg7
I00
S'1\xe3\xd9!\x88Z\xfa?'
tbsS'GTEX-Y3IK'
p230
g3
(g4
(I0
tS'b'
tRp231
(I1
(I1
I1
tg7
I00
S'\xe5\x9b\xe5\xbd\xdcy\x01@'
tbsS'GTEX-ZF2S'
p232
g3
(g4
(I0
tS'b'
tRp233
(I1
(I1
I1
tg7
I00
S'\x17\x19\xe5\x08\xf4w\xd5\xbf'
tbsS'GTEX-111YS'
p234
g3
(g4
(I0
tS'b'
tRp235
(I1
(I1
I1
tg7
I00
S'd\x0e\x1d\xce\xeb\xaf\x0f@'
tbsS'GTEX-139UW'
p236
g3
(g4
(I0
tS'b'
tRp237
(I1
(I1
I1
tg7
I00
S'\xaev\x12.\xd0\x94\n\xc0'
tbsS'GTEX-U3ZG'
p238
g3
(g4
(I0
tS'b'
tRp239
(I1
(I1
I1
tg7
I00
S'\x97G\x87\xef+\xf2\x0c@'
tbsS'GTEX-U3ZM'
p240
g3
(g4
(I0
tS'b'
tRp241
(I1
(I1
I1
tg7
I00
S'E\xb5\xa6^T\xfe\x05\xc0'
tbsS'GTEX-U3ZN'
p242
g3
(g4
(I0
tS'b'
tRp243
(I1
(I1
I1
tg7
I00
S'~m\xc3\xafly\xd2?'
tbsS'GTEX-ZV6S'
p244
g3
(g4
(I0
tS'b'
tRp245
(I1
(I1
I1
tg7
I00
S'h\xdd@\x14)\x11\x10\xc0'
tbsS'GTEX-U3ZH'
p246
g3
(g4
(I0
tS'b'
tRp247
(I1
(I1
I1
tg7
I00
S'w\x0f`\xc3Z\x96\xc3?'
tbsS'GTEX-RTLS'
p248
g3
(g4
(I0
tS'b'
tRp249
(I1
(I1
I1
tg7
I00
S'|\x0b`\xf4\xcaM\xe6?'
tbsS'GTEX-PWCY'
p250
g3
(g4
(I0
tS'b'
tRp251
(I1
(I1
I1
tg7
I00
S'V\x8f\x01l\xac\x8f\x0e\xc0'
tbsS'GTEX-P44H'
p252
g3
(g4
(I0
tS'b'
tRp253
(I1
(I1
I1
tg7
I00
S'u\xb5\x1ezq7\xee\xbf'
tbsS'GTEX-11WQK'
p254
g3
(g4
(I0
tS'b'
tRp255
(I1
(I1
I1
tg7
I00
S'A\x1d\x07\xa9Rw\xf2\xbf'
tbsS'GTEX-12696'
p256
g3
(g4
(I0
tS'b'
tRp257
(I1
(I1
I1
tg7
I00
S'g\x07I-\x0fy\xe9\xbf'
tbsS'GTEX-XUW1'
p258
g3
(g4
(I0
tS'b'
tRp259
(I1
(I1
I1
tg7
I00
S'\xc9/;c\x94\xe2\xd3?'
tbsS'GTEX-13JVG'
p260
g3
(g4
(I0
tS'b'
tRp261
(I1
(I1
I1
tg7
I00
S'\xab\x97K9\xd0\xc9\x08@'
tbsS'GTEX-XBEW'
p262
g3
(g4
(I0
tS'b'
tRp263
(I1
(I1
I1
tg7
I00
S'\x0b\xd9\xc3\xa0?\x9a\x07@'
tbsS'GTEX-WK11'
p264
g3
(g4
(I0
tS'b'
tRp265
(I1
(I1
I1
tg7
I00
S'DUw\x92\xb81\x06@'
tbsS'GTEX-XBEC'
p266
g3
(g4
(I0
tS'b'
tRp267
(I1
(I1
I1
tg7
I00
S'N\xee\xe8\xb5p\x0b\x02@'
tbsS'GTEX-XBED'
p268
g3
(g4
(I0
tS'b'
tRp269
(I1
(I1
I1
tg7
I00
S'\xfc\xb9\xd2m\x1f\xc0\xea\xbf'
tbsS'GTEX-ZDYS'
p270
g3
(g4
(I0
tS'b'
tRp271
(I1
(I1
I1
tg7
I00
S'\xb7\xcf\xc9\xbc\x14t\xfa\xbf'
tbsS'GTEX-X8HC'
p272
g3
(g4
(I0
tS'b'
tRp273
(I1
(I1
I1
tg7
I00
S'c\x1e\xf6\x87zt\x03\xc0'
tbsS'GTEX-ZF28'
p274
g3
(g4
(I0
tS'b'
tRp275
(I1
(I1
I1
tg7
I00
S'\x88\xf1m\x8e\xf1\x9b\x0f@'
tbsS'GTEX-ZF29'
p276
g3
(g4
(I0
tS'b'
tRp277
(I1
(I1
I1
tg7
I00
S';U\xe8@[o\x17@'
tbsS'GTEX-ZV68'
p278
g3
(g4
(I0
tS'b'
tRp279
(I1
(I1
I1
tg7
I00
S'J\xb2\x9as\x8a\x91\x17\xc0'
tbsS'GTEX-Y8LW'
p280
g3
(g4
(I0
tS'b'
tRp281
(I1
(I1
I1
tg7
I00
S'\n\xc6\xe6\x91\x1b\x84\x07\xc0'
tbsS'GTEX-13CIG'
p282
g3
(g4
(I0
tS'b'
tRp283
(I1
(I1
I1
tg7
I00
S'5\xa9\xff;\x82\xb7"@'
tbsS'GTEX-13O61'
p284
g3
(g4
(I0
tS'b'
tRp285
(I1
(I1
I1
tg7
I00
S'\xf0\xech\xb4\xcfx\xe3?'
tbsS'GTEX-12WSC'
p286
g3
(g4
(I0
tS'b'
tRp287
(I1
(I1
I1
tg7
I00
S'f\xd0\xc5\xe7^\xe2\x00\xc0'
tbsS'GTEX-12WSA'
p288
g3
(g4
(I0
tS'b'
tRp289
(I1
(I1
I1
tg7
I00
S'\xacM5S>w\x04@'
tbsS'GTEX-12WSF'
p290
g3
(g4
(I0
tS'b'
tRp291
(I1
(I1
I1
tg7
I00
S'\xe6\x1bf\xb9\xefu\x00@'
tbsS'GTEX-12WSG'
p292
g3
(g4
(I0
tS'b'
tRp293
(I1
(I1
I1
tg7
I00
S',E*i\x9b\xb0\x08@'
tbsS'GTEX-12WSD'
p294
g3
(g4
(I0
tS'b'
tRp295
(I1
(I1
I1
tg7
I00
S'\xec\xd3\xfa\x02\x81\xf4\t@'
tbsS'GTEX-12WSE'
p296
g3
(g4
(I0
tS'b'
tRp297
(I1
(I1
I1
tg7
I00
S'b\xa0\x98\x11\xbb/\x02\xc0'
tbsS'GTEX-12WSJ'
p298
g3
(g4
(I0
tS'b'
tRp299
(I1
(I1
I1
tg7
I00
S'7\x83=\xa6\x98i\x05@'
tbsS'GTEX-12WSK'
p300
g3
(g4
(I0
tS'b'
tRp301
(I1
(I1
I1
tg7
I00
S'\x8f\x87g,\xd5\xba\xfb?'
tbsS'GTEX-12WSH'
p302
g3
(g4
(I0
tS'b'
tRp303
(I1
(I1
I1
tg7
I00
S'3\xee\x08\x0c\x84?\x84?'
tbsS'GTEX-12WSI'
p304
g3
(g4
(I0
tS'b'
tRp305
(I1
(I1
I1
tg7
I00
S'V\xd6Q\x05\xda\xf9\x1e\xc0'
tbsS'GTEX-12WSN'
p306
g3
(g4
(I0
tS'b'
tRp307
(I1
(I1
I1
tg7
I00
S'\xfa\xc7\x94g\x17\t\x13\xc0'
tbsS'GTEX-12WSL'
p308
g3
(g4
(I0
tS'b'
tRp309
(I1
(I1
I1
tg7
I00
S'\xd1($>\x0f\x8b\x03@'
tbsS'GTEX-12WSM'
p310
g3
(g4
(I0
tS'b'
tRp311
(I1
(I1
I1
tg7
I00
S'\xeb:\x90\xed?\x83\xb8\xbf'
tbsS'GTEX-13N2G'
p312
g3
(g4
(I0
tS'b'
tRp313
(I1
(I1
I1
tg7
I00
S'\xe4\xdf1\x9e\xef\xc7\x00@'
tbsS'GTEX-X15G'
p314
g3
(g4
(I0
tS'b'
tRp315
(I1
(I1
I1
tg7
I00
S'\x97}\xf8\x13\xfb\x9f\xfc?'
tbsS'GTEX-YF7O'
p316
g3
(g4
(I0
tS'b'
tRp317
(I1
(I1
I1
tg7
I00
S'\x8f\xea\xdd\xf6\x86$\xfb?'
tbsS'GTEX-S4P3'
p318
g3
(g4
(I0
tS'b'
tRp319
(I1
(I1
I1
tg7
I00
S'\xd4\n3\xaa\\\x1a\xf8?'
tbsS'GTEX-X4LF'
p320
g3
(g4
(I0
tS'b'
tRp321
(I1
(I1
I1
tg7
I00
S'\xc9\xc7g\x9f\x82u\xfe?'
tbsS'GTEX-ZE7O'
p322
g3
(g4
(I0
tS'b'
tRp323
(I1
(I1
I1
tg7
I00
S'\xc7\xf9\xa3\xccz\xe7\x01\xc0'
tbsS'GTEX-ZQUD'
p324
g3
(g4
(I0
tS'b'
tRp325
(I1
(I1
I1
tg7
I00
S'\x8e\x8d\x07\x0f\xd2`\x16@'
tbsS'GTEX-ZQG8'
p326
g3
(g4
(I0
tS'b'
tRp327
(I1
(I1
I1
tg7
I00
S'\xc5\xfb\x02\xf0\t\xb6\xe8\xbf'
tbsS'GTEX-13SLW'
p328
g3
(g4
(I0
tS'b'
tRp329
(I1
(I1
I1
tg7
I00
S'[\x07\xbb\xddD\xde\xe8?'
tbsS'GTEX-WFG7'
p330
g3
(g4
(I0
tS'b'
tRp331
(I1
(I1
I1
tg7
I00
S'\xd0m\x0cZiI\xb6?'
tbsS'GTEX-WFG8'
p332
g3
(g4
(I0
tS'b'
tRp333
(I1
(I1
I1
tg7
I00
S'\xabW\xd0$\x1c\xb4\xe7\xbf'
tbsS'GTEX-RU72'
p334
g3
(g4
(I0
tS'b'
tRp335
(I1
(I1
I1
tg7
I00
S'\x90lL\x18A#\xf4\xbf'
tbsS'GTEX-13W46'
p336
g3
(g4
(I0
tS'b'
tRp337
(I1
(I1
I1
tg7
I00
S'\x92\xac\xa6KcR\xfa\xbf'
tbsS'GTEX-UPJH'
p338
g3
(g4
(I0
tS'b'
tRp339
(I1
(I1
I1
tg7
I00
S'\xba\xafn\xb6\xbe\xd3\x06@'
tbsS'GTEX-PW2O'
p340
g3
(g4
(I0
tS'b'
tRp341
(I1
(I1
I1
tg7
I00
S']\xdd__G\n\xfc?'
tbsS'GTEX-T8EM'
p342
g3
(g4
(I0
tS'b'
tRp343
(I1
(I1
I1
tg7
I00
S'\xc5\x89\x1b\xd02\xca\xf6\xbf'
tbsS'GTEX-XQ3S'
p344
g3
(g4
(I0
tS'b'
tRp345
(I1
(I1
I1
tg7
I00
S'\xff&"\xc8\xeb\xd7\xf5?'
tbsS'GTEX-ZPCL'
p346
g3
(g4
(I0
tS'b'
tRp347
(I1
(I1
I1
tg7
I00
S'\x91k\xc6\xb0`\x0b\x03@'
tbsS'GTEX-11ONC'
p348
g3
(g4
(I0
tS'b'
tRp349
(I1
(I1
I1
tg7
I00
S'\x88\xb4\xc8\x06)S\xc6\xbf'
tbsS'GTEX-QV44'
p350
g3
(g4
(I0
tS'b'
tRp351
(I1
(I1
I1
tg7
I00
S'\x0b\xfc\xed\xc5\x05\xa4\xd2?'
tbsS'GTEX-WHPG'
p352
g3
(g4
(I0
tS'b'
tRp353
(I1
(I1
I1
tg7
I00
S'M\x9b\xbf\x12\x03\xf7\xce\xbf'
tbsS'GTEX-T6MO'
p354
g3
(g4
(I0
tS'b'
tRp355
(I1
(I1
I1
tg7
I00
S'q\x1al\xf9c\xdc\xe4?'
tbsS'GTEX-T6MN'
p356
g3
(g4
(I0
tS'b'
tRp357
(I1
(I1
I1
tg7
I00
S'\r\x0e\xde\x94Ui\x01\xc0'
tbsS'GTEX-XXEK'
p358
g3
(g4
(I0
tS'b'
tRp359
(I1
(I1
I1
tg7
I00
S'4\xb8\xe9D\x96\\\xaa?'
tbsS'GTEX-ZTTD'
p360
g3
(g4
(I0
tS'b'
tRp361
(I1
(I1
I1
tg7
I00
S'\x9eD\xe1z\x018\xd8?'
tbsS'GTEX-ZUA1'
p362
g3
(g4
(I0
tS'b'
tRp363
(I1
(I1
I1
tg7
I00
S'+u\x9d\xd5@\x10\xee?'
tbsS'GTEX-OXRP'
p364
g3
(g4
(I0
tS'b'
tRp365
(I1
(I1
I1
tg7
I00
S'\x9fl\xf8\xe9u\x81\xf9\xbf'
tbsS'GTEX-13OVL'
p366
g3
(g4
(I0
tS'b'
tRp367
(I1
(I1
I1
tg7
I00
S'q\x90\xd4\x9f\x1cA\x03@'
tbsS'GTEX-13OVJ'
p368
g3
(g4
(I0
tS'b'
tRp369
(I1
(I1
I1
tg7
I00
S'Hj\x95\x9a04\xfb?'
tbsS'GTEX-13OVH'
p370
g3
(g4
(I0
tS'b'
tRp371
(I1
(I1
I1
tg7
I00
S')L\xde\xc2Lh\x03@'
tbsS'GTEX-13OVI'
p372
g3
(g4
(I0
tS'b'
tRp373
(I1
(I1
I1
tg7
I00
S'{\x9d\xa7\xc1\xc7\xa4\xf3\xbf'
tbsS'GTEX-13OVG'
p374
g3
(g4
(I0
tS'b'
tRp375
(I1
(I1
I1
tg7
I00
S'K\xa5\xf9\x03zj\xc0\xbf'
tbsS'GTEX-113IC'
p376
g3
(g4
(I0
tS'b'
tRp377
(I1
(I1
I1
tg7
I00
S'D\xc9hj\x80B\x15@'
tbsS'GTEX-XLM4'
p378
g3
(g4
(I0
tS'b'
tRp379
(I1
(I1
I1
tg7
I00
S'oQ\x8c{!G\xf6?'
tbsS'GTEX-13JUV'
p380
g3
(g4
(I0
tS'b'
tRp381
(I1
(I1
I1
tg7
I00
S'[\x87\xda\xe7u\x14\xab?'
tbsS'GTEX-PLZ5'
p382
g3
(g4
(I0
tS'b'
tRp383
(I1
(I1
I1
tg7
I00
S'\xed\x06\xba\xf5\xe6f\xf8\xbf'
tbsS'GTEX-PLZ6'
p384
g3
(g4
(I0
tS'b'
tRp385
(I1
(I1
I1
tg7
I00
S'\x91\xe1;#1\x0f\xea\xbf'
tbsS'GTEX-ZZPT'
p386
g3
(g4
(I0
tS'b'
tRp387
(I1
(I1
I1
tg7
I00
S'\xdd\x80\xb2\xbam:\x08@'
tbsS'GTEX-ZZPU'
p388
g3
(g4
(I0
tS'b'
tRp389
(I1
(I1
I1
tg7
I00
S'0Qt\xd0(\xe1\x0f@'
tbsS'GTEX-ZXES'
p390
g3
(g4
(I0
tS'b'
tRp391
(I1
(I1
I1
tg7
I00
S'\xe7\x87\x9e\xba\\\xdd\xe3\xbf'
tbsS'GTEX-TSE9'
p392
g3
(g4
(I0
tS'b'
tRp393
(I1
(I1
I1
tg7
I00
S'\x91D\x92ck\n\x01\xc0'
tbsS'GTEX-ZC5H'
p394
g3
(g4
(I0
tS'b'
tRp395
(I1
(I1
I1
tg7
I00
S'-\xc0PI\x13M\xf5?'
tbsS'GTEX-QDVN'
p396
g3
(g4
(I0
tS'b'
tRp397
(I1
(I1
I1
tg7
I00
S'\xbe\\\xd5\x08\xbe\xad\x0c\xc0'
tbsS'GTEX-QDVJ'
p398
g3
(g4
(I0
tS'b'
tRp399
(I1
(I1
I1
tg7
I00
S'\xb4\xffuwE\x87\xfc?'
tbsS'GTEX-P4PP'
p400
g3
(g4
(I0
tS'b'
tRp401
(I1
(I1
I1
tg7
I00
S'\xaf\xa8\xbb\x1a\x8f\x9a\xe1\xbf'
tbsS'GTEX-P4PQ'
p402
g3
(g4
(I0
tS'b'
tRp403
(I1
(I1
I1
tg7
I00
S'P\x9b\x01\xaf\x1e\x9a\xfb\xbf'
tbsS'GTEX-S4UY'
p404
g3
(g4
(I0
tS'b'
tRp405
(I1
(I1
I1
tg7
I00
S'\xf2\xab\x86\x1bc[\x05@'
tbsS'GTEX-S341'
p406
g3
(g4
(I0
tS'b'
tRp407
(I1
(I1
I1
tg7
I00
S'\xb4\x96\x84\xc7\xf5`\xf2?'
tbsS'GTEX-11UD1'
p408
g3
(g4
(I0
tS'b'
tRp409
(I1
(I1
I1
tg7
I00
S'\xaa\x87<\xf5e\xc5\x03@'
tbsS'GTEX-13FHO'
p410
g3
(g4
(I0
tS'b'
tRp411
(I1
(I1
I1
tg7
I00
S'~\x98\x02K\xd5\xea\xf7\xbf'
tbsS'GTEX-13O3O'
p412
g3
(g4
(I0
tS'b'
tRp413
(I1
(I1
I1
tg7
I00
S'\x1b\x9e\xd91<\xfc\xfc\xbf'
tbsS'GTEX-13O3Q'
p414
g3
(g4
(I0
tS'b'
tRp415
(I1
(I1
I1
tg7
I00
S'\x14}\xde4*\x0e\xf8\xbf'
tbsS'GTEX-13O3P'
p416
g3
(g4
(I0
tS'b'
tRp417
(I1
(I1
I1
tg7
I00
S'Q\x01\xcc"#\x90\xf9\xbf'
tbsS'GTEX-ZYWO'
p418
g3
(g4
(I0
tS'b'
tRp419
(I1
(I1
I1
tg7
I00
S'\xc2*sz\xa0 \xde\xbf'
tbsS'GTEX-X638'
p420
g3
(g4
(I0
tS'b'
tRp421
(I1
(I1
I1
tg7
I00
S'\x18qD\t\x01\x1a\xfe?'
tbsS'GTEX-13111'
p422
g3
(g4
(I0
tS'b'
tRp423
(I1
(I1
I1
tg7
I00
S'\x18\x16\xcf$\x16-\xd7\xbf'
tbsS'GTEX-13113'
p424
g3
(g4
(I0
tS'b'
tRp425
(I1
(I1
I1
tg7
I00
S'\x97\x01\xffD\xcb\xca\x12\xc0'
tbsS'GTEX-13112'
p426
g3
(g4
(I0
tS'b'
tRp427
(I1
(I1
I1
tg7
I00
S'\x8b3\xe5\x00\x91\x87\x0e@'
tbsS'GTEX-POMQ'
p428
g3
(g4
(I0
tS'b'
tRp429
(I1
(I1
I1
tg7
I00
S'\x1a\xc5\xdf\xb4\x99\x99\xee\xbf'
tbsS'GTEX-PWOO'
p430
g3
(g4
(I0
tS'b'
tRp431
(I1
(I1
I1
tg7
I00
S'\x92\xd54Y\xc9B\xf2?'
tbsS'GTEX-ZT9W'
p432
g3
(g4
(I0
tS'b'
tRp433
(I1
(I1
I1
tg7
I00
S'\xe5\x9e9\xc6\x1cf\xe7?'
tbsS'GTEX-ZT9X'
p434
g3
(g4
(I0
tS'b'
tRp435
(I1
(I1
I1
tg7
I00
S'\xd0\xf8\x8b\xfew\n\xfc?'
tbsS'GTEX-RNOR'
p436
g3
(g4
(I0
tS'b'
tRp437
(I1
(I1
I1
tg7
I00
S'\xe7\xfb\xd7#\xee@\xf4?'
tbsS'GTEX-REY6'
p438
g3
(g4
(I0
tS'b'
tRp439
(I1
(I1
I1
tg7
I00
S'\xd7\xdf\x124\x1b\xbe\xfa?'
tbsS'GTEX-111CU'
p440
g3
(g4
(I0
tS'b'
tRp441
(I1
(I1
I1
tg7
I00
S'\xce\xdbf\x08-F\xd5?'
tbsS'GTEX-XGQ4'
p442
g3
(g4
(I0
tS'b'
tRp443
(I1
(I1
I1
tg7
I00
S'\\#\xd4\xba\xbb\xc6\xda\xbf'
tbsS'GTEX-WFJO'
p444
g3
(g4
(I0
tS'b'
tRp445
(I1
(I1
I1
tg7
I00
S"\xed\xfb\x18'\x14\x9f\xf8\xbf"
tbsS'GTEX-VUSH'
p446
g3
(g4
(I0
tS'b'
tRp447
(I1
(I1
I1
tg7
I00
S'Xa\xb9=\xb7\xaf\x16@'
tbsS'GTEX-XPT6'
p448
g3
(g4
(I0
tS'b'
tRp449
(I1
(I1
I1
tg7
I00
S'\xca\x9e\x05\xc1\x9c\xa0\xea\xbf'
tbsS'GTEX-VUSG'
p450
g3
(g4
(I0
tS'b'
tRp451
(I1
(I1
I1
tg7
I00
S'\xe3\x93\x88\xb7P.\x05@'
tbsS'GTEX-TKQ2'
p452
g3
(g4
(I0
tS'b'
tRp453
(I1
(I1
I1
tg7
I00
S'\xb6\xdarU\xcb\xa0\xf3?'
tbsS'GTEX-11NV4'
p454
g3
(g4
(I0
tS'b'
tRp455
(I1
(I1
I1
tg7
I00
S'\xdf\xe0yi\xaa\x1a\x13@'
tbsS'GTEX-Y8DK'
p456
g3
(g4
(I0
tS'b'
tRp457
(I1
(I1
I1
tg7
I00
S'\x01MK\xce\x8a\x9f\xf3?'
tbsS'GTEX-ZLFU'
p458
g3
(g4
(I0
tS'b'
tRp459
(I1
(I1
I1
tg7
I00
S'\xd6\x1f\xe2w\xea2\xe0\xbf'
tbsS'GTEX-139YR'
p460
g3
(g4
(I0
tS'b'
tRp461
(I1
(I1
I1
tg7
I00
S'9\x05?\x7fn%\x06\xc0'
tbsS'GTEX-YECK'
p462
g3
(g4
(I0
tS'b'
tRp463
(I1
(I1
I1
tg7
I00
S'0\xe1\xb0,D\t\xf7?'
tbsS'GTEX-13G51'
p464
g3
(g4
(I0
tS'b'
tRp465
(I1
(I1
I1
tg7
I00
S'Z\x1d\x10\x1c\x8a\xe0\xff\xbf'
tbsS'GTEX-ZLV1'
p466
g3
(g4
(I0
tS'b'
tRp467
(I1
(I1
I1
tg7
I00
S'\xec&\xbd;%-\xf1?'
tbsS'GTEX-13QJ3'
p468
g3
(g4
(I0
tS'b'
tRp469
(I1
(I1
I1
tg7
I00
S'V\xe2k\x87\xd2\xb0\x0e\xc0'
tbsS'GTEX-T2IS'
p470
g3
(g4
(I0
tS'b'
tRp471
(I1
(I1
I1
tg7
I00
S'\x94\xc4\xcd\xbdx\x9e\xb9\xbf'
tbsS'GTEX-ZDXO'
p472
g3
(g4
(I0
tS'b'
tRp473
(I1
(I1
I1
tg7
I00
S'\xdeuV0o\xf9\x08\xc0'
tbsS'GTEX-WY7C'
p474
g3
(g4
(I0
tS'b'
tRp475
(I1
(I1
I1
tg7
I00
S'\xb6>\x8e\xdf]{\xdc\xbf'
tbsS'GTEX-PLZ4'
p476
g3
(g4
(I0
tS'b'
tRp477
(I1
(I1
I1
tg7
I00
S'\xd7\xbd\xd6B\x81\xfc\xe6\xbf'
tbsS'GTEX-13QJC'
p478
g3
(g4
(I0
tS'b'
tRp479
(I1
(I1
I1
tg7
I00
S'n\r\x0b\x9e\x83\xfe\xa9\xbf'
tbsS'GTEX-11WQC'
p480
g3
(g4
(I0
tS'b'
tRp481
(I1
(I1
I1
tg7
I00
S'\xa3\xb6\xd5\x8b:\xd5\xdd?'
tbsS'GTEX-YEC4'
p482
g3
(g4
(I0
tS'b'
tRp483
(I1
(I1
I1
tg7
I00
S"\xcaN'o\xa8~\x04@"
tbsS'GTEX-ZTPG'
p484
g3
(g4
(I0
tS'b'
tRp485
(I1
(I1
I1
tg7
I00
S'\x15\x98y$\xf9*\xf6\xbf'
tbsS'GTEX-YEC3'
p486
g3
(g4
(I0
tS'b'
tRp487
(I1
(I1
I1
tg7
I00
S'X\xce?\x86\x8bN\x08@'
tbsS'GTEX-T5JW'
p488
g3
(g4
(I0
tS'b'
tRp489
(I1
(I1
I1
tg7
I00
S'\x13\x1f\xddA\xf6.\xe4\xbf'
tbsS'GTEX-R53T'
p490
g3
(g4
(I0
tS'b'
tRp491
(I1
(I1
I1
tg7
I00
S'5@\xd1\xd6\xa3&\x13\xc0'
tbsS'GTEX-WQUQ'
p492
g3
(g4
(I0
tS'b'
tRp493
(I1
(I1
I1
tg7
I00
S'\xd1\xcf\xf2!\xfd~\xe1\xbf'
tbsS'GTEX-111VG'
p494
g3
(g4
(I0
tS'b'
tRp495
(I1
(I1
I1
tg7
I00
S'zjy\xff\x9fT\xf7\xbf'
tbsS'GTEX-NFK9'
p496
g3
(g4
(I0
tS'b'
tRp497
(I1
(I1
I1
tg7
I00
S'\xd7\xc9F#\xd7\xf8\xf5?'
tbsS'GTEX-T5JC'
p498
g3
(g4
(I0
tS'b'
tRp499
(I1
(I1
I1
tg7
I00
S'Z`\x81\x132\x01\xfb?'
tbsS'GTEX-RVPV'
p500
g3
(g4
(I0
tS'b'
tRp501
(I1
(I1
I1
tg7
I00
S'$w\xaf;\x1c5\x08\xc0'
tbsS'GTEX-RVPU'
p502
g3
(g4
(I0
tS'b'
tRp503
(I1
(I1
I1
tg7
I00
S'Z\xf5\xd3|\xb7\x9b\xf4\xbf'
tbsS'GTEX-UTHO'
p504
g3
(g4
(I0
tS'b'
tRp505
(I1
(I1
I1
tg7
I00
S'\x85\x8d\xda0N\xb6\x03@'
tbsS'GTEX-11LCK'
p506
g3
(g4
(I0
tS'b'
tRp507
(I1
(I1
I1
tg7
I00
S'\x9cXM\x04?\x1c\xf8\xbf'
tbsS'GTEX-X88G'
p508
g3
(g4
(I0
tS'b'
tRp509
(I1
(I1
I1
tg7
I00
S'\xf5\xce-:\xd6I\xf3\xbf'
tbsS'GTEX-QLQW'
p510
g3
(g4
(I0
tS'b'
tRp511
(I1
(I1
I1
tg7
I00
S'\xd0V\xa6\xf6\x1eV\x08\xc0'
tbsS'GTEX-13PL7'
p512
g3
(g4
(I0
tS'b'
tRp513
(I1
(I1
I1
tg7
I00
S'#\xc0\x14\x07\xdb\xf7\xfc?'
tbsS'GTEX-13PL6'
p514
g3
(g4
(I0
tS'b'
tRp515
(I1
(I1
I1
tg7
I00
S'm\x96$\xf7%P\n\xc0'
tbsS'GTEX-11ZUS'
p516
g3
(g4
(I0
tS'b'
tRp517
(I1
(I1
I1
tg7
I00
S'\xc0!~H\xf3\x0c\xe9\xbf'
tbsS'GTEX-WFON'
p518
g3
(g4
(I0
tS'b'
tRp519
(I1
(I1
I1
tg7
I00
S'N9\xf8\x00A\x14\xf9\xbf'
tbsS'GTEX-QVUS'
p520
g3
(g4
(I0
tS'b'
tRp521
(I1
(I1
I1
tg7
I00
S'HkL\x84\xc4\xa5\xea\xbf'
tbsS'GTEX-U8T8'
p522
g3
(g4
(I0
tS'b'
tRp523
(I1
(I1
I1
tg7
I00
S'\xb5\xa5\x03"\xc4\x8d\xdb?'
tbsS'GTEX-YFCO'
p524
g3
(g4
(I0
tS'b'
tRp525
(I1
(I1
I1
tg7
I00
S'\xed\xe8\xd7\xea8r\x01@'
tbsS'GTEX-P78B'
p526
g3
(g4
(I0
tS'b'
tRp527
(I1
(I1
I1
tg7
I00
S'\xcaP\xf0\x1ey\x0b\x02@'
tbsS'GTEX-YFC4'
p528
g3
(g4
(I0
tS'b'
tRp529
(I1
(I1
I1
tg7
I00
S'\xac\x1fw)\xf0\xd6\x02\xc0'
tbsS'GTEX-11ZTT'
p530
g3
(g4
(I0
tS'b'
tRp531
(I1
(I1
I1
tg7
I00
S'2H-2_t\xfd\xbf'
tbsS'GTEX-11ZTS'
p532
g3
(g4
(I0
tS'b'
tRp533
(I1
(I1
I1
tg7
I00
S'\x17kQ\xe8\x9b$\xee?'
tbsS'GTEX-13PLJ'
p534
g3
(g4
(I0
tS'b'
tRp535
(I1
(I1
I1
tg7
I00
S'\x0bP$CY\xc3\n@'
tbsS'GTEX-OOBJ'
p536
g3
(g4
(I0
tS'b'
tRp537
(I1
(I1
I1
tg7
I00
S'\x8ev\xb4]x\xf2\xf3\xbf'
tbsS'GTEX-XOT4'
p538
g3
(g4
(I0
tS'b'
tRp539
(I1
(I1
I1
tg7
I00
S'Z\xabi1(\xd2\xf1\xbf'
tbsS'GTEX-S4Q7'
p540
g3
(g4
(I0
tS'b'
tRp541
(I1
(I1
I1
tg7
I00
S'xX\xc1\xbaTA\r\xc0'
tbsS'GTEX-13FLW'
p542
g3
(g4
(I0
tS'b'
tRp543
(I1
(I1
I1
tg7
I00
S'y\xcf\x96\xe1g\x1a\x03@'
tbsS'GTEX-13FLV'
p544
g3
(g4
(I0
tS'b'
tRp545
(I1
(I1
I1
tg7
I00
S'\xfa\xe2\xba{/\xcb\xf4?'
tbsS'GTEX-QLQ7'
p546
g3
(g4
(I0
tS'b'
tRp547
(I1
(I1
I1
tg7
I00
S'w0\xa6\xeeeQ\xdc?'
tbsS'GTEX-RN64'
p548
g3
(g4
(I0
tS'b'
tRp549
(I1
(I1
I1
tg7
I00
S"\x15\xdc%'\xa3\x96\xfb\xbf"
tbsS'GTEX-ZYT6'
p550
g3
(g4
(I0
tS'b'
tRp551
(I1
(I1
I1
tg7
I00
S"\x05\x9c+'\xd8\xb6\xce\xbf"
tbsS'GTEX-11XUK'
p552
g3
(g4
(I0
tS'b'
tRp553
(I1
(I1
I1
tg7
I00
S'\n~\xae\x82\xf6\xcd\xf3\xbf'
tbsS'GTEX-ZTSS'
p554
g3
(g4
(I0
tS'b'
tRp555
(I1
(I1
I1
tg7
I00
S'|\x17\xa7b\x1a\xf4\xb2\xbf'
tbsS'GTEX-1117F'
p556
g3
(g4
(I0
tS'b'
tRp557
(I1
(I1
I1
tg7
I00
S'\xf8\xa7\x95W\xae\x17\xfb\xbf'
tbsS'GTEX-113JC'
p558
g3
(g4
(I0
tS'b'
tRp559
(I1
(I1
I1
tg7
I00
S'\xcao\xb7\xf4)\xd9\x02\xc0'
tbsS'GTEX-Z9EW'
p560
g3
(g4
(I0
tS'b'
tRp561
(I1
(I1
I1
tg7
I00
S'U\x8b\xbdy\xc9\xeb\xdf?'
tbsS'GTEX-ZPU1'
p562
g3
(g4
(I0
tS'b'
tRp563
(I1
(I1
I1
tg7
I00
S'\x07/\x08\xa6\x90\xa3\x03\xc0'
tbsS'GTEX-XUJ4'
p564
g3
(g4
(I0
tS'b'
tRp565
(I1
(I1
I1
tg7
I00
S'ZF\xbe\xfdEa\xab?'
tbsS'GTEX-11DZ1'
p566
g3
(g4
(I0
tS'b'
tRp567
(I1
(I1
I1
tg7
I00
S'\xb2%~\xb7\xdb@\x12\xc0'
tbsS'GTEX-R3RS'
p568
g3
(g4
(I0
tS'b'
tRp569
(I1
(I1
I1
tg7
I00
S'\xc9\x00\x819\xc1\xb5\x14@'
tbsS'GTEX-13NZ8'
p570
g3
(g4
(I0
tS'b'
tRp571
(I1
(I1
I1
tg7
I00
S'y\xaa\xf1\x12\x97\x17\x0f@'
tbsS'GTEX-QMR6'
p572
g3
(g4
(I0
tS'b'
tRp573
(I1
(I1
I1
tg7
I00
S'_\xe5\x9dH\xcd\x95\xfd?'
tbsS'GTEX-WRHU'
p574
g3
(g4
(I0
tS'b'
tRp575
(I1
(I1
I1
tg7
I00
S'^\xa51\xad\x02\x1b\x00@'
tbsS'GTEX-WCDI'
p576
g3
(g4
(I0
tS'b'
tRp577
(I1
(I1
I1
tg7
I00
S'\x80\x01>\xaa$\x88\xe5\xbf'
tbsS'GTEX-QMRM'
p578
g3
(g4
(I0
tS'b'
tRp579
(I1
(I1
I1
tg7
I00
S'J\x0fuu\x9aI\xfb\xbf'
tbsS'GTEX-TMZS'
p580
g3
(g4
(I0
tS'b'
tRp581
(I1
(I1
I1
tg7
I00
S':\x99+*\xbe\x9c\xf4?'
tbsS'GTEX-13NZB'
p582
g3
(g4
(I0
tS'b'
tRp583
(I1
(I1
I1
tg7
I00
S'2\x8fFpD=\t\xc0'
tbsS'GTEX-13NZA'
p584
g3
(g4
(I0
tS'b'
tRp585
(I1
(I1
I1
tg7
I00
S'\xdd\xf9\xdd\x05\xf4V\xd8?'
tbsS'GTEX-12ZZX'
p586
g3
(g4
(I0
tS'b'
tRp587
(I1
(I1
I1
tg7
I00
S'j\x17O\xbd\xfa\x1e\xe5?'
tbsS'GTEX-13OW8'
p588
g3
(g4
(I0
tS'b'
tRp589
(I1
(I1
I1
tg7
I00
S'\xf4\xf4\x98\x7fq\xc0\xf0?'
tbsS'GTEX-13OW5'
p590
g3
(g4
(I0
tS'b'
tRp591
(I1
(I1
I1
tg7
I00
S'K\x98e\x98\xef\t\x08\xc0'
tbsS'GTEX-13OW7'
p592
g3
(g4
(I0
tS'b'
tRp593
(I1
(I1
I1
tg7
I00
S'V\xe4\xb8\xcc\xad\x19\x02\xc0'
tbsS'GTEX-13OW6'
p594
g3
(g4
(I0
tS'b'
tRp595
(I1
(I1
I1
tg7
I00
S'\x0e\xa0\x17\\\x11=\x01\xc0'
tbsS'GTEX-U4B1'
p596
g3
(g4
(I0
tS'b'
tRp597
(I1
(I1
I1
tg7
I00
S'\xeb\xbd\x95)\xe2\xfa\xf6\xbf'
tbsS'GTEX-11P81'
p598
g3
(g4
(I0
tS'b'
tRp599
(I1
(I1
I1
tg7
I00
S'\xa9\xdb\xd5\xef\xf7\x1d\x07@'
tbsS'GTEX-11P82'
p600
g3
(g4
(I0
tS'b'
tRp601
(I1
(I1
I1
tg7
I00
S'I\xe5\xf2\x82\xa0\x98\xf5?'
tbsS'GTEX-117YW'
p602
g3
(g4
(I0
tS'b'
tRp603
(I1
(I1
I1
tg7
I00
S'\x90\\6\xf2j\t\xb8\xbf'
tbsS'GTEX-12KS4'
p604
g3
(g4
(I0
tS'b'
tRp605
(I1
(I1
I1
tg7
I00
S'\x83\xdf\xcf\x8e\xbbg\x04\xc0'
tbsS'GTEX-X62O'
p606
g3
(g4
(I0
tS'b'
tRp607
(I1
(I1
I1
tg7
I00
S'YeH\x88\xf83\xf8\xbf'
tbsS'GTEX-13FH7'
p608
g3
(g4
(I0
tS'b'
tRp609
(I1
(I1
I1
tg7
I00
S'\xe8i\x1f\x9c\xdf\x90\xe9\xbf'
tbsS'GTEX-ZPIC'
p610
g3
(g4
(I0
tS'b'
tRp611
(I1
(I1
I1
tg7
I00
S'\xb0\xb8\x95\x13\xd7\x86\xc2\xbf'
tbsS'GTEX-117XS'
p612
g3
(g4
(I0
tS'b'
tRp613
(I1
(I1
I1
tg7
I00
S'(\x18w\x10\xd2\xbf\x05\xc0'
tbsS'GTEX-OOBK'
p614
g3
(g4
(I0
tS'b'
tRp615
(I1
(I1
I1
tg7
I00
S'\x07\x15\xb3\xfd:\x9e\x04@'
tbsS'GTEX-12584'
p616
g3
(g4
(I0
tS'b'
tRp617
(I1
(I1
I1
tg7
I00
S's\xb6\x8f4R\xa8\xfe\xbf'
tbsS'GTEX-12ZZZ'
p618
g3
(g4
(I0
tS'b'
tRp619
(I1
(I1
I1
tg7
I00
S's \x92DL\xad\xe1\xbf'
tbsS'GTEX-Y114'
p620
g3
(g4
(I0
tS'b'
tRp621
(I1
(I1
I1
tg7
I00
S'R\x1e\xf7@=\x08\x03\xc0'
tbsS'GTEX-S33H'
p622
g3
(g4
(I0
tS'b'
tRp623
(I1
(I1
I1
tg7
I00
S'_;\x86c\xd5)\x07\xc0'
tbsS'GTEX-Y111'
p624
g3
(g4
(I0
tS'b'
tRp625
(I1
(I1
I1
tg7
I00
S'w Gn[\x87\xfc?'
tbsS'GTEX-ZYFC'
p626
g3
(g4
(I0
tS'b'
tRp627
(I1
(I1
I1
tg7
I00
S'\xe2.\xc3\x8a\xc1\xf3\x10@'
tbsS'GTEX-ZYFG'
p628
g3
(g4
(I0
tS'b'
tRp629
(I1
(I1
I1
tg7
I00
S' \x10l\x87\xb5~\xf0?'
tbsS'GTEX-OHPN'
p630
g3
(g4
(I0
tS'b'
tRp631
(I1
(I1
I1
tg7
I00
S'J\xac&r@)\xe0\xbf'
tbsS'GTEX-OHPM'
p632
g3
(g4
(I0
tS'b'
tRp633
(I1
(I1
I1
tg7
I00
S'\x86\x1d;\x1b\x17\r\xe1\xbf'
tbsS'GTEX-ZYFD'
p634
g3
(g4
(I0
tS'b'
tRp635
(I1
(I1
I1
tg7
I00
S'\xd5\x17^\xa5\x9c\x0c\x93\xbf'
tbsS'GTEX-Z93S'
p636
g3
(g4
(I0
tS'b'
tRp637
(I1
(I1
I1
tg7
I00
S'\xb7\xaf\x1a\x99\xb7\xfd\xc5?'
tbsS'GTEX-Z93T'
p638
g3
(g4
(I0
tS'b'
tRp639
(I1
(I1
I1
tg7
I00
S'\x9e6j$\xcd\xd6\xf9?'
tbsS'GTEX-UPK5'
p640
g3
(g4
(I0
tS'b'
tRp641
(I1
(I1
I1
tg7
I00
S'Y\xe7;\xaf\x04\x90\x0c\xc0'
tbsS'GTEX-13U4I'
p642
g3
(g4
(I0
tS'b'
tRp643
(I1
(I1
I1
tg7
I00
S'\xb5\xee\x008\xe9Y\xf6?'
tbsS'GTEX-Y5LM'
p644
g3
(g4
(I0
tS'b'
tRp645
(I1
(I1
I1
tg7
I00
S'\xd3\x1f\xf2\xef\x14\xc8\x05@'
tbsS'GTEX-QESD'
p646
g3
(g4
(I0
tS'b'
tRp647
(I1
(I1
I1
tg7
I00
S'r\x88\xc7\x19~6\r\xc0'
tbsS'GTEX-UJHI'
p648
g3
(g4
(I0
tS'b'
tRp649
(I1
(I1
I1
tg7
I00
S'\x7fZB\t`\x7f\xf6?'
tbsS'GTEX-S3XE'
p650
g3
(g4
(I0
tS'b'
tRp651
(I1
(I1
I1
tg7
I00
S'\xf0\x8b\x80[\xcc\xa7\xf7\xbf'
tbsS'GTEX-11EQ9'
p652
g3
(g4
(I0
tS'b'
tRp653
(I1
(I1
I1
tg7
I00
S'\xf0\xf0\xfe\x92\xb7Y\xcc\xbf'
tbsS'GTEX-11EQ8'
p654
g3
(g4
(I0
tS'b'
tRp655
(I1
(I1
I1
tg7
I00
S'\x9e\xddV\xabt\xd9\xf2?'
tbsS'GTEX-RM2N'
p656
g3
(g4
(I0
tS'b'
tRp657
(I1
(I1
I1
tg7
I00
S'\x87}\xf5\xc5j\xf9\x01@'
tbsS'GTEX-13FHP'
p658
g3
(g4
(I0
tS'b'
tRp659
(I1
(I1
I1
tg7
I00
S'\x9b\x9e\xf9n\xd3\xfa\xb1\xbf'
tbsS'GTEX-XMD3'
p660
g3
(g4
(I0
tS'b'
tRp661
(I1
(I1
I1
tg7
I00
S'\xc2\xef\xb3\x06\xe31%@'
tbsS'GTEX-XMD2'
p662
g3
(g4
(I0
tS'b'
tRp663
(I1
(I1
I1
tg7
I00
S'\xd1\xf9*3\x9et\xe0?'
tbsS'GTEX-XMD1'
p664
g3
(g4
(I0
tS'b'
tRp665
(I1
(I1
I1
tg7
I00
S'\xdc\x16\xc6\x8f\xc3B\xfe\xbf'
tbsS'GTEX-11TUW'
p666
g3
(g4
(I0
tS'b'
tRp667
(I1
(I1
I1
tg7
I00
S'\x94b\x04\xf1V4\x08\xc0'
tbsS'GTEX-U412'
p668
g3
(g4
(I0
tS'b'
tRp669
(I1
(I1
I1
tg7
I00
S'\xe7,\xd6I\x8eL\xee?'
tbsS'GTEX-1339X'
p670
g3
(g4
(I0
tS'b'
tRp671
(I1
(I1
I1
tg7
I00
S'\xfc^$\xd9\xcb\xd0\xf8?'
tbsS'GTEX-XV7Q'
p672
g3
(g4
(I0
tS'b'
tRp673
(I1
(I1
I1
tg7
I00
S'rb_\xc9{\xb0\x12@'
tbsS'GTEX-12126'
p674
g3
(g4
(I0
tS'b'
tRp675
(I1
(I1
I1
tg7
I00
S'\x81\x8dM%\xa1\xbd\x03\xc0'
tbsS'GTEX-ZLWG'
p676
g3
(g4
(I0
tS'b'
tRp677
(I1
(I1
I1
tg7
I00
S'E\xd1q\xca\xe3\xb7\xfb\xbf'
tbsS'GTEX-VJYA'
p678
g3
(g4
(I0
tS'b'
tRp679
(I1
(I1
I1
tg7
I00
S'\xbc\xb1s\xb7T\xa0\xfe?'
tbsS'GTEX-ZTX8'
p680
g3
(g4
(I0
tS'b'
tRp681
(I1
(I1
I1
tg7
I00
S'\xdep\xd0\xbd\xbc\x98\xf1\xbf'
tbsS'GTEX-ZVT2'
p682
g3
(g4
(I0
tS'b'
tRp683
(I1
(I1
I1
tg7
I00
S';\x8a[\n\x91\x91\xf4?'
tbsS'GTEX-ZVT3'
p684
g3
(g4
(I0
tS'b'
tRp685
(I1
(I1
I1
tg7
I00
S'\x9e\xb1\x95\x117\xa1\x02@'
tbsS'GTEX-WXYG'
p686
g3
(g4
(I0
tS'b'
tRp687
(I1
(I1
I1
tg7
I00
S'\xdb\xde\x022\xcc\x98\x08\xc0'
tbsS'GTEX-ZVT4'
p688
g3
(g4
(I0
tS'b'
tRp689
(I1
(I1
I1
tg7
I00
S'\xa0\xf7n\x929w\x11\xc0'
tbsS'GTEX-TML8'
p690
g3
(g4
(I0
tS'b'
tRp691
(I1
(I1
I1
tg7
I00
S'\x90\xef\x7fs]\xb8\n\xc0'
tbsS'GTEX-13FTY'
p692
g3
(g4
(I0
tS'b'
tRp693
(I1
(I1
I1
tg7
I00
S'4_\x1b\xb1\xbf*\x13@'
tbsS'GTEX-13FTX'
p694
g3
(g4
(I0
tS'b'
tRp695
(I1
(I1
I1
tg7
I00
S'\xa7\xb6\xb6m\xb4\xd0\xe3?'
tbsS'GTEX-13FTZ'
p696
g3
(g4
(I0
tS'b'
tRp697
(I1
(I1
I1
tg7
I00
S'\x0e\x1eQEw.\x13\xc0'
tbsS'GTEX-13S86'
p698
g3
(g4
(I0
tS'b'
tRp699
(I1
(I1
I1
tg7
I00
S'\xb0m\x184K\xe3\n\xc0'
tbsS'GTEX-W5X1'
p700
g3
(g4
(I0
tS'b'
tRp701
(I1
(I1
I1
tg7
I00
S'\xed\x94\xa7\xab\xe3\x8b\xf9\xbf'
tbsS'GTEX-ZAJG'
p702
g3
(g4
(I0
tS'b'
tRp703
(I1
(I1
I1
tg7
I00
S'\xcd\x0e\x9f\xc6\x82\xab\xc1?'
tbsS'GTEX-SNMC'
p704
g3
(g4
(I0
tS'b'
tRp705
(I1
(I1
I1
tg7
I00
S's\xba\xbd|A1\xf0\xbf'
tbsS'GTEX-13FTW'
p706
g3
(g4
(I0
tS'b'
tRp707
(I1
(I1
I1
tg7
I00
S'\xc0c\xbd}\x86m\x00@'
tbsS'GTEX-11NUK'
p708
g3
(g4
(I0
tS'b'
tRp709
(I1
(I1
I1
tg7
I00
S'>\x15\x08[Q\xbc\xea\xbf'
tbsS'GTEX-ZVTK'
p710
g3
(g4
(I0
tS'b'
tRp711
(I1
(I1
I1
tg7
I00
S'\xb9\xe9Rs\x94\x05|\xbf'
tbsS'GTEX-ZZ64'
p712
g3
(g4
(I0
tS'b'
tRp713
(I1
(I1
I1
tg7
I00
S'_>\xe2V\x11\xbd\n@'
tbsS'GTEX-PWO3'
p714
g3
(g4
(I0
tS'b'
tRp715
(I1
(I1
I1
tg7
I00
S'Y\x97\xf2\xf9\xd9\x15\x14@'
tbsS'GTEX-13NYS'
p716
g3
(g4
(I0
tS'b'
tRp717
(I1
(I1
I1
tg7
I00
S'\xea\x8d\xa5\x03\xac\x19\xf9\xbf'
tbsS'GTEX-1212Z'
p718
g3
(g4
(I0
tS'b'
tRp719
(I1
(I1
I1
tg7
I00
S'\x89\x98v\xf2oy\xf5?'
tbsS'GTEX-11I78'
p720
g3
(g4
(I0
tS'b'
tRp721
(I1
(I1
I1
tg7
I00
S'\x08\xa1\xf2\x7fM=\x05@'
tbsS'GTEX-13NYB'
p722
g3
(g4
(I0
tS'b'
tRp723
(I1
(I1
I1
tg7
I00
S'\xbc\xa9\x9eB\xd4\x9c\xf1\xbf'
tbsS'GTEX-13NYC'
p724
g3
(g4
(I0
tS'b'
tRp725
(I1
(I1
I1
tg7
I00
S'o\x97`0\x045\xe1\xbf'
tbsS'GTEX-Y9LG'
p726
g3
(g4
(I0
tS'b'
tRp727
(I1
(I1
I1
tg7
I00
S'\xd0\xfc\x01\x80\x94\x03\t\xc0'
tbsS'GTEX-X5EB'
p728
g3
(g4
(I0
tS'b'
tRp729
(I1
(I1
I1
tg7
I00
S'Z\xe8H^\x9f\xeb\xfc?'
tbsS'GTEX-1399Q'
p730
g3
(g4
(I0
tS'b'
tRp731
(I1
(I1
I1
tg7
I00
S'\xcb\xf7nv\xf6\xa5\x01@'
tbsS'GTEX-POYW'
p732
g3
(g4
(I0
tS'b'
tRp733
(I1
(I1
I1
tg7
I00
S'\xff\xd0\x11\x8eX\t\xda?'
tbsS'GTEX-1399R'
p734
g3
(g4
(I0
tS'b'
tRp735
(I1
(I1
I1
tg7
I00
S'\x1ej?nNp\x01@'
tbsS'GTEX-1399U'
p736
g3
(g4
(I0
tS'b'
tRp737
(I1
(I1
I1
tg7
I00
S'>\xb1\xcc\x12\x0e\xf4\xe7?'
tbsS'GTEX-1399T'
p738
g3
(g4
(I0
tS'b'
tRp739
(I1
(I1
I1
tg7
I00
S'u\xd7:tRY\xe9\xbf'
tbsS'GTEX-13X6I'
p740
g3
(g4
(I0
tS'b'
tRp741
(I1
(I1
I1
tg7
I00
S'\xb4?\x98c\xfd\xcf\n\xc0'
tbsS'GTEX-13X6H'
p742
g3
(g4
(I0
tS'b'
tRp743
(I1
(I1
I1
tg7
I00
S'\xee>Q"\xd0\xaa\x18\xc0'
tbsS'GTEX-13X6K'
p744
g3
(g4
(I0
tS'b'
tRp745
(I1
(I1
I1
tg7
I00
S'\xa5\xcf\xa7\xff\xe5\xed\xe1?'
tbsS'GTEX-13X6J'
p746
g3
(g4
(I0
tS'b'
tRp747
(I1
(I1
I1
tg7
I00
S']{\x0f\xe9\x19\xf8\x07\xc0'
tbsS'GTEX-ZXG5'
p748
g3
(g4
(I0
tS'b'
tRp749
(I1
(I1
I1
tg7
I00
S'\xb0\x9d\xb1\x8e\xe4C\x90\xbf'
tbsS'GTEX-11ZU8'
p750
g3
(g4
(I0
tS'b'
tRp751
(I1
(I1
I1
tg7
I00
S'\x8f\x98\xea4\xed\xe3\x12\xc0'
tbsS'GTEX-QVJO'
p752
g3
(g4
(I0
tS'b'
tRp753
(I1
(I1
I1
tg7
I00
S'\xc0\xf3r\x96\xd8\x15\xfe\xbf'
tbsS'GTEX-RWS6'
p754
g3
(g4
(I0
tS'b'
tRp755
(I1
(I1
I1
tg7
I00
S'\xd6\x00\xed\xdb\x0c\xcb\xe5\xbf'
tbsS'GTEX-ZP4G'
p756
g3
(g4
(I0
tS'b'
tRp757
(I1
(I1
I1
tg7
I00
S'\x89g\xdc\xcdr\xcf\xf3?'
tbsS'GTEX-Y8E4'
p758
g3
(g4
(I0
tS'b'
tRp759
(I1
(I1
I1
tg7
I00
S'ci!=\x80\xb4\xd0?'
tbsS'GTEX-Y8E5'
p760
g3
(g4
(I0
tS'b'
tRp761
(I1
(I1
I1
tg7
I00
S'\xec\x86.kxx\xf9\xbf'
tbsS'GTEX-WH7G'
p762
g3
(g4
(I0
tS'b'
tRp763
(I1
(I1
I1
tg7
I00
S'$$}\n\x98\xd9\xe8\xbf'
tbsS'GTEX-WEY5'
p764
g3
(g4
(I0
tS'b'
tRp765
(I1
(I1
I1
tg7
I00
S'\xf4]\x9a\xf2\x92\xb3\xd8?'
tbsS'GTEX-11P7K'
p766
g3
(g4
(I0
tS'b'
tRp767
(I1
(I1
I1
tg7
I00
S'\xc1$f\xebAc\xf8\xbf'
tbsS'GTEX-S7PM'
p768
g3
(g4
(I0
tS'b'
tRp769
(I1
(I1
I1
tg7
I00
S'\xf8YtQm\xa1\xf3?'
tbsS'GTEX-V1D1'
p770
g3
(g4
(I0
tS'b'
tRp771
(I1
(I1
I1
tg7
I00
S'7\x8d\xdc\xea\xae8\xa2\xbf'
tbsS'GTEX-WRHK'
p772
g3
(g4
(I0
tS'b'
tRp773
(I1
(I1
I1
tg7
I00
S'\xb4W\xe4\xd2=&\xaf\xbf'
tbsS'GTEX-R55C'
p774
g3
(g4
(I0
tS'b'
tRp775
(I1
(I1
I1
tg7
I00
S'\x9b\x92\t-}\x0e\x15@'
tbsS'GTEX-R55F'
p776
g3
(g4
(I0
tS'b'
tRp777
(I1
(I1
I1
tg7
I00
S'@\xc3h[\x11\xe6\x1b\xc0'
tbsS'GTEX-R55G'
p778
g3
(g4
(I0
tS'b'
tRp779
(I1
(I1
I1
tg7
I00
S'1\x96\xd3\x14z\xa0\xb0\xbf'
tbsS'GTEX-R55D'
p780
g3
(g4
(I0
tS'b'
tRp781
(I1
(I1
I1
tg7
I00
S'=<k\x8e\x96\xce\x04\xc0'
tbsS'GTEX-R55E'
p782
g3
(g4
(I0
tS'b'
tRp783
(I1
(I1
I1
tg7
I00
S'\xef\xa8h\xc1\xd2\xd8\xba\xbf'
tbsS'GTEX-PSDG'
p784
g3
(g4
(I0
tS'b'
tRp785
(I1
(I1
I1
tg7
I00
S']\x05\xb2\xf4yi\xde\xbf'
tbsS'GTEX-RWSA'
p786
g3
(g4
(I0
tS'b'
tRp787
(I1
(I1
I1
tg7
I00
S'\x9b\xe3Y\xa9i%\x02\xc0'
tbsS'GTEX-1122O'
p788
g3
(g4
(I0
tS'b'
tRp789
(I1
(I1
I1
tg7
I00
S'\xc1\xd6\x91H\x92\x8c\xf1?'
tbsS'GTEX-X4EO'
p790
g3
(g4
(I0
tS'b'
tRp791
(I1
(I1
I1
tg7
I00
S'Ms\x03^-\x9d\xe0?'
tbsS'GTEX-WVLH'
p792
g3
(g4
(I0
tS'b'
tRp793
(I1
(I1
I1
tg7
I00
S'8\xd6\xe7\xe1im\x04@'
tbsS'GTEX-13N1W'
p794
g3
(g4
(I0
tS'b'
tRp795
(I1
(I1
I1
tg7
I00
S'\xf8\xaa\xa2\xef\xbc<\xa1\xbf'
tbsS'GTEX-X4EP'
p796
g3
(g4
(I0
tS'b'
tRp797
(I1
(I1
I1
tg7
I00
S'\x1a7\xf7\xb6\xe8\xcc\xdc?'
tbsS'GTEX-YB5E'
p798
g3
(g4
(I0
tS'b'
tRp799
(I1
(I1
I1
tg7
I00
S'\xcak|\xc7z\xd0\xe7\xbf'
tbsS'GTEX-RU1J'
p800
g3
(g4
(I0
tS'b'
tRp801
(I1
(I1
I1
tg7
I00
S'\x863\xf4\xfc\xe5r\xef?'
tbsS'GTEX-11GSP'
p802
g3
(g4
(I0
tS'b'
tRp803
(I1
(I1
I1
tg7
I00
S'\x8a\x02\xdb\xca\t\xf7\x03@'
tbsS'GTEX-11GSO'
p804
g3
(g4
(I0
tS'b'
tRp805
(I1
(I1
I1
tg7
I00
S'AF\x04\xc4L1\xe7\xbf'
tbsS'GTEX-12ZZY'
p806
g3
(g4
(I0
tS'b'
tRp807
(I1
(I1
I1
tg7
I00
S'\x02\x173fA\xf3\xc2\xbf'
tbsS'GTEX-11UD2'
p808
g3
(g4
(I0
tS'b'
tRp809
(I1
(I1
I1
tg7
I00
S'v\x83\xb1"c\xc6\x07@'
tbsS'GTEX-11PRG'
p810
g3
(g4
(I0
tS'b'
tRp811
(I1
(I1
I1
tg7
I00
S'\xecg\xba\xf0o\x1b\x07\xc0'
tbsS'GTEX-SN8G'
p812
g3
(g4
(I0
tS'b'
tRp813
(I1
(I1
I1
tg7
I00
S'\xd7\xeb\xecx\xf0\x16\xf0\xbf'
tbsS'GTEX-ZVP2'
p814
g3
(g4
(I0
tS'b'
tRp815
(I1
(I1
I1
tg7
I00
S')G\x82Co\xea\xe6\xbf'
tbsS'GTEX-12ZZW'
p816
g3
(g4
(I0
tS'b'
tRp817
(I1
(I1
I1
tg7
I00
S'e\xb7\x0e V0\x13\xc0'
tbsS'GTEX-YB5K'
p818
g3
(g4
(I0
tS'b'
tRp819
(I1
(I1
I1
tg7
I00
S'~\x1fs\xdc\\\xa5\x02@'
tbsS'GTEX-13W3W'
p820
g3
(g4
(I0
tS'b'
tRp821
(I1
(I1
I1
tg7
I00
S'\x9a\xe9\xf8"\xcd\xd2\xe3?'
tbsS'GTEX-S4Z8'
p822
g3
(g4
(I0
tS'b'
tRp823
(I1
(I1
I1
tg7
I00
S'66\xfa,:(\xf1\xbf'
tbsS'GTEX-1211K'
p824
g3
(g4
(I0
tS'b'
tRp825
(I1
(I1
I1
tg7
I00
S'\xa8\xe1\xd5b\n_\xe7?'
tbsS'GTEX-ZG7Y'
p826
g3
(g4
(I0
tS'b'
tRp827
(I1
(I1
I1
tg7
I00
S'\xe90\x9eZ&?\x01@'
tbsS'GTEX-ZA64'
p828
g3
(g4
(I0
tS'b'
tRp829
(I1
(I1
I1
tg7
I00
S'G\xd3\xf7&6L\x03\xc0'
tbsS'GTEX-QCQG'
p830
g3
(g4
(I0
tS'b'
tRp831
(I1
(I1
I1
tg7
I00
S'M}-_4\xa6\xf8?'
tbsS'GTEX-11DYG'
p832
g3
(g4
(I0
tS'b'
tRp833
(I1
(I1
I1
tg7
I00
S'SF\xc8\xdbb\xe5\x0c\xc0'
tbsS'GTEX-S95S'
p834
g3
(g4
(I0
tS'b'
tRp835
(I1
(I1
I1
tg7
I00
S'ISOP\xd3v\xeb?'
tbsS'GTEX-Y5V6'
p836
g3
(g4
(I0
tS'b'
tRp837
(I1
(I1
I1
tg7
I00
S'\x7f\xd3\x1a\xe0\x16\x1a\x00@'
tbsS'GTEX-Y5V5'
p838
g3
(g4
(I0
tS'b'
tRp839
(I1
(I1
I1
tg7
I00
S'\xd2YK{\xfa\t\xdd\xbf'
tbsS'GTEX-11GS4'
p840
g3
(g4
(I0
tS'b'
tRp841
(I1
(I1
I1
tg7
I00
S'$\xcd\xdc!\\v\xfc?'
tbsS'GTEX-QDT8'
p842
g3
(g4
(I0
tS'b'
tRp843
(I1
(I1
I1
tg7
I00
S'\xedn6beJ\xf1\xbf'
tbsS'GTEX-QXCU'
p844
g3
(g4
(I0
tS'b'
tRp845
(I1
(I1
I1
tg7
I00
S'=\xa6\xc6+I\x17\xe6?'
tbsS'GTEX-YBZK'
p846
g3
(g4
(I0
tS'b'
tRp847
(I1
(I1
I1
tg7
I00
S' \xd4\x1d\x00\xa5G\x1c\xc0'
tbsS'GTEX-SSA3'
p848
g3
(g4
(I0
tS'b'
tRp849
(I1
(I1
I1
tg7
I00
S'\r\t\xf99\xa3U\xeb?'
tbsS'GTEX-PX3G'
p850
g3
(g4
(I0
tS'b'
tRp851
(I1
(I1
I1
tg7
I00
S'\x89\x92\xe8\x92\xbc\x90\x04@'
tbsS'GTEX-V955'
p852
g3
(g4
(I0
tS'b'
tRp853
(I1
(I1
I1
tg7
I00
S'\xfd\x8f\xf4\xbc\x8b\xd3\x00@'
tbsS'GTEX-11TTK'
p854
g3
(g4
(I0
tS'b'
tRp855
(I1
(I1
I1
tg7
I00
S'\xa7w\t.\xf2\xec\xfa?'
tbsS'GTEX-ZV7C'
p856
g3
(g4
(I0
tS'b'
tRp857
(I1
(I1
I1
tg7
I00
S'IZ\x9d\x16\xf1\xa8\xce?'
tbsS'GTEX-11ZVC'
p858
g3
(g4
(I0
tS'b'
tRp859
(I1
(I1
I1
tg7
I00
S"\tu'\xde\xee/\xf3?"
tbsS'GTEX-11EI6'
p860
g3
(g4
(I0
tS'b'
tRp861
(I1
(I1
I1
tg7
I00
S'\xf1\xed\xa4\n\xf0\xf0\x06\xc0'
tbsS'GTEX-S7SF'
p862
g3
(g4
(I0
tS'b'
tRp863
(I1
(I1
I1
tg7
I00
S'%g\x80\x08\xa2\x90\xfc?'
tbsS'GTEX-11TT1'
p864
g3
(g4
(I0
tS'b'
tRp865
(I1
(I1
I1
tg7
I00
S'\x9b\xc5\x86-y\xed\xba?'
tbsS'GTEX-ZGAY'
p866
g3
(g4
(I0
tS'b'
tRp867
(I1
(I1
I1
tg7
I00
S'r\xbd\x95:\xd49\xf7\xbf'
tbsS'GTEX-R45C'
p868
g3
(g4
(I0
tS'b'
tRp869
(I1
(I1
I1
tg7
I00
S'pv\xbdh^\xad\x15\xc0'
tbsS'GTEX-XAJ8'
p870
g3
(g4
(I0
tS'b'
tRp871
(I1
(I1
I1
tg7
I00
S'\xa0,t\xa7w\xed\x04\xc0'
tbsS'GTEX-13IVO'
p872
g3
(g4
(I0
tS'b'
tRp873
(I1
(I1
I1
tg7
I00
S'\x90\x0e\x1a\xbbh\x1f\xe6\xbf'
tbsS'GTEX-RUSQ'
p874
g3
(g4
(I0
tS'b'
tRp875
(I1
(I1
I1
tg7
I00
S'\xf0Dz+n\xd4\t@'
tbsS'GTEX-VJWN'
p876
g3
(g4
(I0
tS'b'
tRp877
(I1
(I1
I1
tg7
I00
S'\xf8\xc6\x9e\xeb\x1fx\xca\xbf'
tbsS'GTEX-U8XE'
p878
g3
(g4
(I0
tS'b'
tRp879
(I1
(I1
I1
tg7
I00
S"\xcc>R\xae\xd2'\xe3?"
tbsS'GTEX-XQ8I'
p880
g3
(g4
(I0
tS'b'
tRp881
(I1
(I1
I1
tg7
I00
S'\xc0\x80\x9e\xb2jc\xf6\xbf'
tbsS'GTEX-SNOS'
p882
g3
(g4
(I0
tS'b'
tRp883
(I1
(I1
I1
tg7
I00
S'|\xa8\x05\xe3\xa2\x84\xcb\xbf'
tbsS'GTEX-QV31'
p884
g3
(g4
(I0
tS'b'
tRp885
(I1
(I1
I1
tg7
I00
S'\xaf\tH\xe3\x12n\xfd?'
tbsS'GTEX-S7SE'
p886
g3
(g4
(I0
tS'b'
tRp887
(I1
(I1
I1
tg7
I00
S'q\x13\x04\x1c\xe0Q\xf6?'
tbsS'GTEX-145MF'
p888
g3
(g4
(I0
tS'b'
tRp889
(I1
(I1
I1
tg7
I00
S'=W\xe9j\x9d\x02\xe4?'
tbsS'GTEX-145MG'
p890
g3
(g4
(I0
tS'b'
tRp891
(I1
(I1
I1
tg7
I00
S" '\x9a\xa5\x93\xa4\xf4?"
tbsS'GTEX-145MH'
p892
g3
(g4
(I0
tS'b'
tRp893
(I1
(I1
I1
tg7
I00
S'\xe5S\xe4\xd0s\x9a\xfb\xbf'
tbsS'GTEX-WYJK'
p894
g3
(g4
(I0
tS'b'
tRp895
(I1
(I1
I1
tg7
I00
S's\xcd\xbe/\x9d\xca\x12@'
tbsS'GTEX-145MO'
p896
g3
(g4
(I0
tS'b'
tRp897
(I1
(I1
I1
tg7
I00
S'?X,\xf3\xeb~\x12\xc0'
tbs.