(dp1
S'GTEX-YJ89'
p2
cnumpy.core.multiarray
_reconstruct
p3
(cnumpy
ndarray
p4
(I0
tS'b'
tRp5
(I1
(I1
I1
tcnumpy
dtype
p6
(S'f8'
I0
I1
tRp7
(I3
S'<'
NNNI-1
I-1
I0
tbI00
S'\xb6\xbe\xf8\x86\xbe.\xe4?'
tbsS'GTEX-XPVG'
p8
g3
(g4
(I0
tS'b'
tRp9
(I1
(I1
I1
tg7
I00
S'\xe0\xeb4\x9c\x87z\xe8\xbf'
tbsS'GTEX-TMMY'
p10
g3
(g4
(I0
tS'b'
tRp11
(I1
(I1
I1
tg7
I00
S't\xcd\xc4m!<\xea?'
tbsS'GTEX-WWYW'
p12
g3
(g4
(I0
tS'b'
tRp13
(I1
(I1
I1
tg7
I00
S'\xb6\x88\xf2>c;\xf2?'
tbsS'GTEX-111FC'
p14
g3
(g4
(I0
tS'b'
tRp15
(I1
(I1
I1
tg7
I00
S'\xcfC\xc1\xadP_\xea\xbf'
tbsS'GTEX-139T8'
p16
g3
(g4
(I0
tS'b'
tRp17
(I1
(I1
I1
tg7
I00
S'\xd9\xde:\xea\x11\xca\xf2\xbf'
tbsS'GTEX-139T6'
p18
g3
(g4
(I0
tS'b'
tRp19
(I1
(I1
I1
tg7
I00
S'@\x95\x9f\xc5\xf2\xaa\xd0?'
tbsS'GTEX-13O1R'
p20
g3
(g4
(I0
tS'b'
tRp21
(I1
(I1
I1
tg7
I00
S'\xecVz\xfdt\xcd\xf9?'
tbsS'GTEX-TKQ1'
p22
g3
(g4
(I0
tS'b'
tRp23
(I1
(I1
I1
tg7
I00
S'\x8azJ\x12o\xde\xd4?'
tbsS'GTEX-ZVE1'
p24
g3
(g4
(I0
tS'b'
tRp25
(I1
(I1
I1
tg7
I00
S"Q\x18\x9e\x87\x9a'\x1a@"
tbsS'GTEX-ZVE2'
p26
g3
(g4
(I0
tS'b'
tRp27
(I1
(I1
I1
tg7
I00
S'\x85\xfa\xb0\xbddl\xb7?'
tbsS'GTEX-Q2AH'
p28
g3
(g4
(I0
tS'b'
tRp29
(I1
(I1
I1
tg7
I00
S'@McH\xd7\xab\xe2\xbf'
tbsS'GTEX-Q2AI'
p30
g3
(g4
(I0
tS'b'
tRp31
(I1
(I1
I1
tg7
I00
S'\x1c\xdc\x12\xbd,2\x05@'
tbsS'GTEX-S32W'
p32
g3
(g4
(I0
tS'b'
tRp33
(I1
(I1
I1
tg7
I00
S'8\xf7&\x92\x96\xe5\xd8?'
tbsS'GTEX-ZEX8'
p34
g3
(g4
(I0
tS'b'
tRp35
(I1
(I1
I1
tg7
I00
S'\xe6M\xeaS|0\x15@'
tbsS'GTEX-13D11'
p36
g3
(g4
(I0
tS'b'
tRp37
(I1
(I1
I1
tg7
I00
S'_\xed\x83\xf5\x83\x8a\xe9\xbf'
tbsS'GTEX-WZTO'
p38
g3
(g4
(I0
tS'b'
tRp39
(I1
(I1
I1
tg7
I00
S'\xc3\x06v\x1b\xd2w\xd2\xbf'
tbsS'GTEX-139TU'
p40
g3
(g4
(I0
tS'b'
tRp41
(I1
(I1
I1
tg7
I00
S"\x80\x05'F\x82\xa2\xd2\xbf"
tbsS'GTEX-139TS'
p42
g3
(g4
(I0
tS'b'
tRp43
(I1
(I1
I1
tg7
I00
S'\x9b\x9a\x85\x05f\xce\xe4\xbf'
tbsS'GTEX-ZF3C'
p44
g3
(g4
(I0
tS'b'
tRp45
(I1
(I1
I1
tg7
I00
S'\xf9\x0cV\xec\xd3h\xe7\xbf'
tbsS'GTEX-XMK1'
p46
g3
(g4
(I0
tS'b'
tRp47
(I1
(I1
I1
tg7
I00
S"h'!A5u\n@"
tbsS'GTEX-WHWD'
p48
g3
(g4
(I0
tS'b'
tRp49
(I1
(I1
I1
tg7
I00
S'\xf3J\xe14\xf9W\x03@'
tbsS'GTEX-1192W'
p50
g3
(g4
(I0
tS'b'
tRp51
(I1
(I1
I1
tg7
I00
S'.\x04\xfe\xa4\xf6\x9e\t\xc0'
tbsS'GTEX-X4XX'
p52
g3
(g4
(I0
tS'b'
tRp53
(I1
(I1
I1
tg7
I00
S'3\xf4\x8dfh\xf8\x0b\xc0'
tbsS'GTEX-X4XY'
p54
g3
(g4
(I0
tS'b'
tRp55
(I1
(I1
I1
tg7
I00
S"\xe0e2l3'\x00\xc0"
tbsS'GTEX-13CZV'
p56
g3
(g4
(I0
tS'b'
tRp57
(I1
(I1
I1
tg7
I00
S'\xe7\xf9\x04\x1e\xb7\xb4\x06\xc0'
tbsS'GTEX-1192X'
p58
g3
(g4
(I0
tS'b'
tRp59
(I1
(I1
I1
tg7
I00
S'\xfcU\xba\xf0>\x99\xdd\xbf'
tbsS'GTEX-T2YK'
p60
g3
(g4
(I0
tS'b'
tRp61
(I1
(I1
I1
tg7
I00
S'\x9b\x86\xe6l\xea\x0f\x11\xc0'
tbsS'GTEX-YJ8A'
p62
g3
(g4
(I0
tS'b'
tRp63
(I1
(I1
I1
tg7
I00
S'\xbaP\x9aH\xa6$\x05@'
tbsS'GTEX-SIU8'
p64
g3
(g4
(I0
tS'b'
tRp65
(I1
(I1
I1
tg7
I00
S"|'\x84\xcf\xc3\xea\xd9?"
tbsS'GTEX-QEG5'
p66
g3
(g4
(I0
tS'b'
tRp67
(I1
(I1
I1
tg7
I00
S'H\xca\xec\x8d\x1fE\xf8?'
tbsS'GTEX-QEG4'
p68
g3
(g4
(I0
tS'b'
tRp69
(I1
(I1
I1
tg7
I00
S'\x96F?j\xf4\x89\xcc?'
tbsS'GTEX-SIU7'
p70
g3
(g4
(I0
tS'b'
tRp71
(I1
(I1
I1
tg7
I00
S'\xd3\x153\xfbV<\n@'
tbsS'GTEX-WI4N'
p72
g3
(g4
(I0
tS'b'
tRp73
(I1
(I1
I1
tg7
I00
S'\xafO_\xb2S\xfa\xd4\xbf'
tbsS'GTEX-OXRL'
p74
g3
(g4
(I0
tS'b'
tRp75
(I1
(I1
I1
tg7
I00
S'\xd3\x95\xa0\x8f4\x0f\x04@'
tbsS'GTEX-OXRO'
p76
g3
(g4
(I0
tS'b'
tRp77
(I1
(I1
I1
tg7
I00
S'KZ\x98\x1a\x17)\x1d\xc0'
tbsS'GTEX-OXRN'
p78
g3
(g4
(I0
tS'b'
tRp79
(I1
(I1
I1
tg7
I00
S'\xc5\x11\xcd\xfdT\x9f\x01@'
tbsS'GTEX-OXRK'
p80
g3
(g4
(I0
tS'b'
tRp81
(I1
(I1
I1
tg7
I00
S'\xcd\xf6m\xd5\x82_\xdc\xbf'
tbsS'GTEX-X261'
p82
g3
(g4
(I0
tS'b'
tRp83
(I1
(I1
I1
tg7
I00
S'LT\x95\x97\xd6K\xda\xbf'
tbsS'GTEX-UJMC'
p84
g3
(g4
(I0
tS'b'
tRp85
(I1
(I1
I1
tg7
I00
S'z\x94\x8a\x8b\xa4b\xef?'
tbsS'GTEX-SJXC'
p86
g3
(g4
(I0
tS'b'
tRp87
(I1
(I1
I1
tg7
I00
S'.\x96&\xc2\x8b\x01\xc3?'
tbsS'GTEX-13VXU'
p88
g3
(g4
(I0
tS'b'
tRp89
(I1
(I1
I1
tg7
I00
S"\x88'\x0f\xcc\x844\x03@"
tbsS'GTEX-13VXT'
p90
g3
(g4
(I0
tS'b'
tRp91
(I1
(I1
I1
tg7
I00
S'\xd5\xf6\n\xa6)\x8c\x15@'
tbsS'GTEX-OIZH'
p92
g3
(g4
(I0
tS'b'
tRp93
(I1
(I1
I1
tg7
I00
S'\x15=Wy?\x11\xaf\xbf'
tbsS'GTEX-OIZI'
p94
g3
(g4
(I0
tS'b'
tRp95
(I1
(I1
I1
tg7
I00
S'\x94\xa3\xd3\xd2\x1aP\xd3?'
tbsS'GTEX-ZAB5'
p96
g3
(g4
(I0
tS'b'
tRp97
(I1
(I1
I1
tg7
I00
S"'\xea\xde\xb8M\xa7\xf9?"
tbsS'GTEX-ZAB4'
p98
g3
(g4
(I0
tS'b'
tRp99
(I1
(I1
I1
tg7
I00
S'\x8f]\x96e\xc9H\xee?'
tbsS'GTEX-OHPL'
p100
g3
(g4
(I0
tS'b'
tRp101
(I1
(I1
I1
tg7
I00
S'\x1f3\x11\xea\xa2h\xe2?'
tbsS'GTEX-OIZG'
p102
g3
(g4
(I0
tS'b'
tRp103
(I1
(I1
I1
tg7
I00
S'\xf47\x87\xb0\x0b*\x02@'
tbsS'GTEX-ZY6K'
p104
g3
(g4
(I0
tS'b'
tRp105
(I1
(I1
I1
tg7
I00
S'i\x94~\xc3O\x91\xdb?'
tbsS'GTEX-11DXW'
p106
g3
(g4
(I0
tS'b'
tRp107
(I1
(I1
I1
tg7
I00
S'\x83e\x9e\xb1\xd4\x0e\xf5\xbf'
tbsS'GTEX-13CF2'
p108
g3
(g4
(I0
tS'b'
tRp109
(I1
(I1
I1
tg7
I00
S"'\xac\xd5\xe6l8\xe5\xbf"
tbsS'GTEX-13CF3'
p110
g3
(g4
(I0
tS'b'
tRp111
(I1
(I1
I1
tg7
I00
S'\x89\xda|\\\x1bW\n\xc0'
tbsS'GTEX-11DXY'
p112
g3
(g4
(I0
tS'b'
tRp113
(I1
(I1
I1
tg7
I00
S'\xd6\xdfX\xd9\xb5\xfd\xf4\xbf'
tbsS'GTEX-11DXX'
p114
g3
(g4
(I0
tS'b'
tRp115
(I1
(I1
I1
tg7
I00
S'\xcf\x1e\x89%O\xcc\xed?'
tbsS'GTEX-11DXZ'
p116
g3
(g4
(I0
tS'b'
tRp117
(I1
(I1
I1
tg7
I00
S'\x8c\xc7@V,\xd6\xc3\xbf'
tbsS'GTEX-13S7M'
p118
g3
(g4
(I0
tS'b'
tRp119
(I1
(I1
I1
tg7
I00
S'\xf4\xd9\x94\xfdZ\xfe\x08\xc0'
tbsS'GTEX-WOFL'
p120
g3
(g4
(I0
tS'b'
tRp121
(I1
(I1
I1
tg7
I00
S'\xb8\xd6\xebG\x95\xc6\x02@'
tbsS'GTEX-WOFM'
p122
g3
(g4
(I0
tS'b'
tRp123
(I1
(I1
I1
tg7
I00
S'\x0e\xe5\x03\x8c>\xef\t\xc0'
tbsS'GTEX-XUZC'
p124
g3
(g4
(I0
tS'b'
tRp125
(I1
(I1
I1
tg7
I00
S'(i\x9a\x906\x0f\xd3?'
tbsS'GTEX-ZDTS'
p126
g3
(g4
(I0
tS'b'
tRp127
(I1
(I1
I1
tg7
I00
S'A\x1c\x8c\xc4\xd7\xa7\xe9\xbf'
tbsS'GTEX-ZDTT'
p128
g3
(g4
(I0
tS'b'
tRp129
(I1
(I1
I1
tg7
I00
S'2\x94\x18\xdfkO\xf2\xbf'
tbsS'GTEX-PWN1'
p130
g3
(g4
(I0
tS'b'
tRp131
(I1
(I1
I1
tg7
I00
S'o\\Gy\xd8\x0e\x04\xc0'
tbsS'GTEX-N7MS'
p132
g3
(g4
(I0
tS'b'
tRp133
(I1
(I1
I1
tg7
I00
S'W\x1au,\x8br\xf5?'
tbsS'GTEX-N7MT'
p134
g3
(g4
(I0
tS'b'
tRp135
(I1
(I1
I1
tg7
I00
S'!~\x12\x92P\xf6\xd6\xbf'
tbsS'GTEX-W5WG'
p136
g3
(g4
(I0
tS'b'
tRp137
(I1
(I1
I1
tg7
I00
S'Ze8\x89\x05\xce\xed?'
tbsS'GTEX-XYKS'
p138
g3
(g4
(I0
tS'b'
tRp139
(I1
(I1
I1
tg7
I00
S'-\x1f\xe3\x9a\xf8\x8f\xc4\xbf'
tbsS'GTEX-NPJ7'
p140
g3
(g4
(I0
tS'b'
tRp141
(I1
(I1
I1
tg7
I00
S'\x92%\xc0\x8a\xaa&\xe8?'
tbsS'GTEX-13RTK'
p142
g3
(g4
(I0
tS'b'
tRp143
(I1
(I1
I1
tg7
I00
S'[\xe5oj[L\xc6?'
tbsS'GTEX-13RTJ'
p144
g3
(g4
(I0
tS'b'
tRp145
(I1
(I1
I1
tg7
I00
S'@8\x10J\xde\xe7\xbe?'
tbsS'GTEX-O5YT'
p146
g3
(g4
(I0
tS'b'
tRp147
(I1
(I1
I1
tg7
I00
S'b\xb0\x95\xb5#5\x03@'
tbsS'GTEX-O5YW'
p148
g3
(g4
(I0
tS'b'
tRp149
(I1
(I1
I1
tg7
I00
S'\xe4\xcb\x7f\xc1\xa1s\xc3\xbf'
tbsS'GTEX-O5YV'
p150
g3
(g4
(I0
tS'b'
tRp151
(I1
(I1
I1
tg7
I00
S'\xa5\xa5\x0f_!(\x10\xc0'
tbsS'GTEX-WL46'
p152
g3
(g4
(I0
tS'b'
tRp153
(I1
(I1
I1
tg7
I00
S'\x1bQ\xcc\x85Y\x0c\x0c\xc0'
tbsS'GTEX-NPJ8'
p154
g3
(g4
(I0
tS'b'
tRp155
(I1
(I1
I1
tg7
I00
S'|\xd1\xdb\xbc`/\xf3\xbf'
tbsS'GTEX-Q2AG'
p156
g3
(g4
(I0
tS'b'
tRp157
(I1
(I1
I1
tg7
I00
S'\xb1,pf\x91}\xe2?'
tbsS'GTEX-11EM3'
p158
g3
(g4
(I0
tS'b'
tRp159
(I1
(I1
I1
tg7
I00
S'\xaa\xba\xb0IO\xb2\xe6?'
tbsS'GTEX-Q734'
p160
g3
(g4
(I0
tS'b'
tRp161
(I1
(I1
I1
tg7
I00
S'4I\xb7\x9a\x9d}\x0b@'
tbsS'GTEX-11EMC'
p162
g3
(g4
(I0
tS'b'
tRp163
(I1
(I1
I1
tg7
I00
S'4ML\x07\xe9.\xec?'
tbsS'GTEX-13N11'
p164
g3
(g4
(I0
tS'b'
tRp165
(I1
(I1
I1
tg7
I00
S'8\x9b\xa5\x1c\xcb\xb4\xf9\xbf'
tbsS'GTEX-1128S'
p166
g3
(g4
(I0
tS'b'
tRp167
(I1
(I1
I1
tg7
I00
S'\xe9\xf0\xa4\xb6j\xa5\xe4?'
tbsS'GTEX-WHSE'
p168
g3
(g4
(I0
tS'b'
tRp169
(I1
(I1
I1
tg7
I00
S'\xf10\x93\x8c\xfdu\xdf\xbf'
tbsS'GTEX-WHSB'
p170
g3
(g4
(I0
tS'b'
tRp171
(I1
(I1
I1
tg7
I00
S'\xd6\x13\xa2\xd8\xdb\x19\xdd\xbf'
tbsS'GTEX-133LE'
p172
g3
(g4
(I0
tS'b'
tRp173
(I1
(I1
I1
tg7
I00
S'b\xcf\xfe0\n\x1f\x0f@'
tbsS'GTEX-NL4W'
p174
g3
(g4
(I0
tS'b'
tRp175
(I1
(I1
I1
tg7
I00
S'\x83\xa67\xcd\xb1y\x0c@'
tbsS'GTEX-SUCS'
p176
g3
(g4
(I0
tS'b'
tRp177
(I1
(I1
I1
tg7
I00
S'\x0f\x90\xc9\x9e\x08\x14\xfc\xbf'
tbsS'GTEX-13QIC'
p178
g3
(g4
(I0
tS'b'
tRp179
(I1
(I1
I1
tg7
I00
S'4\xdd\xc8\x8c(S\xf9?'
tbsS'GTEX-ZYY3'
p180
g3
(g4
(I0
tS'b'
tRp181
(I1
(I1
I1
tg7
I00
S'7\xd3\xa4XK\xbb\x0f\xc0'
tbsS'GTEX-WYBS'
p182
g3
(g4
(I0
tS'b'
tRp183
(I1
(I1
I1
tg7
I00
S'\x97E1Q\xe3\xc1\xed?'
tbsS'GTEX-Y3I4'
p184
g3
(g4
(I0
tS'b'
tRp185
(I1
(I1
I1
tg7
I00
S'\x91K(0\xa5\xcc\x02@'
tbsS'GTEX-13O21'
p186
g3
(g4
(I0
tS'b'
tRp187
(I1
(I1
I1
tg7
I00
S'%<\xa4\xaa3u\xf6\xbf'
tbsS'GTEX-PVOW'
p188
g3
(g4
(I0
tS'b'
tRp189
(I1
(I1
I1
tg7
I00
S'\x9eh\xa6<\xde\xe4\x06\xc0'
tbsS'GTEX-13QBU'
p190
g3
(g4
(I0
tS'b'
tRp191
(I1
(I1
I1
tg7
I00
S'\xda\x8e@\xc5\xc9/\x12\xc0'
tbsS'GTEX-QEL4'
p192
g3
(g4
(I0
tS'b'
tRp193
(I1
(I1
I1
tg7
I00
S't\x8c\x02Pm\x0f\xd6\xbf'
tbsS'GTEX-X585'
p194
g3
(g4
(I0
tS'b'
tRp195
(I1
(I1
I1
tg7
I00
S't\xa2\x00\xd2\x9b\xfa\xef\xbf'
tbsS'GTEX-11VI4'
p196
g3
(g4
(I0
tS'b'
tRp197
(I1
(I1
I1
tg7
I00
S'\xbey\xa4\xa2\xa2\xbe\xe9?'
tbsS'GTEX-NL3G'
p198
g3
(g4
(I0
tS'b'
tRp199
(I1
(I1
I1
tg7
I00
S'\xfb\xb5\xb8\xdd\x8f#\xfc?'
tbsS'GTEX-NL3H'
p200
g3
(g4
(I0
tS'b'
tRp201
(I1
(I1
I1
tg7
I00
S'I>{\xc9\xf5\xb4\x04\xc0'
tbsS'GTEX-139TT'
p202
g3
(g4
(I0
tS'b'
tRp203
(I1
(I1
I1
tg7
I00
S'p\x0b\xad\xfb\xc1\xef\xd7?'
tbsS'GTEX-XUYS'
p204
g3
(g4
(I0
tS'b'
tRp205
(I1
(I1
I1
tg7
I00
S'\xee\xaeo\x91\xfc\r\x05\xc0'
tbsS'GTEX-P4QT'
p206
g3
(g4
(I0
tS'b'
tRp207
(I1
(I1
I1
tg7
I00
S'\x8a=\x00>7K\xf3\xbf'
tbsS'GTEX-WYVS'
p208
g3
(g4
(I0
tS'b'
tRp209
(I1
(I1
I1
tg7
I00
S'Q\x18\x87\xa8\x08\xac\x0c\xc0'
tbsS'GTEX-ZVZP'
p210
g3
(g4
(I0
tS'b'
tRp211
(I1
(I1
I1
tg7
I00
S'\x85\xb5\xed!]\x98\xfb\xbf'
tbsS'GTEX-ZVZQ'
p212
g3
(g4
(I0
tS'b'
tRp213
(I1
(I1
I1
tg7
I00
S'\x0bF-\x8c4\xb3\xdb?'
tbsS'GTEX-P4QS'
p214
g3
(g4
(I0
tS'b'
tRp215
(I1
(I1
I1
tg7
I00
S'\xe6\xba\xaa\x1fT\x89\t@'
tbsS'GTEX-P4QR'
p216
g3
(g4
(I0
tS'b'
tRp217
(I1
(I1
I1
tg7
I00
S'\xcc\xfa\xfd\xcf\xba>\xf1\xbf'
tbsS'GTEX-ZVZO'
p218
g3
(g4
(I0
tS'b'
tRp219
(I1
(I1
I1
tg7
I00
S'\xa2\xf2\xb2)\xf5e\x07\xc0'
tbsS'GTEX-13SLX'
p220
g3
(g4
(I0
tS'b'
tRp221
(I1
(I1
I1
tg7
I00
S'\x0c\xb7I\xa3E\x1d\xf3?'
tbsS'GTEX-13FXS'
p222
g3
(g4
(I0
tS'b'
tRp223
(I1
(I1
I1
tg7
I00
S'\xc1\xb5\n\x83h\xa3\xe6\xbf'
tbsS'GTEX-X3Y1'
p224
g3
(g4
(I0
tS'b'
tRp225
(I1
(I1
I1
tg7
I00
S'1\xe78\xbcWs\xd8\xbf'
tbsS'GTEX-SE5C'
p226
g3
(g4
(I0
tS'b'
tRp227
(I1
(I1
I1
tg7
I00
S'\xcc\xb1jb\xf3\xf1\xfc\xbf'
tbsS'GTEX-OHPK'
p228
g3
(g4
(I0
tS'b'
tRp229
(I1
(I1
I1
tg7
I00
S'qR\x8b\x07\xa8@\xf3\xbf'
tbsS'GTEX-Y3IK'
p230
g3
(g4
(I0
tS'b'
tRp231
(I1
(I1
I1
tg7
I00
S'\xefQ\xdb\x1d\xce\r\xd5?'
tbsS'GTEX-ZF2S'
p232
g3
(g4
(I0
tS'b'
tRp233
(I1
(I1
I1
tg7
I00
S'Y\x0f\xfa\xd2\x00~\xf8\xbf'
tbsS'GTEX-111YS'
p234
g3
(g4
(I0
tS'b'
tRp235
(I1
(I1
I1
tg7
I00
S'\x9c\x89\xee\r\xb5z\x05@'
tbsS'GTEX-139UW'
p236
g3
(g4
(I0
tS'b'
tRp237
(I1
(I1
I1
tg7
I00
S'\xa2\xf1\xc93\x94\x9b\xc1?'
tbsS'GTEX-U3ZG'
p238
g3
(g4
(I0
tS'b'
tRp239
(I1
(I1
I1
tg7
I00
S'\x95m\xcbW\xf9\xca\xb6\xbf'
tbsS'GTEX-U3ZM'
p240
g3
(g4
(I0
tS'b'
tRp241
(I1
(I1
I1
tg7
I00
S'\xc6\xf4E\x10d \x07\xc0'
tbsS'GTEX-U3ZN'
p242
g3
(g4
(I0
tS'b'
tRp243
(I1
(I1
I1
tg7
I00
S'c=\xb7-\xf5\x01\xf1?'
tbsS'GTEX-ZV6S'
p244
g3
(g4
(I0
tS'b'
tRp245
(I1
(I1
I1
tg7
I00
S'\xbc\x06oh\x0f&\n\xc0'
tbsS'GTEX-U3ZH'
p246
g3
(g4
(I0
tS'b'
tRp247
(I1
(I1
I1
tg7
I00
S'\x95\xe2\x99\xdf\x9a\xc9\xcc?'
tbsS'GTEX-RTLS'
p248
g3
(g4
(I0
tS'b'
tRp249
(I1
(I1
I1
tg7
I00
S'"\xa0\xc9h2\xc6\xef\xbf'
tbsS'GTEX-PWCY'
p250
g3
(g4
(I0
tS'b'
tRp251
(I1
(I1
I1
tg7
I00
S'oU\xe80\xc4|\xd4?'
tbsS'GTEX-P44H'
p252
g3
(g4
(I0
tS'b'
tRp253
(I1
(I1
I1
tg7
I00
S'w\xf3\xa0yT\x93\xf4?'
tbsS'GTEX-11WQK'
p254
g3
(g4
(I0
tS'b'
tRp255
(I1
(I1
I1
tg7
I00
S'\xe2Q\x82\xa2 \x1a\xdb?'
tbsS'GTEX-12696'
p256
g3
(g4
(I0
tS'b'
tRp257
(I1
(I1
I1
tg7
I00
S'\x97\x92\xb6,\\\x99\xf4?'
tbsS'GTEX-XUW1'
p258
g3
(g4
(I0
tS'b'
tRp259
(I1
(I1
I1
tg7
I00
S'\x9bSV2\x83<\xd3\xbf'
tbsS'GTEX-13JVG'
p260
g3
(g4
(I0
tS'b'
tRp261
(I1
(I1
I1
tg7
I00
S'x\xeaF\xab\x0c\x9a\xe1\xbf'
tbsS'GTEX-XBEW'
p262
g3
(g4
(I0
tS'b'
tRp263
(I1
(I1
I1
tg7
I00
S'@\xb5?#\xcf@\xf9\xbf'
tbsS'GTEX-WK11'
p264
g3
(g4
(I0
tS'b'
tRp265
(I1
(I1
I1
tg7
I00
S'\xda\xc2\xb3\xcd\xad-\xf6?'
tbsS'GTEX-XBEC'
p266
g3
(g4
(I0
tS'b'
tRp267
(I1
(I1
I1
tg7
I00
S'5%\xfd\xec2\x01\xfe\xbf'
tbsS'GTEX-XBED'
p268
g3
(g4
(I0
tS'b'
tRp269
(I1
(I1
I1
tg7
I00
S'\x1f\xbb%^\xde\xa3\xf7?'
tbsS'GTEX-ZDYS'
p270
g3
(g4
(I0
tS'b'
tRp271
(I1
(I1
I1
tg7
I00
S']\xdd\xca\x8bI\xa7\xc1?'
tbsS'GTEX-X8HC'
p272
g3
(g4
(I0
tS'b'
tRp273
(I1
(I1
I1
tg7
I00
S'\x8d\xbc\x8f)\xd1\xba\x02\xc0'
tbsS'GTEX-ZF28'
p274
g3
(g4
(I0
tS'b'
tRp275
(I1
(I1
I1
tg7
I00
S'\x8bQ\x14)\x87f\x08\xc0'
tbsS'GTEX-ZF29'
p276
g3
(g4
(I0
tS'b'
tRp277
(I1
(I1
I1
tg7
I00
S'w\x14x\x95k\xfb\x0e@'
tbsS'GTEX-ZV68'
p278
g3
(g4
(I0
tS'b'
tRp279
(I1
(I1
I1
tg7
I00
S'@\x126\xa4Le\xfa?'
tbsS'GTEX-Y8LW'
p280
g3
(g4
(I0
tS'b'
tRp281
(I1
(I1
I1
tg7
I00
S'\xfd\x8a\xff\\\xd1\xdb\xfc\xbf'
tbsS'GTEX-13CIG'
p282
g3
(g4
(I0
tS'b'
tRp283
(I1
(I1
I1
tg7
I00
S'\x10\xf2:2B~\x11@'
tbsS'GTEX-13O61'
p284
g3
(g4
(I0
tS'b'
tRp285
(I1
(I1
I1
tg7
I00
S'\x11\xca\x06\xdcw\xbc\xd4\xbf'
tbsS'GTEX-12WSC'
p286
g3
(g4
(I0
tS'b'
tRp287
(I1
(I1
I1
tg7
I00
S'*S6\x89\x0c\xa4\x0e\xc0'
tbsS'GTEX-12WSA'
p288
g3
(g4
(I0
tS'b'
tRp289
(I1
(I1
I1
tg7
I00
S'o^Q\xc5zi\xf0\xbf'
tbsS'GTEX-12WSF'
p290
g3
(g4
(I0
tS'b'
tRp291
(I1
(I1
I1
tg7
I00
S'cn\x03C\xa5g\x16\xc0'
tbsS'GTEX-12WSG'
p292
g3
(g4
(I0
tS'b'
tRp293
(I1
(I1
I1
tg7
I00
S'p\x84\xad\xc2\x0e\xef\xe4\xbf'
tbsS'GTEX-12WSD'
p294
g3
(g4
(I0
tS'b'
tRp295
(I1
(I1
I1
tg7
I00
S'\x969\xe9\x10\xb3\xb5\xe7?'
tbsS'GTEX-12WSE'
p296
g3
(g4
(I0
tS'b'
tRp297
(I1
(I1
I1
tg7
I00
S'\xd23\xc5\xe0i.\x0b\xc0'
tbsS'GTEX-12WSJ'
p298
g3
(g4
(I0
tS'b'
tRp299
(I1
(I1
I1
tg7
I00
S'F\xb8R\x85\x83\xcf\n@'
tbsS'GTEX-12WSK'
p300
g3
(g4
(I0
tS'b'
tRp301
(I1
(I1
I1
tg7
I00
S'\x1cn\xd5\x7f\xf8j\x05\xc0'
tbsS'GTEX-12WSH'
p302
g3
(g4
(I0
tS'b'
tRp303
(I1
(I1
I1
tg7
I00
S'0\xf8\x00\xcd\xc3J\xde?'
tbsS'GTEX-12WSI'
p304
g3
(g4
(I0
tS'b'
tRp305
(I1
(I1
I1
tg7
I00
S'\x80\x83\x9a\xe4\xf4\xa3\x1c\xc0'
tbsS'GTEX-12WSN'
p306
g3
(g4
(I0
tS'b'
tRp307
(I1
(I1
I1
tg7
I00
S'5\xe9\xfa\xa0\xe5\x08\xf1\xbf'
tbsS'GTEX-12WSL'
p308
g3
(g4
(I0
tS'b'
tRp309
(I1
(I1
I1
tg7
I00
S'\xe7\xf6A@XL\xd1\xbf'
tbsS'GTEX-12WSM'
p310
g3
(g4
(I0
tS'b'
tRp311
(I1
(I1
I1
tg7
I00
S'u\xd2\xf8\xe6$(\x11@'
tbsS'GTEX-13N2G'
p312
g3
(g4
(I0
tS'b'
tRp313
(I1
(I1
I1
tg7
I00
S'\xc9;\xc7\xea\xb37\x0e\xc0'
tbsS'GTEX-X15G'
p314
g3
(g4
(I0
tS'b'
tRp315
(I1
(I1
I1
tg7
I00
S'\xda\xd9".B\x03\xe3\xbf'
tbsS'GTEX-YF7O'
p316
g3
(g4
(I0
tS'b'
tRp317
(I1
(I1
I1
tg7
I00
S'+\xf1\xd3{U\xd1\xc9\xbf'
tbsS'GTEX-S4P3'
p318
g3
(g4
(I0
tS'b'
tRp319
(I1
(I1
I1
tg7
I00
S'\xf7\x8b\xd7d\xc6B\xe4\xbf'
tbsS'GTEX-X4LF'
p320
g3
(g4
(I0
tS'b'
tRp321
(I1
(I1
I1
tg7
I00
S'\x05>\x91\xc85\xbf\x03\xc0'
tbsS'GTEX-ZE7O'
p322
g3
(g4
(I0
tS'b'
tRp323
(I1
(I1
I1
tg7
I00
S'\xe5\xfa\x18`&\xd9\x14@'
tbsS'GTEX-ZQUD'
p324
g3
(g4
(I0
tS'b'
tRp325
(I1
(I1
I1
tg7
I00
S'\xdc\xfeW2\xceK\xf0\xbf'
tbsS'GTEX-ZQG8'
p326
g3
(g4
(I0
tS'b'
tRp327
(I1
(I1
I1
tg7
I00
S'Y\xee\xdes8t\x00@'
tbsS'GTEX-13SLW'
p328
g3
(g4
(I0
tS'b'
tRp329
(I1
(I1
I1
tg7
I00
S'\xf2\x0b\xfe\xaa\xa3m\x14\xc0'
tbsS'GTEX-WFG7'
p330
g3
(g4
(I0
tS'b'
tRp331
(I1
(I1
I1
tg7
I00
S'\x8d\x1f>\x9e\xc0U\x02\xc0'
tbsS'GTEX-WFG8'
p332
g3
(g4
(I0
tS'b'
tRp333
(I1
(I1
I1
tg7
I00
S'm\xd2@\x8a\x92\xe8\xfe\xbf'
tbsS'GTEX-RU72'
p334
g3
(g4
(I0
tS'b'
tRp335
(I1
(I1
I1
tg7
I00
S'2\xef\x91\xfd\x01\x84\xe4?'
tbsS'GTEX-13W46'
p336
g3
(g4
(I0
tS'b'
tRp337
(I1
(I1
I1
tg7
I00
S'\x9fb\xc1\xb4\xb4\t\x12\xc0'
tbsS'GTEX-UPJH'
p338
g3
(g4
(I0
tS'b'
tRp339
(I1
(I1
I1
tg7
I00
S'\xa8w\xa3m\x83b\xea?'
tbsS'GTEX-PW2O'
p340
g3
(g4
(I0
tS'b'
tRp341
(I1
(I1
I1
tg7
I00
S'c)\x90h\xcf\xa5\xfd?'
tbsS'GTEX-T8EM'
p342
g3
(g4
(I0
tS'b'
tRp343
(I1
(I1
I1
tg7
I00
S'Q\x9e\xe9X\xe3\xb0\x03\xc0'
tbsS'GTEX-XQ3S'
p344
g3
(g4
(I0
tS'b'
tRp345
(I1
(I1
I1
tg7
I00
S'm\x14\x0fQ\x0f\x0b\n\xc0'
tbsS'GTEX-ZPCL'
p346
g3
(g4
(I0
tS'b'
tRp347
(I1
(I1
I1
tg7
I00
S'2\x96m\xad\xce\x1f\xe4?'
tbsS'GTEX-11ONC'
p348
g3
(g4
(I0
tS'b'
tRp349
(I1
(I1
I1
tg7
I00
S'\xc3^\txVg\x04\xc0'
tbsS'GTEX-QV44'
p350
g3
(g4
(I0
tS'b'
tRp351
(I1
(I1
I1
tg7
I00
S'+\xc8)\xdbS\x84\x08\xc0'
tbsS'GTEX-WHPG'
p352
g3
(g4
(I0
tS'b'
tRp353
(I1
(I1
I1
tg7
I00
S'\x05Z\xcf\xa9g\xff\xf0?'
tbsS'GTEX-T6MO'
p354
g3
(g4
(I0
tS'b'
tRp355
(I1
(I1
I1
tg7
I00
S'\x82C\xe4\x86\x15\xd2\xcc?'
tbsS'GTEX-T6MN'
p356
g3
(g4
(I0
tS'b'
tRp357
(I1
(I1
I1
tg7
I00
S'\r\t\xa3\xc4\x86a\xfd?'
tbsS'GTEX-XXEK'
p358
g3
(g4
(I0
tS'b'
tRp359
(I1
(I1
I1
tg7
I00
S'?\xf8J\xe5\xd9\x0c\xd9\xbf'
tbsS'GTEX-ZTTD'
p360
g3
(g4
(I0
tS'b'
tRp361
(I1
(I1
I1
tg7
I00
S'\xee\xbd\x1d\x86\xeak\xf5?'
tbsS'GTEX-ZUA1'
p362
g3
(g4
(I0
tS'b'
tRp363
(I1
(I1
I1
tg7
I00
S'\xcfx\x05ih\x9f\xd3\xbf'
tbsS'GTEX-OXRP'
p364
g3
(g4
(I0
tS'b'
tRp365
(I1
(I1
I1
tg7
I00
S'gq\xa6V\xf7\xae\x07\xc0'
tbsS'GTEX-13OVL'
p366
g3
(g4
(I0
tS'b'
tRp367
(I1
(I1
I1
tg7
I00
S'\xc5\x94:g\x8ek\xf7\xbf'
tbsS'GTEX-13OVJ'
p368
g3
(g4
(I0
tS'b'
tRp369
(I1
(I1
I1
tg7
I00
S'\xf5Pe\x17RF\xf6\xbf'
tbsS'GTEX-13OVH'
p370
g3
(g4
(I0
tS'b'
tRp371
(I1
(I1
I1
tg7
I00
S'\x83\xf3w\x8d\xae\x95\xe7\xbf'
tbsS'GTEX-13OVI'
p372
g3
(g4
(I0
tS'b'
tRp373
(I1
(I1
I1
tg7
I00
S'|\xc5\xe1\xcd\x86\xfe\xf8?'
tbsS'GTEX-13OVG'
p374
g3
(g4
(I0
tS'b'
tRp375
(I1
(I1
I1
tg7
I00
S'\xc5hb\xb5o7\xb1\xbf'
tbsS'GTEX-113IC'
p376
g3
(g4
(I0
tS'b'
tRp377
(I1
(I1
I1
tg7
I00
S';\xce\xaf\xba)C\x18\xc0'
tbsS'GTEX-XLM4'
p378
g3
(g4
(I0
tS'b'
tRp379
(I1
(I1
I1
tg7
I00
S'\xa0s\xb9S(A\xed?'
tbsS'GTEX-13JUV'
p380
g3
(g4
(I0
tS'b'
tRp381
(I1
(I1
I1
tg7
I00
S'G\xe1\x1f\xcc\x9d\x15\xc2?'
tbsS'GTEX-PLZ5'
p382
g3
(g4
(I0
tS'b'
tRp383
(I1
(I1
I1
tg7
I00
S'T\x13\xc3\xae\x9a(\xde\xbf'
tbsS'GTEX-PLZ6'
p384
g3
(g4
(I0
tS'b'
tRp385
(I1
(I1
I1
tg7
I00
S'E\x183\xd2\xf4\x07\xd7\xbf'
tbsS'GTEX-ZZPT'
p386
g3
(g4
(I0
tS'b'
tRp387
(I1
(I1
I1
tg7
I00
S'\xd3\xcf\x18\x06\xc8\xc3\x0e@'
tbsS'GTEX-ZZPU'
p388
g3
(g4
(I0
tS'b'
tRp389
(I1
(I1
I1
tg7
I00
S'y\xf6q\xbe\xcb\xf7\xe8\xbf'
tbsS'GTEX-ZXES'
p390
g3
(g4
(I0
tS'b'
tRp391
(I1
(I1
I1
tg7
I00
S'\x9a\x1c\x13\xe3\x03\xbd\xe5?'
tbsS'GTEX-TSE9'
p392
g3
(g4
(I0
tS'b'
tRp393
(I1
(I1
I1
tg7
I00
S'\x7f\x8f\xdfj\xa7i\xe1\xbf'
tbsS'GTEX-ZC5H'
p394
g3
(g4
(I0
tS'b'
tRp395
(I1
(I1
I1
tg7
I00
S'\xa3kl\x1d1\x9d\x00\xc0'
tbsS'GTEX-QDVN'
p396
g3
(g4
(I0
tS'b'
tRp397
(I1
(I1
I1
tg7
I00
S'\xc9\x9aY\xac\xc8j\xe3\xbf'
tbsS'GTEX-QDVJ'
p398
g3
(g4
(I0
tS'b'
tRp399
(I1
(I1
I1
tg7
I00
S'\x914>X\x8ck\x07@'
tbsS'GTEX-P4PP'
p400
g3
(g4
(I0
tS'b'
tRp401
(I1
(I1
I1
tg7
I00
S'\xeat\x9f\xb8Z\x91\xe3\xbf'
tbsS'GTEX-P4PQ'
p402
g3
(g4
(I0
tS'b'
tRp403
(I1
(I1
I1
tg7
I00
S'7\x86S\xf8H\xff\x04\xc0'
tbsS'GTEX-S4UY'
p404
g3
(g4
(I0
tS'b'
tRp405
(I1
(I1
I1
tg7
I00
S'>\x1f\x07j :\xf1?'
tbsS'GTEX-S341'
p406
g3
(g4
(I0
tS'b'
tRp407
(I1
(I1
I1
tg7
I00
S'CB.zx\x00\xf6\xbf'
tbsS'GTEX-11UD1'
p408
g3
(g4
(I0
tS'b'
tRp409
(I1
(I1
I1
tg7
I00
S'\xc0I\xcc\xcf=\xb2\xf3\xbf'
tbsS'GTEX-13FHO'
p410
g3
(g4
(I0
tS'b'
tRp411
(I1
(I1
I1
tg7
I00
S'N\xebj\x18P\x90\xd1?'
tbsS'GTEX-13O3O'
p412
g3
(g4
(I0
tS'b'
tRp413
(I1
(I1
I1
tg7
I00
S'\x80b\xce\xd2\xde\xa6\x00@'
tbsS'GTEX-13O3Q'
p414
g3
(g4
(I0
tS'b'
tRp415
(I1
(I1
I1
tg7
I00
S'\x8bz\xefNyX\xc3\xbf'
tbsS'GTEX-13O3P'
p416
g3
(g4
(I0
tS'b'
tRp417
(I1
(I1
I1
tg7
I00
S'\xce\x01\x10\x1e\xa2\xeb\x06@'
tbsS'GTEX-ZYWO'
p418
g3
(g4
(I0
tS'b'
tRp419
(I1
(I1
I1
tg7
I00
S'\xb3@W\x80\x14-\x08@'
tbsS'GTEX-X638'
p420
g3
(g4
(I0
tS'b'
tRp421
(I1
(I1
I1
tg7
I00
S'+\x99TT\x90\x93\x04\xc0'
tbsS'GTEX-13111'
p422
g3
(g4
(I0
tS'b'
tRp423
(I1
(I1
I1
tg7
I00
S'\xe5\xe1G\x8e?\xc0\xd4\xbf'
tbsS'GTEX-13113'
p424
g3
(g4
(I0
tS'b'
tRp425
(I1
(I1
I1
tg7
I00
S'\x96:x\xb7\xdae\xff?'
tbsS'GTEX-13112'
p426
g3
(g4
(I0
tS'b'
tRp427
(I1
(I1
I1
tg7
I00
S'\x95\xb7\x16\xa5\x9f\xf7\xfb?'
tbsS'GTEX-POMQ'
p428
g3
(g4
(I0
tS'b'
tRp429
(I1
(I1
I1
tg7
I00
S'\x15r8\xf5<\xee\xfd?'
tbsS'GTEX-PWOO'
p430
g3
(g4
(I0
tS'b'
tRp431
(I1
(I1
I1
tg7
I00
S'\xb2*$N\x17\xcf\xda?'
tbsS'GTEX-ZT9W'
p432
g3
(g4
(I0
tS'b'
tRp433
(I1
(I1
I1
tg7
I00
S'\xc3\x7f\x8dD\xfb\xc5\x13@'
tbsS'GTEX-ZT9X'
p434
g3
(g4
(I0
tS'b'
tRp435
(I1
(I1
I1
tg7
I00
S'\xfc\xcc\x9d\xa5\x08\xf9\r@'
tbsS'GTEX-RNOR'
p436
g3
(g4
(I0
tS'b'
tRp437
(I1
(I1
I1
tg7
I00
S'\xf1 \xc1\xf8Q\xb8\x02\xc0'
tbsS'GTEX-REY6'
p438
g3
(g4
(I0
tS'b'
tRp439
(I1
(I1
I1
tg7
I00
S'\x07\xa2\r\xa7\x94\x0b\xf6?'
tbsS'GTEX-111CU'
p440
g3
(g4
(I0
tS'b'
tRp441
(I1
(I1
I1
tg7
I00
S'O\x1e\xb4@\x95\xe0\xf1?'
tbsS'GTEX-XGQ4'
p442
g3
(g4
(I0
tS'b'
tRp443
(I1
(I1
I1
tg7
I00
S'\n\xf7~\x9a\x02y\xfa\xbf'
tbsS'GTEX-WFJO'
p444
g3
(g4
(I0
tS'b'
tRp445
(I1
(I1
I1
tg7
I00
S'XdD\xd9e\xc2\x07\xc0'
tbsS'GTEX-VUSH'
p446
g3
(g4
(I0
tS'b'
tRp447
(I1
(I1
I1
tg7
I00
S'\tV>\xdb\r\xba\xf1?'
tbsS'GTEX-XPT6'
p448
g3
(g4
(I0
tS'b'
tRp449
(I1
(I1
I1
tg7
I00
S'\xee\xae\x13u\x0e\x19\r@'
tbsS'GTEX-VUSG'
p450
g3
(g4
(I0
tS'b'
tRp451
(I1
(I1
I1
tg7
I00
S'__Z\xd8\x1e\x9b\xfe\xbf'
tbsS'GTEX-TKQ2'
p452
g3
(g4
(I0
tS'b'
tRp453
(I1
(I1
I1
tg7
I00
S'uB\xf5\xdf\xba"\xe3\xbf'
tbsS'GTEX-11NV4'
p454
g3
(g4
(I0
tS'b'
tRp455
(I1
(I1
I1
tg7
I00
S'\xd3\tK:Kz\xfa\xbf'
tbsS'GTEX-Y8DK'
p456
g3
(g4
(I0
tS'b'
tRp457
(I1
(I1
I1
tg7
I00
S'\xfa\xc3\xd3\xa3\xd0>\xfe\xbf'
tbsS'GTEX-ZLFU'
p458
g3
(g4
(I0
tS'b'
tRp459
(I1
(I1
I1
tg7
I00
S'c\x05+h\xd0\xe4\xe9\xbf'
tbsS'GTEX-139YR'
p460
g3
(g4
(I0
tS'b'
tRp461
(I1
(I1
I1
tg7
I00
S'%\x8e\xe9\x00\xda\x1e\xf0?'
tbsS'GTEX-YECK'
p462
g3
(g4
(I0
tS'b'
tRp463
(I1
(I1
I1
tg7
I00
S'\xa0\xbca\xeb\r\xbe\x0f@'
tbsS'GTEX-13G51'
p464
g3
(g4
(I0
tS'b'
tRp465
(I1
(I1
I1
tg7
I00
S'\xdc\x04\x0f2\xbc\r\xfb\xbf'
tbsS'GTEX-ZLV1'
p466
g3
(g4
(I0
tS'b'
tRp467
(I1
(I1
I1
tg7
I00
S'Fo\xd4H\xb6j\xfc\xbf'
tbsS'GTEX-13QJ3'
p468
g3
(g4
(I0
tS'b'
tRp469
(I1
(I1
I1
tg7
I00
S'2Y\xa9\xd0\x04H\xfa?'
tbsS'GTEX-T2IS'
p470
g3
(g4
(I0
tS'b'
tRp471
(I1
(I1
I1
tg7
I00
S'\xa2j<\xa1\xe8\x8d\xe7?'
tbsS'GTEX-ZDXO'
p472
g3
(g4
(I0
tS'b'
tRp473
(I1
(I1
I1
tg7
I00
S'1\xde\x9f\xf6\xeb8\t\xc0'
tbsS'GTEX-WY7C'
p474
g3
(g4
(I0
tS'b'
tRp475
(I1
(I1
I1
tg7
I00
S'\x1ez\xc1%\xcc\xa6\x11@'
tbsS'GTEX-PLZ4'
p476
g3
(g4
(I0
tS'b'
tRp477
(I1
(I1
I1
tg7
I00
S'\x8a \xd9B\x92\xb6\x11@'
tbsS'GTEX-13QJC'
p478
g3
(g4
(I0
tS'b'
tRp479
(I1
(I1
I1
tg7
I00
S'\tW\xea#.\x83\xf9\xbf'
tbsS'GTEX-11WQC'
p480
g3
(g4
(I0
tS'b'
tRp481
(I1
(I1
I1
tg7
I00
S'\x1bC\xc2\xfb\xe6I\x05\xc0'
tbsS'GTEX-YEC4'
p482
g3
(g4
(I0
tS'b'
tRp483
(I1
(I1
I1
tg7
I00
S'\x06R#\x9a\x98\xe0\x00@'
tbsS'GTEX-ZTPG'
p484
g3
(g4
(I0
tS'b'
tRp485
(I1
(I1
I1
tg7
I00
S'\x1aI\xbeO;\xe5\xeb?'
tbsS'GTEX-YEC3'
p486
g3
(g4
(I0
tS'b'
tRp487
(I1
(I1
I1
tg7
I00
S'\xbcd\x87\x10\xd8:\xfa\xbf'
tbsS'GTEX-T5JW'
p488
g3
(g4
(I0
tS'b'
tRp489
(I1
(I1
I1
tg7
I00
S'\x1c\x19\xb5>\x0c\x83\n@'
tbsS'GTEX-R53T'
p490
g3
(g4
(I0
tS'b'
tRp491
(I1
(I1
I1
tg7
I00
S'\xd7\xcb\x9c_\xb7\xdf\xec?'
tbsS'GTEX-WQUQ'
p492
g3
(g4
(I0
tS'b'
tRp493
(I1
(I1
I1
tg7
I00
S'0P\x17\xf6\xed\xbb\x0c\xc0'
tbsS'GTEX-111VG'
p494
g3
(g4
(I0
tS'b'
tRp495
(I1
(I1
I1
tg7
I00
S'iHQ\xb1!9\xf2?'
tbsS'GTEX-NFK9'
p496
g3
(g4
(I0
tS'b'
tRp497
(I1
(I1
I1
tg7
I00
S'S+@y\xbc\xb6\x00@'
tbsS'GTEX-T5JC'
p498
g3
(g4
(I0
tS'b'
tRp499
(I1
(I1
I1
tg7
I00
S'4\xa7p.\x82v\x00\xc0'
tbsS'GTEX-RVPV'
p500
g3
(g4
(I0
tS'b'
tRp501
(I1
(I1
I1
tg7
I00
S'C\x84\xb2=H\xb7\xf6?'
tbsS'GTEX-RVPU'
p502
g3
(g4
(I0
tS'b'
tRp503
(I1
(I1
I1
tg7
I00
S'\xeb7\xd5>\x94x\x01\xc0'
tbsS'GTEX-UTHO'
p504
g3
(g4
(I0
tS'b'
tRp505
(I1
(I1
I1
tg7
I00
S'\xc8\xd5\xb0H\xd7 \xf1\xbf'
tbsS'GTEX-11LCK'
p506
g3
(g4
(I0
tS'b'
tRp507
(I1
(I1
I1
tg7
I00
S'\x12\xab\x06\xe89\xf0\xf5\xbf'
tbsS'GTEX-X88G'
p508
g3
(g4
(I0
tS'b'
tRp509
(I1
(I1
I1
tg7
I00
S'\x8bs\xd2\xb0(\xd7\x04@'
tbsS'GTEX-QLQW'
p510
g3
(g4
(I0
tS'b'
tRp511
(I1
(I1
I1
tg7
I00
S'\xfe$\x95\xe0\x9b\xaf\x0f\xc0'
tbsS'GTEX-13PL7'
p512
g3
(g4
(I0
tS'b'
tRp513
(I1
(I1
I1
tg7
I00
S'G\xd97>\xb9\xd2\xfa\xbf'
tbsS'GTEX-13PL6'
p514
g3
(g4
(I0
tS'b'
tRp515
(I1
(I1
I1
tg7
I00
S'\x9b\xb0\x9f\xce\xab\x00\xf8\xbf'
tbsS'GTEX-11ZUS'
p516
g3
(g4
(I0
tS'b'
tRp517
(I1
(I1
I1
tg7
I00
S'\xbd\x97-\x1dQ\x87\xca?'
tbsS'GTEX-WFON'
p518
g3
(g4
(I0
tS'b'
tRp519
(I1
(I1
I1
tg7
I00
S'\xaf\x7fB\x92\xa0\xea\xc2?'
tbsS'GTEX-QVUS'
p520
g3
(g4
(I0
tS'b'
tRp521
(I1
(I1
I1
tg7
I00
S'c\x8b\xc2\xc3\x8a$\xeb\xbf'
tbsS'GTEX-U8T8'
p522
g3
(g4
(I0
tS'b'
tRp523
(I1
(I1
I1
tg7
I00
S'5\xd6\x0faA\xf4\xe7\xbf'
tbsS'GTEX-YFCO'
p524
g3
(g4
(I0
tS'b'
tRp525
(I1
(I1
I1
tg7
I00
S'\xbb\x8ec[\x9b;\xf0\xbf'
tbsS'GTEX-P78B'
p526
g3
(g4
(I0
tS'b'
tRp527
(I1
(I1
I1
tg7
I00
S'\x9b\xc9V\xa0l\x85\xf7?'
tbsS'GTEX-YFC4'
p528
g3
(g4
(I0
tS'b'
tRp529
(I1
(I1
I1
tg7
I00
S'H?1\x84\xca\x04\xb1\xbf'
tbsS'GTEX-11ZTT'
p530
g3
(g4
(I0
tS'b'
tRp531
(I1
(I1
I1
tg7
I00
S'\xe0\x1a)\\^G\n@'
tbsS'GTEX-11ZTS'
p532
g3
(g4
(I0
tS'b'
tRp533
(I1
(I1
I1
tg7
I00
S'\xef\xd8\x18\xea\xae<\xbf?'
tbsS'GTEX-13PLJ'
p534
g3
(g4
(I0
tS'b'
tRp535
(I1
(I1
I1
tg7
I00
S'(\x8a\xfb\xca\xab\xb5\x00@'
tbsS'GTEX-OOBJ'
p536
g3
(g4
(I0
tS'b'
tRp537
(I1
(I1
I1
tg7
I00
S'\xc0L~|m\x11\xd8?'
tbsS'GTEX-XOT4'
p538
g3
(g4
(I0
tS'b'
tRp539
(I1
(I1
I1
tg7
I00
S'\xe6\xdeK>\xd0\xf9\xe9?'
tbsS'GTEX-S4Q7'
p540
g3
(g4
(I0
tS'b'
tRp541
(I1
(I1
I1
tg7
I00
S'\x15\x0b\xc2\xc02\x17\x06@'
tbsS'GTEX-13FLW'
p542
g3
(g4
(I0
tS'b'
tRp543
(I1
(I1
I1
tg7
I00
S'\x83\xb2i\x071H\x00@'
tbsS'GTEX-13FLV'
p544
g3
(g4
(I0
tS'b'
tRp545
(I1
(I1
I1
tg7
I00
S'\xd6#^\xdf\xa7.\x08@'
tbsS'GTEX-QLQ7'
p546
g3
(g4
(I0
tS'b'
tRp547
(I1
(I1
I1
tg7
I00
S'G\xc1C\x1b\xed\xaa\xdb?'
tbsS'GTEX-RN64'
p548
g3
(g4
(I0
tS'b'
tRp549
(I1
(I1
I1
tg7
I00
S'\xb3\x85\xc6\xde\x1f\xf3\x03@'
tbsS'GTEX-ZYT6'
p550
g3
(g4
(I0
tS'b'
tRp551
(I1
(I1
I1
tg7
I00
S'\xd6\xd0\x13G\xb1\xe1\xfd\xbf'
tbsS'GTEX-11XUK'
p552
g3
(g4
(I0
tS'b'
tRp553
(I1
(I1
I1
tg7
I00
S'2\xa0\x152\xcf_\xd2?'
tbsS'GTEX-ZTSS'
p554
g3
(g4
(I0
tS'b'
tRp555
(I1
(I1
I1
tg7
I00
S'\xe4i\xc2JU~\x0f@'
tbsS'GTEX-1117F'
p556
g3
(g4
(I0
tS'b'
tRp557
(I1
(I1
I1
tg7
I00
S'\xd5O\xcb|l\x91\x04\xc0'
tbsS'GTEX-113JC'
p558
g3
(g4
(I0
tS'b'
tRp559
(I1
(I1
I1
tg7
I00
S'\xf2\xc6\xf6\x1a>%\x0c@'
tbsS'GTEX-Z9EW'
p560
g3
(g4
(I0
tS'b'
tRp561
(I1
(I1
I1
tg7
I00
S'\xe4\x93c&\xd9\x99\xd0\xbf'
tbsS'GTEX-ZPU1'
p562
g3
(g4
(I0
tS'b'
tRp563
(I1
(I1
I1
tg7
I00
S'\x06a1[\x17\xbb\xd2\xbf'
tbsS'GTEX-XUJ4'
p564
g3
(g4
(I0
tS'b'
tRp565
(I1
(I1
I1
tg7
I00
S'Z\xf6f\xd8\xb7\xb1\xf3\xbf'
tbsS'GTEX-11DZ1'
p566
g3
(g4
(I0
tS'b'
tRp567
(I1
(I1
I1
tg7
I00
S'W|\xd1go\x88\x0b@'
tbsS'GTEX-R3RS'
p568
g3
(g4
(I0
tS'b'
tRp569
(I1
(I1
I1
tg7
I00
S'\x12\x9e\x1a\x1b\x8aF\x16\xc0'
tbsS'GTEX-13NZ8'
p570
g3
(g4
(I0
tS'b'
tRp571
(I1
(I1
I1
tg7
I00
S'\x93\xe8\x10\xc7\xf8\xe8\xed\xbf'
tbsS'GTEX-QMR6'
p572
g3
(g4
(I0
tS'b'
tRp573
(I1
(I1
I1
tg7
I00
S'\xd8\xf7l\x18\xd6e\x14@'
tbsS'GTEX-WRHU'
p574
g3
(g4
(I0
tS'b'
tRp575
(I1
(I1
I1
tg7
I00
S'>N\xc0\xcbE\xc6\xe1\xbf'
tbsS'GTEX-WCDI'
p576
g3
(g4
(I0
tS'b'
tRp577
(I1
(I1
I1
tg7
I00
S'\x17Y\xe1&\xe8\x92\x19@'
tbsS'GTEX-QMRM'
p578
g3
(g4
(I0
tS'b'
tRp579
(I1
(I1
I1
tg7
I00
S'IY\xde\xd5\xd9r\x0b@'
tbsS'GTEX-TMZS'
p580
g3
(g4
(I0
tS'b'
tRp581
(I1
(I1
I1
tg7
I00
S'\x98\x87\x0c;\x03\xd1\x13@'
tbsS'GTEX-13NZB'
p582
g3
(g4
(I0
tS'b'
tRp583
(I1
(I1
I1
tg7
I00
S'\xc0 \xaf\xab\xf0\xf3\x0b@'
tbsS'GTEX-13NZA'
p584
g3
(g4
(I0
tS'b'
tRp585
(I1
(I1
I1
tg7
I00
S'\x9f\xc5\xdaW\xee\xc5\x08@'
tbsS'GTEX-12ZZX'
p586
g3
(g4
(I0
tS'b'
tRp587
(I1
(I1
I1
tg7
I00
S'\xbb9K\xc4k\xf3\t@'
tbsS'GTEX-13OW8'
p588
g3
(g4
(I0
tS'b'
tRp589
(I1
(I1
I1
tg7
I00
S'\xa0\xae\x1b\xca\x88T\xe8\xbf'
tbsS'GTEX-13OW5'
p590
g3
(g4
(I0
tS'b'
tRp591
(I1
(I1
I1
tg7
I00
S'\xd8R\xe0\xf9\xe0R\x08@'
tbsS'GTEX-13OW7'
p592
g3
(g4
(I0
tS'b'
tRp593
(I1
(I1
I1
tg7
I00
S'\xadnF\x12xW\x05\xc0'
tbsS'GTEX-13OW6'
p594
g3
(g4
(I0
tS'b'
tRp595
(I1
(I1
I1
tg7
I00
S'\x86`\xfbF\xf8\xd9\x02@'
tbsS'GTEX-U4B1'
p596
g3
(g4
(I0
tS'b'
tRp597
(I1
(I1
I1
tg7
I00
S'2\xe5)\x99-E\x02@'
tbsS'GTEX-11P81'
p598
g3
(g4
(I0
tS'b'
tRp599
(I1
(I1
I1
tg7
I00
S'\xe6G1\x08L\x0e\x0b@'
tbsS'GTEX-11P82'
p600
g3
(g4
(I0
tS'b'
tRp601
(I1
(I1
I1
tg7
I00
S'qj\x88\x05%z\xe1\xbf'
tbsS'GTEX-117YW'
p602
g3
(g4
(I0
tS'b'
tRp603
(I1
(I1
I1
tg7
I00
S'\x1dJUp\r\xbb\xd6\xbf'
tbsS'GTEX-12KS4'
p604
g3
(g4
(I0
tS'b'
tRp605
(I1
(I1
I1
tg7
I00
S'\xaa\xfa\x99\xc3jQ\xc8?'
tbsS'GTEX-X62O'
p606
g3
(g4
(I0
tS'b'
tRp607
(I1
(I1
I1
tg7
I00
S'{\xae\xe5\xbe!I\xd8\xbf'
tbsS'GTEX-13FH7'
p608
g3
(g4
(I0
tS'b'
tRp609
(I1
(I1
I1
tg7
I00
S'\xb9\x90\x1fH\xe5 \x10@'
tbsS'GTEX-ZPIC'
p610
g3
(g4
(I0
tS'b'
tRp611
(I1
(I1
I1
tg7
I00
S'\xee\x8a\x8eV\x11\xae\xfd?'
tbsS'GTEX-117XS'
p612
g3
(g4
(I0
tS'b'
tRp613
(I1
(I1
I1
tg7
I00
S'=\x9f\x94V\x16\x00\x04\xc0'
tbsS'GTEX-OOBK'
p614
g3
(g4
(I0
tS'b'
tRp615
(I1
(I1
I1
tg7
I00
S'\x95n\xd9\xe5j\t\xc6?'
tbsS'GTEX-12584'
p616
g3
(g4
(I0
tS'b'
tRp617
(I1
(I1
I1
tg7
I00
S'\xfd\xbf\xab\xcb\xf0~\xcc\xbf'
tbsS'GTEX-12ZZZ'
p618
g3
(g4
(I0
tS'b'
tRp619
(I1
(I1
I1
tg7
I00
S'\xa5;:\xd5\xd3\xef\x01\xc0'
tbsS'GTEX-Y114'
p620
g3
(g4
(I0
tS'b'
tRp621
(I1
(I1
I1
tg7
I00
S'\x10\xed\xd8l\xd7\xc0\xd8?'
tbsS'GTEX-S33H'
p622
g3
(g4
(I0
tS'b'
tRp623
(I1
(I1
I1
tg7
I00
S'=k\xba\xe8$\x96\xf8\xbf'
tbsS'GTEX-Y111'
p624
g3
(g4
(I0
tS'b'
tRp625
(I1
(I1
I1
tg7
I00
S'29;\x0f\xa3k\x04\xc0'
tbsS'GTEX-ZYFC'
p626
g3
(g4
(I0
tS'b'
tRp627
(I1
(I1
I1
tg7
I00
S'=g\xde\xd2-\xd4\xec?'
tbsS'GTEX-ZYFG'
p628
g3
(g4
(I0
tS'b'
tRp629
(I1
(I1
I1
tg7
I00
S'|\x8d\x83\xad\xe8\xf9\xfb?'
tbsS'GTEX-OHPN'
p630
g3
(g4
(I0
tS'b'
tRp631
(I1
(I1
I1
tg7
I00
S'<\x95\xdd\xe2\xae\x16\xfd?'
tbsS'GTEX-OHPM'
p632
g3
(g4
(I0
tS'b'
tRp633
(I1
(I1
I1
tg7
I00
S'\xc9\xbc\x13\xd2\x8e\xe2\x02@'
tbsS'GTEX-ZYFD'
p634
g3
(g4
(I0
tS'b'
tRp635
(I1
(I1
I1
tg7
I00
S'\xfe\x81\xb8g_\x19\xee?'
tbsS'GTEX-Z93S'
p636
g3
(g4
(I0
tS'b'
tRp637
(I1
(I1
I1
tg7
I00
S'\xc9g\xaa\xc3\xa2I\xfd\xbf'
tbsS'GTEX-Z93T'
p638
g3
(g4
(I0
tS'b'
tRp639
(I1
(I1
I1
tg7
I00
S'6WA\xe4\xa7\x9a\x14@'
tbsS'GTEX-UPK5'
p640
g3
(g4
(I0
tS'b'
tRp641
(I1
(I1
I1
tg7
I00
S'\x9dvN\xe30\x8d\xfe?'
tbsS'GTEX-13U4I'
p642
g3
(g4
(I0
tS'b'
tRp643
(I1
(I1
I1
tg7
I00
S'Z\x1b\xd4\xc7\xe3\x01\xd7\xbf'
tbsS'GTEX-Y5LM'
p644
g3
(g4
(I0
tS'b'
tRp645
(I1
(I1
I1
tg7
I00
S'WoK\x1bu{\xea?'
tbsS'GTEX-QESD'
p646
g3
(g4
(I0
tS'b'
tRp647
(I1
(I1
I1
tg7
I00
S'\xa0\xda\xf8\n\xb6\x0e\x00@'
tbsS'GTEX-UJHI'
p648
g3
(g4
(I0
tS'b'
tRp649
(I1
(I1
I1
tg7
I00
S'\np\xe9\xa4Y\x15\xf2?'
tbsS'GTEX-S3XE'
p650
g3
(g4
(I0
tS'b'
tRp651
(I1
(I1
I1
tg7
I00
S'\x85yef\x98\xaf\xe8?'
tbsS'GTEX-11EQ9'
p652
g3
(g4
(I0
tS'b'
tRp653
(I1
(I1
I1
tg7
I00
S'\xe8~\x82\x88w\x1b\xf9\xbf'
tbsS'GTEX-11EQ8'
p654
g3
(g4
(I0
tS'b'
tRp655
(I1
(I1
I1
tg7
I00
S'`\xc3\x08\xe7a\xe1\xdf?'
tbsS'GTEX-RM2N'
p656
g3
(g4
(I0
tS'b'
tRp657
(I1
(I1
I1
tg7
I00
S'\xe41Vro\x14\xf0\xbf'
tbsS'GTEX-13FHP'
p658
g3
(g4
(I0
tS'b'
tRp659
(I1
(I1
I1
tg7
I00
S'\xe9\x04M\xef\x888\xf3?'
tbsS'GTEX-XMD3'
p660
g3
(g4
(I0
tS'b'
tRp661
(I1
(I1
I1
tg7
I00
S'\xf7@\x92\xa8\xac\xcb\xf1\xbf'
tbsS'GTEX-XMD2'
p662
g3
(g4
(I0
tS'b'
tRp663
(I1
(I1
I1
tg7
I00
S'\xedrw\x9c6M\xf9\xbf'
tbsS'GTEX-XMD1'
p664
g3
(g4
(I0
tS'b'
tRp665
(I1
(I1
I1
tg7
I00
S'\xdeF")\x12\xb1\xca\xbf'
tbsS'GTEX-11TUW'
p666
g3
(g4
(I0
tS'b'
tRp667
(I1
(I1
I1
tg7
I00
S'\xe5?\xc8\x8c\x04Q\xe6?'
tbsS'GTEX-U412'
p668
g3
(g4
(I0
tS'b'
tRp669
(I1
(I1
I1
tg7
I00
S'M\xfd\xb7\xf0\x13\x95\xee\xbf'
tbsS'GTEX-1339X'
p670
g3
(g4
(I0
tS'b'
tRp671
(I1
(I1
I1
tg7
I00
S'\xbd\xaa\x16\x89\xa4F\x00\xc0'
tbsS'GTEX-XV7Q'
p672
g3
(g4
(I0
tS'b'
tRp673
(I1
(I1
I1
tg7
I00
S'5\x9d\x92\xef\xf2\xc0\xd5?'
tbsS'GTEX-12126'
p674
g3
(g4
(I0
tS'b'
tRp675
(I1
(I1
I1
tg7
I00
S'\x1aN\x86\xe7\xe4\xd3\x06\xc0'
tbsS'GTEX-ZLWG'
p676
g3
(g4
(I0
tS'b'
tRp677
(I1
(I1
I1
tg7
I00
S'\x1bZ\xc9Q\x894\x03@'
tbsS'GTEX-VJYA'
p678
g3
(g4
(I0
tS'b'
tRp679
(I1
(I1
I1
tg7
I00
S'\xd6]\xe1\x15\x92\xc0\n@'
tbsS'GTEX-ZTX8'
p680
g3
(g4
(I0
tS'b'
tRp681
(I1
(I1
I1
tg7
I00
S'1<Db\x18\xa8\xf5?'
tbsS'GTEX-ZVT2'
p682
g3
(g4
(I0
tS'b'
tRp683
(I1
(I1
I1
tg7
I00
S'\xee\x8b\xd3\x9f\xcb\xc8\xf8?'
tbsS'GTEX-ZVT3'
p684
g3
(g4
(I0
tS'b'
tRp685
(I1
(I1
I1
tg7
I00
S'\xae\x84\xb10{\xdf\xf1?'
tbsS'GTEX-WXYG'
p686
g3
(g4
(I0
tS'b'
tRp687
(I1
(I1
I1
tg7
I00
S'\r~\n\x96\xc8\xfc\x01@'
tbsS'GTEX-ZVT4'
p688
g3
(g4
(I0
tS'b'
tRp689
(I1
(I1
I1
tg7
I00
S'u\xc1A\xbc_\xe7\x00\xc0'
tbsS'GTEX-TML8'
p690
g3
(g4
(I0
tS'b'
tRp691
(I1
(I1
I1
tg7
I00
S'\x8c\xc6\xf3\xee\xc7\xed\xd4?'
tbsS'GTEX-13FTY'
p692
g3
(g4
(I0
tS'b'
tRp693
(I1
(I1
I1
tg7
I00
S'\xc34\xa6R=\xbc\x04\xc0'
tbsS'GTEX-13FTX'
p694
g3
(g4
(I0
tS'b'
tRp695
(I1
(I1
I1
tg7
I00
S'\xf1\xbf(#Ug\xeb\xbf'
tbsS'GTEX-13FTZ'
p696
g3
(g4
(I0
tS'b'
tRp697
(I1
(I1
I1
tg7
I00
S'`(kU\x88\x96\x18\xc0'
tbsS'GTEX-13S86'
p698
g3
(g4
(I0
tS'b'
tRp699
(I1
(I1
I1
tg7
I00
S'\x94\x19z\xfd7\x9b\xed\xbf'
tbsS'GTEX-W5X1'
p700
g3
(g4
(I0
tS'b'
tRp701
(I1
(I1
I1
tg7
I00
S'\xc0\xd3p\xb1)\x87\xfd\xbf'
tbsS'GTEX-ZAJG'
p702
g3
(g4
(I0
tS'b'
tRp703
(I1
(I1
I1
tg7
I00
S'\xb2\xdb\xc4\x9c7\x05\xab\xbf'
tbsS'GTEX-SNMC'
p704
g3
(g4
(I0
tS'b'
tRp705
(I1
(I1
I1
tg7
I00
S'\xf4\x1bI7W\xf3\xf4\xbf'
tbsS'GTEX-13FTW'
p706
g3
(g4
(I0
tS'b'
tRp707
(I1
(I1
I1
tg7
I00
S'\xcdu@\xeaZ"\xfa\xbf'
tbsS'GTEX-11NUK'
p708
g3
(g4
(I0
tS'b'
tRp709
(I1
(I1
I1
tg7
I00
S'\x9ahYv\x88\x03\xf4\xbf'
tbsS'GTEX-ZVTK'
p710
g3
(g4
(I0
tS'b'
tRp711
(I1
(I1
I1
tg7
I00
S'\xccX\xe5\xb62R\xfe\xbf'
tbsS'GTEX-ZZ64'
p712
g3
(g4
(I0
tS'b'
tRp713
(I1
(I1
I1
tg7
I00
S'\x85wU\xc6+\xf5\xd5\xbf'
tbsS'GTEX-PWO3'
p714
g3
(g4
(I0
tS'b'
tRp715
(I1
(I1
I1
tg7
I00
S'\x85\x15\xac\xde\xdee\xe9?'
tbsS'GTEX-13NYS'
p716
g3
(g4
(I0
tS'b'
tRp717
(I1
(I1
I1
tg7
I00
S'\xe2\xeb\x83\x19\xa6\xcd\x9b?'
tbsS'GTEX-1212Z'
p718
g3
(g4
(I0
tS'b'
tRp719
(I1
(I1
I1
tg7
I00
S'\x9a\xa3\xaa^R[\x01\xc0'
tbsS'GTEX-11I78'
p720
g3
(g4
(I0
tS'b'
tRp721
(I1
(I1
I1
tg7
I00
S'D\xe8\x06\xa0\xea\xda\xf6?'
tbsS'GTEX-13NYB'
p722
g3
(g4
(I0
tS'b'
tRp723
(I1
(I1
I1
tg7
I00
S'm\x10\xdf\x92\xbd\xcd\xf2?'
tbsS'GTEX-13NYC'
p724
g3
(g4
(I0
tS'b'
tRp725
(I1
(I1
I1
tg7
I00
S'[\x96%\x83\x05\xc7\x13\xc0'
tbsS'GTEX-Y9LG'
p726
g3
(g4
(I0
tS'b'
tRp727
(I1
(I1
I1
tg7
I00
S'\xe4\xc0\xd9\xba\x1c\xa6\x03@'
tbsS'GTEX-X5EB'
p728
g3
(g4
(I0
tS'b'
tRp729
(I1
(I1
I1
tg7
I00
S'\xb2\xca\x143\xa0\xce\xed\xbf'
tbsS'GTEX-1399Q'
p730
g3
(g4
(I0
tS'b'
tRp731
(I1
(I1
I1
tg7
I00
S'\x89\x16\xb1\xb2H\x06\xf0?'
tbsS'GTEX-POYW'
p732
g3
(g4
(I0
tS'b'
tRp733
(I1
(I1
I1
tg7
I00
S'p9.(\x90z\x00@'
tbsS'GTEX-1399R'
p734
g3
(g4
(I0
tS'b'
tRp735
(I1
(I1
I1
tg7
I00
S'\x1eG\xfcB\x000\xf2?'
tbsS'GTEX-1399U'
p736
g3
(g4
(I0
tS'b'
tRp737
(I1
(I1
I1
tg7
I00
S'\xf7w>&=\x80\xee?'
tbsS'GTEX-1399T'
p738
g3
(g4
(I0
tS'b'
tRp739
(I1
(I1
I1
tg7
I00
S'\xfc\xd7\xb3\xc8\xc6\xed\x0f@'
tbsS'GTEX-13X6I'
p740
g3
(g4
(I0
tS'b'
tRp741
(I1
(I1
I1
tg7
I00
S'\xff\x1c\x0c\xc1[:\x11\xc0'
tbsS'GTEX-13X6H'
p742
g3
(g4
(I0
tS'b'
tRp743
(I1
(I1
I1
tg7
I00
S'\\TQ\x1e2\x19\xff?'
tbsS'GTEX-13X6K'
p744
g3
(g4
(I0
tS'b'
tRp745
(I1
(I1
I1
tg7
I00
S'\xeaIv_\xb5\xf2\x03@'
tbsS'GTEX-13X6J'
p746
g3
(g4
(I0
tS'b'
tRp747
(I1
(I1
I1
tg7
I00
S'\xb7\xb9\x9e\xc8\xe2\x0f\xe0?'
tbsS'GTEX-ZXG5'
p748
g3
(g4
(I0
tS'b'
tRp749
(I1
(I1
I1
tg7
I00
S'&\x90,\xd4\x06\xd4\xd8?'
tbsS'GTEX-11ZU8'
p750
g3
(g4
(I0
tS'b'
tRp751
(I1
(I1
I1
tg7
I00
S'\xc0\x8d\x94\xe4c\n\x0b@'
tbsS'GTEX-QVJO'
p752
g3
(g4
(I0
tS'b'
tRp753
(I1
(I1
I1
tg7
I00
S'\xa85d^\xc1\x9d\xdf?'
tbsS'GTEX-RWS6'
p754
g3
(g4
(I0
tS'b'
tRp755
(I1
(I1
I1
tg7
I00
S'\xb0\x9az\xe9u5\xe2\xbf'
tbsS'GTEX-ZP4G'
p756
g3
(g4
(I0
tS'b'
tRp757
(I1
(I1
I1
tg7
I00
S'\x83\xc3\xdb\xdf\xfd\x1b\xf0\xbf'
tbsS'GTEX-Y8E4'
p758
g3
(g4
(I0
tS'b'
tRp759
(I1
(I1
I1
tg7
I00
S'\xf5\x03*d\x81\x13\xf4?'
tbsS'GTEX-Y8E5'
p760
g3
(g4
(I0
tS'b'
tRp761
(I1
(I1
I1
tg7
I00
S'\xcd@\xb8\xec\xbe\xbf\x11\xc0'
tbsS'GTEX-WH7G'
p762
g3
(g4
(I0
tS'b'
tRp763
(I1
(I1
I1
tg7
I00
S'\xf6^\x892\xacB\xf0?'
tbsS'GTEX-WEY5'
p764
g3
(g4
(I0
tS'b'
tRp765
(I1
(I1
I1
tg7
I00
S'I\xf2v\x82\x17z\xf2?'
tbsS'GTEX-11P7K'
p766
g3
(g4
(I0
tS'b'
tRp767
(I1
(I1
I1
tg7
I00
S'n\x8a^\x89\xd7\x99\xd3?'
tbsS'GTEX-S7PM'
p768
g3
(g4
(I0
tS'b'
tRp769
(I1
(I1
I1
tg7
I00
S'=\xa7\xde\x98\x1a\xe3\x11\xc0'
tbsS'GTEX-V1D1'
p770
g3
(g4
(I0
tS'b'
tRp771
(I1
(I1
I1
tg7
I00
S'Y\x8d\x12\xb9\xcd\x8c\xfb\xbf'
tbsS'GTEX-WRHK'
p772
g3
(g4
(I0
tS'b'
tRp773
(I1
(I1
I1
tg7
I00
S'n\xce\tx\xfa\xc1\x14@'
tbsS'GTEX-R55C'
p774
g3
(g4
(I0
tS'b'
tRp775
(I1
(I1
I1
tg7
I00
S'\xc2P\x0fz\t\xfc\xf6\xbf'
tbsS'GTEX-R55F'
p776
g3
(g4
(I0
tS'b'
tRp777
(I1
(I1
I1
tg7
I00
S'.\x1a\x82\x88^\xb0\xe5\xbf'
tbsS'GTEX-R55G'
p778
g3
(g4
(I0
tS'b'
tRp779
(I1
(I1
I1
tg7
I00
S'6L\t\xafo\xcf\xbc?'
tbsS'GTEX-R55D'
p780
g3
(g4
(I0
tS'b'
tRp781
(I1
(I1
I1
tg7
I00
S']\xf8\x1a\xca\xe9Z\x08\xc0'
tbsS'GTEX-R55E'
p782
g3
(g4
(I0
tS'b'
tRp783
(I1
(I1
I1
tg7
I00
S'\xd9\x0e\xff\xcfl\x12\xff\xbf'
tbsS'GTEX-PSDG'
p784
g3
(g4
(I0
tS'b'
tRp785
(I1
(I1
I1
tg7
I00
S'L\xdf\x030\x9bJ\xf6\xbf'
tbsS'GTEX-RWSA'
p786
g3
(g4
(I0
tS'b'
tRp787
(I1
(I1
I1
tg7
I00
S'\xd9h\x84&\xb0\xe2\x04\xc0'
tbsS'GTEX-1122O'
p788
g3
(g4
(I0
tS'b'
tRp789
(I1
(I1
I1
tg7
I00
S'Q\xf2N\xa2\xb2\xe5\xe7?'
tbsS'GTEX-X4EO'
p790
g3
(g4
(I0
tS'b'
tRp791
(I1
(I1
I1
tg7
I00
S'\xa8Q\x15\x84=\xaa\xe5\xbf'
tbsS'GTEX-WVLH'
p792
g3
(g4
(I0
tS'b'
tRp793
(I1
(I1
I1
tg7
I00
S'je\xdb\xf0\x8f\xd3\x11\xc0'
tbsS'GTEX-13N1W'
p794
g3
(g4
(I0
tS'b'
tRp795
(I1
(I1
I1
tg7
I00
S'\x00\xcd\x15\xaeQ\x9f\xff\xbf'
tbsS'GTEX-X4EP'
p796
g3
(g4
(I0
tS'b'
tRp797
(I1
(I1
I1
tg7
I00
S'\\\xc4\xd5\x7f\x17\x1d\xe0?'
tbsS'GTEX-YB5E'
p798
g3
(g4
(I0
tS'b'
tRp799
(I1
(I1
I1
tg7
I00
S'*\xa9<\x93\x1e\xd7\xed?'
tbsS'GTEX-RU1J'
p800
g3
(g4
(I0
tS'b'
tRp801
(I1
(I1
I1
tg7
I00
S'\xf5^\xa8>"\xae\xd1?'
tbsS'GTEX-11GSP'
p802
g3
(g4
(I0
tS'b'
tRp803
(I1
(I1
I1
tg7
I00
S'!\xab\x9e5\xb6\x87\xd9\xbf'
tbsS'GTEX-11GSO'
p804
g3
(g4
(I0
tS'b'
tRp805
(I1
(I1
I1
tg7
I00
S'\xca\x86:\xc0\xd5\xe2\x05@'
tbsS'GTEX-12ZZY'
p806
g3
(g4
(I0
tS'b'
tRp807
(I1
(I1
I1
tg7
I00
S'\xdc\xcc\x98\xe7\x1ai\x0c\xc0'
tbsS'GTEX-11UD2'
p808
g3
(g4
(I0
tS'b'
tRp809
(I1
(I1
I1
tg7
I00
S'\x1fZ\xa4\xf2\x11f\xf3\xbf'
tbsS'GTEX-11PRG'
p810
g3
(g4
(I0
tS'b'
tRp811
(I1
(I1
I1
tg7
I00
S'yu\xbe\xea\xd5\xb1\t@'
tbsS'GTEX-SN8G'
p812
g3
(g4
(I0
tS'b'
tRp813
(I1
(I1
I1
tg7
I00
S'(/r\xd4\n,\xf4\xbf'
tbsS'GTEX-ZVP2'
p814
g3
(g4
(I0
tS'b'
tRp815
(I1
(I1
I1
tg7
I00
S'\xdd\xbbrZ\x9b\x9d\x00\xc0'
tbsS'GTEX-12ZZW'
p816
g3
(g4
(I0
tS'b'
tRp817
(I1
(I1
I1
tg7
I00
S'\t\x07\xea\xa7D\xcd\xd3\xbf'
tbsS'GTEX-YB5K'
p818
g3
(g4
(I0
tS'b'
tRp819
(I1
(I1
I1
tg7
I00
S'uJ\x87\x19\n\xd2\xfc\xbf'
tbsS'GTEX-13W3W'
p820
g3
(g4
(I0
tS'b'
tRp821
(I1
(I1
I1
tg7
I00
S'eM\x82\x04\xbdZ\xfa\xbf'
tbsS'GTEX-S4Z8'
p822
g3
(g4
(I0
tS'b'
tRp823
(I1
(I1
I1
tg7
I00
S'\xe3C\xfb\x95t\x17\xff?'
tbsS'GTEX-1211K'
p824
g3
(g4
(I0
tS'b'
tRp825
(I1
(I1
I1
tg7
I00
S"\x13\x81\xee'\xcf\xa9\xe0?"
tbsS'GTEX-ZG7Y'
p826
g3
(g4
(I0
tS'b'
tRp827
(I1
(I1
I1
tg7
I00
S'\xf1\x88a$\x02\xa7\xf3?'
tbsS'GTEX-ZA64'
p828
g3
(g4
(I0
tS'b'
tRp829
(I1
(I1
I1
tg7
I00
S'\x1dFv7\x15p\x10@'
tbsS'GTEX-QCQG'
p830
g3
(g4
(I0
tS'b'
tRp831
(I1
(I1
I1
tg7
I00
S'\xceB\xe4\xe6\x85I\xf9\xbf'
tbsS'GTEX-11DYG'
p832
g3
(g4
(I0
tS'b'
tRp833
(I1
(I1
I1
tg7
I00
S'o?Cd\x83\xfd\xd4?'
tbsS'GTEX-S95S'
p834
g3
(g4
(I0
tS'b'
tRp835
(I1
(I1
I1
tg7
I00
S'<\x142\x8b\xb1\xee\x05@'
tbsS'GTEX-Y5V6'
p836
g3
(g4
(I0
tS'b'
tRp837
(I1
(I1
I1
tg7
I00
S'oz\xdc\x9c\xec%\t@'
tbsS'GTEX-Y5V5'
p838
g3
(g4
(I0
tS'b'
tRp839
(I1
(I1
I1
tg7
I00
S',\xcb\xb4$:D\xc0\xbf'
tbsS'GTEX-11GS4'
p840
g3
(g4
(I0
tS'b'
tRp841
(I1
(I1
I1
tg7
I00
S'\xf6\n\xa54\x0b\xe4\xf2\xbf'
tbsS'GTEX-QDT8'
p842
g3
(g4
(I0
tS'b'
tRp843
(I1
(I1
I1
tg7
I00
S'\x87V\xccB\xee\x0b\xec\xbf'
tbsS'GTEX-QXCU'
p844
g3
(g4
(I0
tS'b'
tRp845
(I1
(I1
I1
tg7
I00
S'\xa0\xe7W+\x08S\xa6?'
tbsS'GTEX-YBZK'
p846
g3
(g4
(I0
tS'b'
tRp847
(I1
(I1
I1
tg7
I00
S'\x9a\x8b\x173\xaf\x05\x0b\xc0'
tbsS'GTEX-SSA3'
p848
g3
(g4
(I0
tS'b'
tRp849
(I1
(I1
I1
tg7
I00
S'+\\RWP\xa7\r@'
tbsS'GTEX-PX3G'
p850
g3
(g4
(I0
tS'b'
tRp851
(I1
(I1
I1
tg7
I00
S'\xb2\xe0\xf9\xc5,"\xfc\xbf'
tbsS'GTEX-V955'
p852
g3
(g4
(I0
tS'b'
tRp853
(I1
(I1
I1
tg7
I00
S'\xeal4\xa5\xd5\x9b\xee\xbf'
tbsS'GTEX-11TTK'
p854
g3
(g4
(I0
tS'b'
tRp855
(I1
(I1
I1
tg7
I00
S'[\x1c\x98.[\xad\xd2\xbf'
tbsS'GTEX-ZV7C'
p856
g3
(g4
(I0
tS'b'
tRp857
(I1
(I1
I1
tg7
I00
S'y\xf4Bl\xf2\x80\x05\xc0'
tbsS'GTEX-11ZVC'
p858
g3
(g4
(I0
tS'b'
tRp859
(I1
(I1
I1
tg7
I00
S'\x0fH\x87\xc6"\x06\xf2\xbf'
tbsS'GTEX-11EI6'
p860
g3
(g4
(I0
tS'b'
tRp861
(I1
(I1
I1
tg7
I00
S'c[\xde8"M\xe1\xbf'
tbsS'GTEX-S7SF'
p862
g3
(g4
(I0
tS'b'
tRp863
(I1
(I1
I1
tg7
I00
S'n.\xb3{\xe8\xc8\xfc?'
tbsS'GTEX-11TT1'
p864
g3
(g4
(I0
tS'b'
tRp865
(I1
(I1
I1
tg7
I00
S'by\xd7a\x93m\xf7\xbf'
tbsS'GTEX-ZGAY'
p866
g3
(g4
(I0
tS'b'
tRp867
(I1
(I1
I1
tg7
I00
S'\x8d\xb6o\xbfs\xf2\xf1?'
tbsS'GTEX-R45C'
p868
g3
(g4
(I0
tS'b'
tRp869
(I1
(I1
I1
tg7
I00
S'\x91l0u\xe8U\xfa\xbf'
tbsS'GTEX-XAJ8'
p870
g3
(g4
(I0
tS'b'
tRp871
(I1
(I1
I1
tg7
I00
S'}\xedE:\xb1\xb6\xbd?'
tbsS'GTEX-13IVO'
p872
g3
(g4
(I0
tS'b'
tRp873
(I1
(I1
I1
tg7
I00
S'\x00v\x9cI\xa3\xba\xfb\xbf'
tbsS'GTEX-RUSQ'
p874
g3
(g4
(I0
tS'b'
tRp875
(I1
(I1
I1
tg7
I00
S'\xba\x18\xb8J\x0f$\x15@'
tbsS'GTEX-VJWN'
p876
g3
(g4
(I0
tS'b'
tRp877
(I1
(I1
I1
tg7
I00
S'\x9c}\xff\xa6\xabc\xff\xbf'
tbsS'GTEX-U8XE'
p878
g3
(g4
(I0
tS'b'
tRp879
(I1
(I1
I1
tg7
I00
S'\xd9\x93\t\xadG\xf7\x91\xbf'
tbsS'GTEX-XQ8I'
p880
g3
(g4
(I0
tS'b'
tRp881
(I1
(I1
I1
tg7
I00
S'?\x80]\x7f\x82x\xf0\xbf'
tbsS'GTEX-SNOS'
p882
g3
(g4
(I0
tS'b'
tRp883
(I1
(I1
I1
tg7
I00
S'P\xde\x10\x08l\xd6\xf5?'
tbsS'GTEX-QV31'
p884
g3
(g4
(I0
tS'b'
tRp885
(I1
(I1
I1
tg7
I00
S'\xfa\xdd\x062\x93\xc4\xd9?'
tbsS'GTEX-S7SE'
p886
g3
(g4
(I0
tS'b'
tRp887
(I1
(I1
I1
tg7
I00
S'0\x8c\xc6B[\x1f\xc1\xbf'
tbsS'GTEX-145MF'
p888
g3
(g4
(I0
tS'b'
tRp889
(I1
(I1
I1
tg7
I00
S'i\x93s.\xb2\xbe\xea\xbf'
tbsS'GTEX-145MG'
p890
g3
(g4
(I0
tS'b'
tRp891
(I1
(I1
I1
tg7
I00
S'i\xfaw\xaa\xa5\x96\x03\xc0'
tbsS'GTEX-145MH'
p892
g3
(g4
(I0
tS'b'
tRp893
(I1
(I1
I1
tg7
I00
S'\x90\xc4\x14Xu\xdd\x07\xc0'
tbsS'GTEX-WYJK'
p894
g3
(g4
(I0
tS'b'
tRp895
(I1
(I1
I1
tg7
I00
S'\n\xddNo<8\xeb?'
tbsS'GTEX-145MO'
p896
g3
(g4
(I0
tS'b'
tRp897
(I1
(I1
I1
tg7
I00
S'I\xd0\xa6\xb5\xec\xae\xf8\xbf'
tbs.