(dp1
S'GTEX-YJ89'
p2
cnumpy.core.multiarray
_reconstruct
p3
(cnumpy
ndarray
p4
(I0
tS'b'
tRp5
(I1
(I1
I1
tcnumpy
dtype
p6
(S'f8'
I0
I1
tRp7
(I3
S'<'
NNNI-1
I-1
I0
tbI00
S'\xd3\t}%\x17\xec\x08@'
tbsS'GTEX-XPVG'
p8
g3
(g4
(I0
tS'b'
tRp9
(I1
(I1
I1
tg7
I00
S'\x87\xad\xe5\x9c\x1e\x8b\xe9?'
tbsS'GTEX-TMMY'
p10
g3
(g4
(I0
tS'b'
tRp11
(I1
(I1
I1
tg7
I00
S'\xa1h\xcd\x98!\xc0\xee\xbf'
tbsS'GTEX-13IVO'
p12
g3
(g4
(I0
tS'b'
tRp13
(I1
(I1
I1
tg7
I00
S'\xe7\xd9\xa2\xa1\xde:\x1e\xc0'
tbsS'GTEX-WWYW'
p14
g3
(g4
(I0
tS'b'
tRp15
(I1
(I1
I1
tg7
I00
S'\xb9\x8c\x18Q^i\x16\xc0'
tbsS'GTEX-111FC'
p16
g3
(g4
(I0
tS'b'
tRp17
(I1
(I1
I1
tg7
I00
S'&\xedj\xfc&\xcb\x03@'
tbsS'GTEX-139T8'
p18
g3
(g4
(I0
tS'b'
tRp19
(I1
(I1
I1
tg7
I00
S'^\xd5J-l\xb8\x12\xc0'
tbsS'GTEX-139T6'
p20
g3
(g4
(I0
tS'b'
tRp21
(I1
(I1
I1
tg7
I00
S'\x19\x0c\xe0\xc2\xfa\xa0\xe6?'
tbsS'GTEX-13O1R'
p22
g3
(g4
(I0
tS'b'
tRp23
(I1
(I1
I1
tg7
I00
S'&q@\xa8\xcd\x13\xd2\xbf'
tbsS'GTEX-TKQ1'
p24
g3
(g4
(I0
tS'b'
tRp25
(I1
(I1
I1
tg7
I00
S'u\xe0\xa9\x98gf\xf5\xbf'
tbsS'GTEX-ZVE1'
p26
g3
(g4
(I0
tS'b'
tRp27
(I1
(I1
I1
tg7
I00
S'PU\n[#\xce\xfe\xbf'
tbsS'GTEX-Q2AG'
p28
g3
(g4
(I0
tS'b'
tRp29
(I1
(I1
I1
tg7
I00
S'\x83\xb4\x95\xb9\x00\xfe\xc2\xbf'
tbsS'GTEX-Q2AH'
p30
g3
(g4
(I0
tS'b'
tRp31
(I1
(I1
I1
tg7
I00
S'\x8bm\x0b\xf8\xeb%\x0f\xc0'
tbsS'GTEX-Q2AI'
p32
g3
(g4
(I0
tS'b'
tRp33
(I1
(I1
I1
tg7
I00
S'\xcd1fsL\x8f\t\xc0'
tbsS'GTEX-S32W'
p34
g3
(g4
(I0
tS'b'
tRp35
(I1
(I1
I1
tg7
I00
S'\xd4[\xac]\xd0\x19\t\xc0'
tbsS'GTEX-ZEX8'
p36
g3
(g4
(I0
tS'b'
tRp37
(I1
(I1
I1
tg7
I00
S'\xecQx\xc5\xff\xc3\xef?'
tbsS'GTEX-13D11'
p38
g3
(g4
(I0
tS'b'
tRp39
(I1
(I1
I1
tg7
I00
S'^#\x97\xceqe\xf3\xbf'
tbsS'GTEX-WZTO'
p40
g3
(g4
(I0
tS'b'
tRp41
(I1
(I1
I1
tg7
I00
S'\xc9d\xd7\x01\xbb\x1a\xf9?'
tbsS'GTEX-139TU'
p42
g3
(g4
(I0
tS'b'
tRp43
(I1
(I1
I1
tg7
I00
S'\x17d\xcc\n;k\x05@'
tbsS'GTEX-139TS'
p44
g3
(g4
(I0
tS'b'
tRp45
(I1
(I1
I1
tg7
I00
S'\xe6\x1eQ\x05S\xc2\xf1?'
tbsS'GTEX-ZF3C'
p46
g3
(g4
(I0
tS'b'
tRp47
(I1
(I1
I1
tg7
I00
S'\x8cQ\xaf\x7f\xf4,\xef?'
tbsS'GTEX-XMK1'
p48
g3
(g4
(I0
tS'b'
tRp49
(I1
(I1
I1
tg7
I00
S'\xa77".AP\xf7?'
tbsS'GTEX-WHWD'
p50
g3
(g4
(I0
tS'b'
tRp51
(I1
(I1
I1
tg7
I00
S'\x95i\xb0v\xc3\xef\x05\xc0'
tbsS'GTEX-1192W'
p52
g3
(g4
(I0
tS'b'
tRp53
(I1
(I1
I1
tg7
I00
S'\xc5\x94\x12:\x0f\x96\x0b@'
tbsS'GTEX-X4XX'
p54
g3
(g4
(I0
tS'b'
tRp55
(I1
(I1
I1
tg7
I00
S'24)e\x90\xa6\x13\xc0'
tbsS'GTEX-X4XY'
p56
g3
(g4
(I0
tS'b'
tRp57
(I1
(I1
I1
tg7
I00
S'0eb\x00\x06N\n\xc0'
tbsS'GTEX-13CZV'
p58
g3
(g4
(I0
tS'b'
tRp59
(I1
(I1
I1
tg7
I00
S'X\x913i\xc9Q\xd0?'
tbsS'GTEX-1192X'
p60
g3
(g4
(I0
tS'b'
tRp61
(I1
(I1
I1
tg7
I00
S'\x94\x8eY1\xe7F\xfe\xbf'
tbsS'GTEX-T2YK'
p62
g3
(g4
(I0
tS'b'
tRp63
(I1
(I1
I1
tg7
I00
S'9\xf2J\xee]g \xc0'
tbsS'GTEX-YJ8A'
p64
g3
(g4
(I0
tS'b'
tRp65
(I1
(I1
I1
tg7
I00
S'c]\xef\xf0\x10p\x0c\xc0'
tbsS'GTEX-SIU8'
p66
g3
(g4
(I0
tS'b'
tRp67
(I1
(I1
I1
tg7
I00
S'\xb8s\\\xff\x7fe\n@'
tbsS'GTEX-QEG5'
p68
g3
(g4
(I0
tS'b'
tRp69
(I1
(I1
I1
tg7
I00
S'\xac\x02\x15\x93\xcb@\x12\xc0'
tbsS'GTEX-QEG4'
p70
g3
(g4
(I0
tS'b'
tRp71
(I1
(I1
I1
tg7
I00
S'\xab4\xa7\xfdX\xe6\x07@'
tbsS'GTEX-SIU7'
p72
g3
(g4
(I0
tS'b'
tRp73
(I1
(I1
I1
tg7
I00
S'\xb3\x1b\xf5\xb2\x80\x88\xf2\xbf'
tbsS'GTEX-WI4N'
p74
g3
(g4
(I0
tS'b'
tRp75
(I1
(I1
I1
tg7
I00
S'\t\xee\xd2\x97{\xa4\n\xc0'
tbsS'GTEX-OXRL'
p76
g3
(g4
(I0
tS'b'
tRp77
(I1
(I1
I1
tg7
I00
S'.V\xa6\xa3\x81\x0e\xe2\xbf'
tbsS'GTEX-OXRO'
p78
g3
(g4
(I0
tS'b'
tRp79
(I1
(I1
I1
tg7
I00
S'q\xb0}kV\x19\x17\xc0'
tbsS'GTEX-OXRN'
p80
g3
(g4
(I0
tS'b'
tRp81
(I1
(I1
I1
tg7
I00
S'\xc0\xe0\n\x05?\xb8\x0f\xc0'
tbsS'GTEX-OXRK'
p82
g3
(g4
(I0
tS'b'
tRp83
(I1
(I1
I1
tg7
I00
S'\x93!\xae\xa4\xb07\x0b\xc0'
tbsS'GTEX-X261'
p84
g3
(g4
(I0
tS'b'
tRp85
(I1
(I1
I1
tg7
I00
S'_\x12$\x963\r\x11\xc0'
tbsS'GTEX-13N1W'
p86
g3
(g4
(I0
tS'b'
tRp87
(I1
(I1
I1
tg7
I00
S'\xe6\xad5_(\x92\x02@'
tbsS'GTEX-UJMC'
p88
g3
(g4
(I0
tS'b'
tRp89
(I1
(I1
I1
tg7
I00
S'\x17\x1c\xc1i\xc1%\xb9?'
tbsS'GTEX-SJXC'
p90
g3
(g4
(I0
tS'b'
tRp91
(I1
(I1
I1
tg7
I00
S'B\x1b\xed\xf2\xcba\x08@'
tbsS'GTEX-13VXU'
p92
g3
(g4
(I0
tS'b'
tRp93
(I1
(I1
I1
tg7
I00
S'\xabI\x1cNP=\t@'
tbsS'GTEX-13VXT'
p94
g3
(g4
(I0
tS'b'
tRp95
(I1
(I1
I1
tg7
I00
S'\xe4\xcc\xcc[Q\xd2\xba?'
tbsS'GTEX-OIZH'
p96
g3
(g4
(I0
tS'b'
tRp97
(I1
(I1
I1
tg7
I00
S'\xeb\xf2\x84\xd9\x93\x13\t\xc0'
tbsS'GTEX-OIZI'
p98
g3
(g4
(I0
tS'b'
tRp99
(I1
(I1
I1
tg7
I00
S'\xaa*\xde+\x1d\x88\x11@'
tbsS'GTEX-ZAB5'
p100
g3
(g4
(I0
tS'b'
tRp101
(I1
(I1
I1
tg7
I00
S')\xce\x0e\xd9\xfe5\x03\xc0'
tbsS'GTEX-ZAB4'
p102
g3
(g4
(I0
tS'b'
tRp103
(I1
(I1
I1
tg7
I00
S'\x91\x82\xadK\xc9J\xeb?'
tbsS'GTEX-OHPL'
p104
g3
(g4
(I0
tS'b'
tRp105
(I1
(I1
I1
tg7
I00
S'\xbf\xa0?\xd6\x16\x92\xf9\xbf'
tbsS'GTEX-OIZG'
p106
g3
(g4
(I0
tS'b'
tRp107
(I1
(I1
I1
tg7
I00
S'Fav\x00\xab|\xfa?'
tbsS'GTEX-ZY6K'
p108
g3
(g4
(I0
tS'b'
tRp109
(I1
(I1
I1
tg7
I00
S'\xcf\xf7\x1b\x1d\n\xe3\x02\xc0'
tbsS'GTEX-11DXW'
p110
g3
(g4
(I0
tS'b'
tRp111
(I1
(I1
I1
tg7
I00
S'uu\xb2\xa5\xc6\x93\r@'
tbsS'GTEX-13CF2'
p112
g3
(g4
(I0
tS'b'
tRp113
(I1
(I1
I1
tg7
I00
S'\xdf\x04\xd7\xf5\x7f\x87\x06@'
tbsS'GTEX-13CF3'
p114
g3
(g4
(I0
tS'b'
tRp115
(I1
(I1
I1
tg7
I00
S'?\x10\xdd\xc2\xac\x1a\xf9\xbf'
tbsS'GTEX-11DXY'
p116
g3
(g4
(I0
tS'b'
tRp117
(I1
(I1
I1
tg7
I00
S'#\x03\xb3\x1bo\xe5\x03@'
tbsS'GTEX-11DXX'
p118
g3
(g4
(I0
tS'b'
tRp119
(I1
(I1
I1
tg7
I00
S' \xe9\xf6\x97\xc5\xe5\xe8\xbf'
tbsS'GTEX-11DXZ'
p120
g3
(g4
(I0
tS'b'
tRp121
(I1
(I1
I1
tg7
I00
S'\xd5\xb3^?\xb2\xb9\x08@'
tbsS'GTEX-13S7M'
p122
g3
(g4
(I0
tS'b'
tRp123
(I1
(I1
I1
tg7
I00
S'\xfc\xed;\xb5{\xf7\xf5?'
tbsS'GTEX-WOFL'
p124
g3
(g4
(I0
tS'b'
tRp125
(I1
(I1
I1
tg7
I00
S'W\xc9\xe8v\x01\xd3\x08\xc0'
tbsS'GTEX-WOFM'
p126
g3
(g4
(I0
tS'b'
tRp127
(I1
(I1
I1
tg7
I00
S'd\xb4\xea\\\x1f\xf7\xdc\xbf'
tbsS'GTEX-XUZC'
p128
g3
(g4
(I0
tS'b'
tRp129
(I1
(I1
I1
tg7
I00
S'\x90,\xf9\xe8\xa3z\xe9\xbf'
tbsS'GTEX-ZDTS'
p130
g3
(g4
(I0
tS'b'
tRp131
(I1
(I1
I1
tg7
I00
S'\xc8\x037l\xc6\xc5\xf3?'
tbsS'GTEX-ZDTT'
p132
g3
(g4
(I0
tS'b'
tRp133
(I1
(I1
I1
tg7
I00
S'\xc0\x1e\x84P\x89\xa3\x98?'
tbsS'GTEX-PWN1'
p134
g3
(g4
(I0
tS'b'
tRp135
(I1
(I1
I1
tg7
I00
S',-\xcf\x81R\xb9\xf9?'
tbsS'GTEX-N7MS'
p136
g3
(g4
(I0
tS'b'
tRp137
(I1
(I1
I1
tg7
I00
S'5\xab-\xeb\x86\xb5\x00@'
tbsS'GTEX-N7MT'
p138
g3
(g4
(I0
tS'b'
tRp139
(I1
(I1
I1
tg7
I00
S'\xa2\x0c\xb9\xf6\xefn\x03\xc0'
tbsS'GTEX-W5WG'
p140
g3
(g4
(I0
tS'b'
tRp141
(I1
(I1
I1
tg7
I00
S'\t\xaf\x93\xb8\xbd\x85\xf2?'
tbsS'GTEX-XYKS'
p142
g3
(g4
(I0
tS'b'
tRp143
(I1
(I1
I1
tg7
I00
S'i;\x84\xd5\x8fb\x02\xc0'
tbsS'GTEX-NPJ7'
p144
g3
(g4
(I0
tS'b'
tRp145
(I1
(I1
I1
tg7
I00
S'l\xae\x8dQ\x1a}\x0f\xc0'
tbsS'GTEX-13RTK'
p146
g3
(g4
(I0
tS'b'
tRp147
(I1
(I1
I1
tg7
I00
S'%\xa2\x98\xc4\x13\x19\xc2?'
tbsS'GTEX-13RTJ'
p148
g3
(g4
(I0
tS'b'
tRp149
(I1
(I1
I1
tg7
I00
S'\xfe\x01\xdd\x8fFU\xe3\xbf'
tbsS'GTEX-O5YT'
p150
g3
(g4
(I0
tS'b'
tRp151
(I1
(I1
I1
tg7
I00
S';%\x9b\xc8\xfa\x99\n\xc0'
tbsS'GTEX-O5YW'
p152
g3
(g4
(I0
tS'b'
tRp153
(I1
(I1
I1
tg7
I00
S'\xcbn\xc8\xd92\x0e\xc6?'
tbsS'GTEX-O5YV'
p154
g3
(g4
(I0
tS'b'
tRp155
(I1
(I1
I1
tg7
I00
S'i\x9d\xb9\xa3\x0c\x14\x16\xc0'
tbsS'GTEX-WL46'
p156
g3
(g4
(I0
tS'b'
tRp157
(I1
(I1
I1
tg7
I00
S'>gRn\xfc\xeb\x00@'
tbsS'GTEX-NPJ8'
p158
g3
(g4
(I0
tS'b'
tRp159
(I1
(I1
I1
tg7
I00
S'\x19\xf6\xfd\x8erF#\xc0'
tbsS'GTEX-ZVE2'
p160
g3
(g4
(I0
tS'b'
tRp161
(I1
(I1
I1
tg7
I00
S'J\xb0u\xb4\n\xe0\x02\xc0'
tbsS'GTEX-11EM3'
p162
g3
(g4
(I0
tS'b'
tRp163
(I1
(I1
I1
tg7
I00
S'\xb4\xc2\x99\x00\x9f|\xf9?'
tbsS'GTEX-Q734'
p164
g3
(g4
(I0
tS'b'
tRp165
(I1
(I1
I1
tg7
I00
S'b\x9b6\x94\xd6)\x12\xc0'
tbsS'GTEX-11EMC'
p166
g3
(g4
(I0
tS'b'
tRp167
(I1
(I1
I1
tg7
I00
S'\xb1P\x87\xd1\xd2\xaf\xea?'
tbsS'GTEX-13N11'
p168
g3
(g4
(I0
tS'b'
tRp169
(I1
(I1
I1
tg7
I00
S'\x9b\xa1\xdd\x97jG\xd7?'
tbsS'GTEX-1128S'
p170
g3
(g4
(I0
tS'b'
tRp171
(I1
(I1
I1
tg7
I00
S'@\r\x16\t\x8fb\xfa\xbf'
tbsS'GTEX-WHSE'
p172
g3
(g4
(I0
tS'b'
tRp173
(I1
(I1
I1
tg7
I00
S'A\xfa\xa2\xf8c\x86\x02\xc0'
tbsS'GTEX-WHSB'
p174
g3
(g4
(I0
tS'b'
tRp175
(I1
(I1
I1
tg7
I00
S'\xed\xf8v\x98\xd2\xcf\xf7\xbf'
tbsS'GTEX-133LE'
p176
g3
(g4
(I0
tS'b'
tRp177
(I1
(I1
I1
tg7
I00
S'\x11>\xeaV59\xc4\xbf'
tbsS'GTEX-NL4W'
p178
g3
(g4
(I0
tS'b'
tRp179
(I1
(I1
I1
tg7
I00
S"\x0f\x805\xb1#'\x12\xc0"
tbsS'GTEX-SUCS'
p180
g3
(g4
(I0
tS'b'
tRp181
(I1
(I1
I1
tg7
I00
S'\xe1\x99\xe5\xd7X?\xfc\xbf'
tbsS'GTEX-13QIC'
p182
g3
(g4
(I0
tS'b'
tRp183
(I1
(I1
I1
tg7
I00
S'\x8d\xee\xcd\xf6+\xf2\x04@'
tbsS'GTEX-ZYY3'
p184
g3
(g4
(I0
tS'b'
tRp185
(I1
(I1
I1
tg7
I00
S'\xa7TH\x97?/\xfc\xbf'
tbsS'GTEX-WYBS'
p186
g3
(g4
(I0
tS'b'
tRp187
(I1
(I1
I1
tg7
I00
S'\xfb\x028\xc0\x01\xe6\xcf?'
tbsS'GTEX-Y3I4'
p188
g3
(g4
(I0
tS'b'
tRp189
(I1
(I1
I1
tg7
I00
S'C\xca\x99]\x99\xa9\xf2\xbf'
tbsS'GTEX-13O21'
p190
g3
(g4
(I0
tS'b'
tRp191
(I1
(I1
I1
tg7
I00
S'\xe9\xdb?\x9b\xa7\xf0\xed?'
tbsS'GTEX-PVOW'
p192
g3
(g4
(I0
tS'b'
tRp193
(I1
(I1
I1
tg7
I00
S'}\x9e\x91\xa6A\xc7\xf8?'
tbsS'GTEX-13QBU'
p194
g3
(g4
(I0
tS'b'
tRp195
(I1
(I1
I1
tg7
I00
S'\t\xa0\xc9\x8c\x06\xb1\xf1?'
tbsS'GTEX-QEL4'
p196
g3
(g4
(I0
tS'b'
tRp197
(I1
(I1
I1
tg7
I00
S'T\xba\xdd\xb3\xc5\x83\x11\xc0'
tbsS'GTEX-X585'
p198
g3
(g4
(I0
tS'b'
tRp199
(I1
(I1
I1
tg7
I00
S'\xfe\xf0\x02\x80:n\t\xc0'
tbsS'GTEX-11VI4'
p200
g3
(g4
(I0
tS'b'
tRp201
(I1
(I1
I1
tg7
I00
S'\xeb\xd9j\r\nD\xfc?'
tbsS'GTEX-NL3G'
p202
g3
(g4
(I0
tS'b'
tRp203
(I1
(I1
I1
tg7
I00
S'`@\xda\xee_U\xf5?'
tbsS'GTEX-NL3H'
p204
g3
(g4
(I0
tS'b'
tRp205
(I1
(I1
I1
tg7
I00
S'sI\xe6\xac.\xa9\x15\xc0'
tbsS'GTEX-139TT'
p206
g3
(g4
(I0
tS'b'
tRp207
(I1
(I1
I1
tg7
I00
S'\x04E\xfb6\nW\x0f@'
tbsS'GTEX-XUYS'
p208
g3
(g4
(I0
tS'b'
tRp209
(I1
(I1
I1
tg7
I00
S'K\xf3l\xb5\x8f\xe8\x12@'
tbsS'GTEX-P4QT'
p210
g3
(g4
(I0
tS'b'
tRp211
(I1
(I1
I1
tg7
I00
S'+\x1d\x15\xa3\xc8*\x00\xc0'
tbsS'GTEX-ZVZP'
p212
g3
(g4
(I0
tS'b'
tRp213
(I1
(I1
I1
tg7
I00
S'Z\xf6\xd2\r_\xfb\xd5?'
tbsS'GTEX-ZVZQ'
p214
g3
(g4
(I0
tS'b'
tRp215
(I1
(I1
I1
tg7
I00
S'\rBi\xd6\xadI\x0f@'
tbsS'GTEX-P4QS'
p216
g3
(g4
(I0
tS'b'
tRp217
(I1
(I1
I1
tg7
I00
S'\xaaH5\xc3\x18\xa3\t\xc0'
tbsS'GTEX-P4QR'
p218
g3
(g4
(I0
tS'b'
tRp219
(I1
(I1
I1
tg7
I00
S'\x126\xdb\x98\x8cA\x1f\xc0'
tbsS'GTEX-13SLW'
p220
g3
(g4
(I0
tS'b'
tRp221
(I1
(I1
I1
tg7
I00
S'\xc2\x07\x052mN\xd6\xbf'
tbsS'GTEX-13SLX'
p222
g3
(g4
(I0
tS'b'
tRp223
(I1
(I1
I1
tg7
I00
S'\xcaIQ\x02\xce^\x04@'
tbsS'GTEX-13FXS'
p224
g3
(g4
(I0
tS'b'
tRp225
(I1
(I1
I1
tg7
I00
S'\n\xf8z5c8\n@'
tbsS'GTEX-X3Y1'
p226
g3
(g4
(I0
tS'b'
tRp227
(I1
(I1
I1
tg7
I00
S'gq\xd1snx\xea\xbf'
tbsS'GTEX-SE5C'
p228
g3
(g4
(I0
tS'b'
tRp229
(I1
(I1
I1
tg7
I00
S'\xccQ\x94\\\xc3\x11\xe1\xbf'
tbsS'GTEX-OHPK'
p230
g3
(g4
(I0
tS'b'
tRp231
(I1
(I1
I1
tg7
I00
S'\xc9\xda^\x9b\xbc\xe8\xe3?'
tbsS'GTEX-Y3IK'
p232
g3
(g4
(I0
tS'b'
tRp233
(I1
(I1
I1
tg7
I00
S'\xea^x\xee\x14\x84\xf9?'
tbsS'GTEX-ZF2S'
p234
g3
(g4
(I0
tS'b'
tRp235
(I1
(I1
I1
tg7
I00
S'\x1b\x8e^\xbe\x94\xca\xf0?'
tbsS'GTEX-111YS'
p236
g3
(g4
(I0
tS'b'
tRp237
(I1
(I1
I1
tg7
I00
S'u\xf8\x8e\xaf\xe4\xe8\xe2?'
tbsS'GTEX-139UW'
p238
g3
(g4
(I0
tS'b'
tRp239
(I1
(I1
I1
tg7
I00
S'\x01 \xf9\xf4e\t\x04@'
tbsS'GTEX-U3ZG'
p240
g3
(g4
(I0
tS'b'
tRp241
(I1
(I1
I1
tg7
I00
S'\x80\xcc<\x15\xcb`\xff?'
tbsS'GTEX-U3ZM'
p242
g3
(g4
(I0
tS'b'
tRp243
(I1
(I1
I1
tg7
I00
S'\x1c\xae\x9c\xd1\xc6a\xd1\xbf'
tbsS'GTEX-U3ZN'
p244
g3
(g4
(I0
tS'b'
tRp245
(I1
(I1
I1
tg7
I00
S'\x0b\x0b\xcd\x8e\xfbD\xd7?'
tbsS'GTEX-ZV6S'
p246
g3
(g4
(I0
tS'b'
tRp247
(I1
(I1
I1
tg7
I00
S'\xae\xd7\x9c\x9eB0\xd0\xbf'
tbsS'GTEX-U3ZH'
p248
g3
(g4
(I0
tS'b'
tRp249
(I1
(I1
I1
tg7
I00
S'\x05DV\xdf\xf79\xee?'
tbsS'GTEX-RTLS'
p250
g3
(g4
(I0
tS'b'
tRp251
(I1
(I1
I1
tg7
I00
S'J=\xaf\x12\x7f\xf0\xf3?'
tbsS'GTEX-PWCY'
p252
g3
(g4
(I0
tS'b'
tRp253
(I1
(I1
I1
tg7
I00
S'Vj/4\x91\xdb\xb5\xbf'
tbsS'GTEX-P44H'
p254
g3
(g4
(I0
tS'b'
tRp255
(I1
(I1
I1
tg7
I00
S'\xa9\xd7\xa6\xc1\xb8,\xfc?'
tbsS'GTEX-11WQK'
p256
g3
(g4
(I0
tS'b'
tRp257
(I1
(I1
I1
tg7
I00
S'\x13\xde\xc40\x11\xc9\x15\xc0'
tbsS'GTEX-12696'
p258
g3
(g4
(I0
tS'b'
tRp259
(I1
(I1
I1
tg7
I00
S'CjQ\x04}\xba\x00@'
tbsS'GTEX-XUW1'
p260
g3
(g4
(I0
tS'b'
tRp261
(I1
(I1
I1
tg7
I00
S'\xd6\x8d\xda\x9b\xa8\x0e\xf9\xbf'
tbsS'GTEX-13JVG'
p262
g3
(g4
(I0
tS'b'
tRp263
(I1
(I1
I1
tg7
I00
S'p\x15\xacR\x17\x02\xd6\xbf'
tbsS'GTEX-XBEW'
p264
g3
(g4
(I0
tS'b'
tRp265
(I1
(I1
I1
tg7
I00
S'\x8f\x9e\x9a\xb0;\xf8\xc1\xbf'
tbsS'GTEX-WK11'
p266
g3
(g4
(I0
tS'b'
tRp267
(I1
(I1
I1
tg7
I00
S'C\xd8\xa2\x1c\xa76\r@'
tbsS'GTEX-XBEC'
p268
g3
(g4
(I0
tS'b'
tRp269
(I1
(I1
I1
tg7
I00
S'\xde\x91\xcd\xde\x02J\xf3?'
tbsS'GTEX-XBED'
p270
g3
(g4
(I0
tS'b'
tRp271
(I1
(I1
I1
tg7
I00
S't\x19!\xf1:\xaf\xea\xbf'
tbsS'GTEX-ZDYS'
p272
g3
(g4
(I0
tS'b'
tRp273
(I1
(I1
I1
tg7
I00
S'\xb3\xa0\x97\t\xad\xc8\x02@'
tbsS'GTEX-X8HC'
p274
g3
(g4
(I0
tS'b'
tRp275
(I1
(I1
I1
tg7
I00
S'\xbd\xc7h\x0e\xc3\x18\xfa\xbf'
tbsS'GTEX-ZF28'
p276
g3
(g4
(I0
tS'b'
tRp277
(I1
(I1
I1
tg7
I00
S'\xf4\xfaG\xd2L=\x1b\xc0'
tbsS'GTEX-ZF29'
p278
g3
(g4
(I0
tS'b'
tRp279
(I1
(I1
I1
tg7
I00
S'\x90wE\x9a\xab\x7f\xfa?'
tbsS'GTEX-ZV68'
p280
g3
(g4
(I0
tS'b'
tRp281
(I1
(I1
I1
tg7
I00
S'F\xbe\x9d\xe9c\x01\x01@'
tbsS'GTEX-Y8LW'
p282
g3
(g4
(I0
tS'b'
tRp283
(I1
(I1
I1
tg7
I00
S'\xc6 \xe4\xf3\xc0z\xcb\xbf'
tbsS'GTEX-13CIG'
p284
g3
(g4
(I0
tS'b'
tRp285
(I1
(I1
I1
tg7
I00
S'`F\x9e\x90\xf8M\x15\xc0'
tbsS'GTEX-13O61'
p286
g3
(g4
(I0
tS'b'
tRp287
(I1
(I1
I1
tg7
I00
S'\xc4\xa8[\xf1\xed\x9a\xe3\xbf'
tbsS'GTEX-12WSC'
p288
g3
(g4
(I0
tS'b'
tRp289
(I1
(I1
I1
tg7
I00
S'*g\xc6|\xa1\x1d\x0b@'
tbsS'GTEX-12WSA'
p290
g3
(g4
(I0
tS'b'
tRp291
(I1
(I1
I1
tg7
I00
S'\x1a\x0c-\x81\xc1\x0b\xf5\xbf'
tbsS'GTEX-12WSF'
p292
g3
(g4
(I0
tS'b'
tRp293
(I1
(I1
I1
tg7
I00
S'\x15i\xe7\xa7\x0bT\xf5\xbf'
tbsS'GTEX-12WSG'
p294
g3
(g4
(I0
tS'b'
tRp295
(I1
(I1
I1
tg7
I00
S':/\xa3\xfcx\x16\xed?'
tbsS'GTEX-12WSD'
p296
g3
(g4
(I0
tS'b'
tRp297
(I1
(I1
I1
tg7
I00
S'\xfdQ\x95\x05r\xa3\x0f@'
tbsS'GTEX-12WSE'
p298
g3
(g4
(I0
tS'b'
tRp299
(I1
(I1
I1
tg7
I00
S'_\xf4\xf3\xcb\x80\xd0\x11@'
tbsS'GTEX-12WSJ'
p300
g3
(g4
(I0
tS'b'
tRp301
(I1
(I1
I1
tg7
I00
S'Ze\x05I\xf34\xfe\xbf'
tbsS'GTEX-12WSK'
p302
g3
(g4
(I0
tS'b'
tRp303
(I1
(I1
I1
tg7
I00
S'\x02\xdb\xfaJ\x9b\xf7\xee?'
tbsS'GTEX-12WSH'
p304
g3
(g4
(I0
tS'b'
tRp305
(I1
(I1
I1
tg7
I00
S'C7Z\x86z\xa9\x02\xc0'
tbsS'GTEX-12WSI'
p306
g3
(g4
(I0
tS'b'
tRp307
(I1
(I1
I1
tg7
I00
S'\xea\x8d\x06\x9d\x1f\x1b\r@'
tbsS'GTEX-12WSN'
p308
g3
(g4
(I0
tS'b'
tRp309
(I1
(I1
I1
tg7
I00
S'A\xcfx:\x14?\xf7\xbf'
tbsS'GTEX-12WSL'
p310
g3
(g4
(I0
tS'b'
tRp311
(I1
(I1
I1
tg7
I00
S'\x8c\xd5\xa0\x83\r\xc5\t\xc0'
tbsS'GTEX-12WSM'
p312
g3
(g4
(I0
tS'b'
tRp313
(I1
(I1
I1
tg7
I00
S'l\x83\x92\xd89\xb0\x02@'
tbsS'GTEX-13N2G'
p314
g3
(g4
(I0
tS'b'
tRp315
(I1
(I1
I1
tg7
I00
S'\xf0^\xe2\xf7\x14\xc5\x04\xc0'
tbsS'GTEX-X15G'
p316
g3
(g4
(I0
tS'b'
tRp317
(I1
(I1
I1
tg7
I00
S'\x1c\xd7\xfa\xc0r\x13\xfb\xbf'
tbsS'GTEX-YF7O'
p318
g3
(g4
(I0
tS'b'
tRp319
(I1
(I1
I1
tg7
I00
S'\xdb\x1ak\x08\xccx\xd3?'
tbsS'GTEX-S4P3'
p320
g3
(g4
(I0
tS'b'
tRp321
(I1
(I1
I1
tg7
I00
S'S\x8a\x02\x06\xc1\xca\xf1?'
tbsS'GTEX-X4LF'
p322
g3
(g4
(I0
tS'b'
tRp323
(I1
(I1
I1
tg7
I00
S'CPG\x1f\x91\xfb\xe1\xbf'
tbsS'GTEX-ZE7O'
p324
g3
(g4
(I0
tS'b'
tRp325
(I1
(I1
I1
tg7
I00
S'\x0c\xdb\xb6*\xb2L\xfc?'
tbsS'GTEX-ZQUD'
p326
g3
(g4
(I0
tS'b'
tRp327
(I1
(I1
I1
tg7
I00
S'\x1aj\xee\xea\x8c\xb0\x05@'
tbsS'GTEX-ZQG8'
p328
g3
(g4
(I0
tS'b'
tRp329
(I1
(I1
I1
tg7
I00
S'\xb1\xc6\xfbC8\xc7\xe5?'
tbsS'GTEX-ZVZO'
p330
g3
(g4
(I0
tS'b'
tRp331
(I1
(I1
I1
tg7
I00
S'\xdc~\x8f~\x10M\xe3?'
tbsS'GTEX-WFG7'
p332
g3
(g4
(I0
tS'b'
tRp333
(I1
(I1
I1
tg7
I00
S'\xe7\x94\xe4)\x9d\x99\xe4\xbf'
tbsS'GTEX-WFG8'
p334
g3
(g4
(I0
tS'b'
tRp335
(I1
(I1
I1
tg7
I00
S'\xed\xf3\t\xca\xb3\xad\xce\xbf'
tbsS'GTEX-RU72'
p336
g3
(g4
(I0
tS'b'
tRp337
(I1
(I1
I1
tg7
I00
S'-o\xae\xd7\xf2\xeb\xee\xbf'
tbsS'GTEX-13W46'
p338
g3
(g4
(I0
tS'b'
tRp339
(I1
(I1
I1
tg7
I00
S'uSBAtr\x0b\xc0'
tbsS'GTEX-UPJH'
p340
g3
(g4
(I0
tS'b'
tRp341
(I1
(I1
I1
tg7
I00
S'O\xb9)w\xbds\x06@'
tbsS'GTEX-PW2O'
p342
g3
(g4
(I0
tS'b'
tRp343
(I1
(I1
I1
tg7
I00
S'\xb02j\xde\x8c\xd6\xee\xbf'
tbsS'GTEX-T8EM'
p344
g3
(g4
(I0
tS'b'
tRp345
(I1
(I1
I1
tg7
I00
S'\x01-\xc3:u[\xc4?'
tbsS'GTEX-XQ3S'
p346
g3
(g4
(I0
tS'b'
tRp347
(I1
(I1
I1
tg7
I00
S'\xa0\xa8k%CR\x0c@'
tbsS'GTEX-ZPCL'
p348
g3
(g4
(I0
tS'b'
tRp349
(I1
(I1
I1
tg7
I00
S'N\x80A\x92\xcd\xef\xdc\xbf'
tbsS'GTEX-11ONC'
p350
g3
(g4
(I0
tS'b'
tRp351
(I1
(I1
I1
tg7
I00
S'\xb2\x0c,\xccO\x92\x02@'
tbsS'GTEX-QV44'
p352
g3
(g4
(I0
tS'b'
tRp353
(I1
(I1
I1
tg7
I00
S'\xca>\xe7\xe3\xc3\xd3\x00\xc0'
tbsS'GTEX-WHPG'
p354
g3
(g4
(I0
tS'b'
tRp355
(I1
(I1
I1
tg7
I00
S'\xc0k\xdc\x8c\x88\x03\xe7?'
tbsS'GTEX-T6MO'
p356
g3
(g4
(I0
tS'b'
tRp357
(I1
(I1
I1
tg7
I00
S'\xe7\xb2\xa8`\xecX\xe6\xbf'
tbsS'GTEX-T6MN'
p358
g3
(g4
(I0
tS'b'
tRp359
(I1
(I1
I1
tg7
I00
S'\xcd\xd9\x9f\x93\x1d&\x11@'
tbsS'GTEX-XXEK'
p360
g3
(g4
(I0
tS'b'
tRp361
(I1
(I1
I1
tg7
I00
S'\xd4\xd6\xc3\xe6\x10d\t\xc0'
tbsS'GTEX-ZTTD'
p362
g3
(g4
(I0
tS'b'
tRp363
(I1
(I1
I1
tg7
I00
S'.\xc5\xde5m\xa8\xe9\xbf'
tbsS'GTEX-ZUA1'
p364
g3
(g4
(I0
tS'b'
tRp365
(I1
(I1
I1
tg7
I00
S'vB\x9d\xafQ\xd8\x10@'
tbsS'GTEX-OXRP'
p366
g3
(g4
(I0
tS'b'
tRp367
(I1
(I1
I1
tg7
I00
S'm\x9f\xaa\x18\xe5\x8b\xf0\xbf'
tbsS'GTEX-13OVL'
p368
g3
(g4
(I0
tS'b'
tRp369
(I1
(I1
I1
tg7
I00
S'\xa1\xe5\xa6hc\xa6\x10@'
tbsS'GTEX-13OVJ'
p370
g3
(g4
(I0
tS'b'
tRp371
(I1
(I1
I1
tg7
I00
S'\xb8\x00\xcc\x08\x8f$\x03\xc0'
tbsS'GTEX-13OVH'
p372
g3
(g4
(I0
tS'b'
tRp373
(I1
(I1
I1
tg7
I00
S'\xfb-?\xdcaO\xd5\xbf'
tbsS'GTEX-13OVI'
p374
g3
(g4
(I0
tS'b'
tRp375
(I1
(I1
I1
tg7
I00
S'\xbb\x8f]1\x1b\xed\xf6?'
tbsS'GTEX-13OVG'
p376
g3
(g4
(I0
tS'b'
tRp377
(I1
(I1
I1
tg7
I00
S'\x0c\xe9\x1fl\xf7\xe3\xf3?'
tbsS'GTEX-113IC'
p378
g3
(g4
(I0
tS'b'
tRp379
(I1
(I1
I1
tg7
I00
S'\x93\x9c\xe3\x8d^6\x01@'
tbsS'GTEX-XLM4'
p380
g3
(g4
(I0
tS'b'
tRp381
(I1
(I1
I1
tg7
I00
S'\xc7\xe7\xc8G\xca\x10\xdd\xbf'
tbsS'GTEX-13JUV'
p382
g3
(g4
(I0
tS'b'
tRp383
(I1
(I1
I1
tg7
I00
S'\xdfS\xd9W\x08\x1f\xf5\xbf'
tbsS'GTEX-PLZ5'
p384
g3
(g4
(I0
tS'b'
tRp385
(I1
(I1
I1
tg7
I00
S'_ g\xc1\xc7\x0f\x0b\xc0'
tbsS'GTEX-PLZ6'
p386
g3
(g4
(I0
tS'b'
tRp387
(I1
(I1
I1
tg7
I00
S'B\xcf\x1c\xb9\xc0\xad\xb1\xbf'
tbsS'GTEX-ZZPT'
p388
g3
(g4
(I0
tS'b'
tRp389
(I1
(I1
I1
tg7
I00
S'k\xfb\xe8\xca\x9e\xe1\x17\xc0'
tbsS'GTEX-ZZPU'
p390
g3
(g4
(I0
tS'b'
tRp391
(I1
(I1
I1
tg7
I00
S'\x9fDd\xca&\x85\xda?'
tbsS'GTEX-ZXES'
p392
g3
(g4
(I0
tS'b'
tRp393
(I1
(I1
I1
tg7
I00
S"\x05\xb2\xaf\xf6\xda'\x04@"
tbsS'GTEX-TSE9'
p394
g3
(g4
(I0
tS'b'
tRp395
(I1
(I1
I1
tg7
I00
S'\x186\x8c\xd5O\xc0\xf0\xbf'
tbsS'GTEX-ZC5H'
p396
g3
(g4
(I0
tS'b'
tRp397
(I1
(I1
I1
tg7
I00
S'\xca\x16\xe8\xb7Fv\x05\xc0'
tbsS'GTEX-QDVN'
p398
g3
(g4
(I0
tS'b'
tRp399
(I1
(I1
I1
tg7
I00
S'\xd7\xfe\xa4\xe3Vu\x0c\xc0'
tbsS'GTEX-QDVJ'
p400
g3
(g4
(I0
tS'b'
tRp401
(I1
(I1
I1
tg7
I00
S'\x81\x14<:\xfc\x8e\x04\xc0'
tbsS'GTEX-P4PP'
p402
g3
(g4
(I0
tS'b'
tRp403
(I1
(I1
I1
tg7
I00
S'\x7fu\x14\x194y\xe8?'
tbsS'GTEX-P4PQ'
p404
g3
(g4
(I0
tS'b'
tRp405
(I1
(I1
I1
tg7
I00
S'\xea\x06Q0\x80?\xfd\xbf'
tbsS'GTEX-S4UY'
p406
g3
(g4
(I0
tS'b'
tRp407
(I1
(I1
I1
tg7
I00
S'\x87\xb5\x8a\x11l\xf5\xc0?'
tbsS'GTEX-S341'
p408
g3
(g4
(I0
tS'b'
tRp409
(I1
(I1
I1
tg7
I00
S'U\x17D(\xda\x19\xdf?'
tbsS'GTEX-11UD1'
p410
g3
(g4
(I0
tS'b'
tRp411
(I1
(I1
I1
tg7
I00
S'B\x1c\x07\xfd\x96\xba\xfe?'
tbsS'GTEX-13FHO'
p412
g3
(g4
(I0
tS'b'
tRp413
(I1
(I1
I1
tg7
I00
S'\x8b\x19\x12\xc7\x9e=\xbf?'
tbsS'GTEX-13O3O'
p414
g3
(g4
(I0
tS'b'
tRp415
(I1
(I1
I1
tg7
I00
S'\xb5\xb6\x81*\xd0\x1f\x06@'
tbsS'GTEX-13O3Q'
p416
g3
(g4
(I0
tS'b'
tRp417
(I1
(I1
I1
tg7
I00
S" \xc1\xfbu\xca'\xfb?"
tbsS'GTEX-POYW'
p418
g3
(g4
(I0
tS'b'
tRp419
(I1
(I1
I1
tg7
I00
S'\xef\x80\xf0\x87\xae\x7f\x14\xc0'
tbsS'GTEX-ZYWO'
p420
g3
(g4
(I0
tS'b'
tRp421
(I1
(I1
I1
tg7
I00
S'\xeb\x97\xe6d\x80\xe5\x07\xc0'
tbsS'GTEX-X638'
p422
g3
(g4
(I0
tS'b'
tRp423
(I1
(I1
I1
tg7
I00
S'@\xb93\xc6\xc8\x17\xd8\xbf'
tbsS'GTEX-13111'
p424
g3
(g4
(I0
tS'b'
tRp425
(I1
(I1
I1
tg7
I00
S'\xe1\x02\xdbtS\xeb\x0e@'
tbsS'GTEX-13113'
p426
g3
(g4
(I0
tS'b'
tRp427
(I1
(I1
I1
tg7
I00
S'\x97 \xbf*\x01\xac\xcc\xbf'
tbsS'GTEX-13112'
p428
g3
(g4
(I0
tS'b'
tRp429
(I1
(I1
I1
tg7
I00
S'\xffX\x07\x8a\xec=\x0b@'
tbsS'GTEX-POMQ'
p430
g3
(g4
(I0
tS'b'
tRp431
(I1
(I1
I1
tg7
I00
S'\xbc\xbf\xa9\xb5\x84K\xe5\xbf'
tbsS'GTEX-PWOO'
p432
g3
(g4
(I0
tS'b'
tRp433
(I1
(I1
I1
tg7
I00
S'\xe8\x93m\x1br\xc3\x10\xc0'
tbsS'GTEX-ZT9W'
p434
g3
(g4
(I0
tS'b'
tRp435
(I1
(I1
I1
tg7
I00
S'\xa1ZC=\x17|\xf4?'
tbsS'GTEX-ZT9X'
p436
g3
(g4
(I0
tS'b'
tRp437
(I1
(I1
I1
tg7
I00
S'\xc2\xeb\x92\x1b\xad\x16\xdf?'
tbsS'GTEX-RNOR'
p438
g3
(g4
(I0
tS'b'
tRp439
(I1
(I1
I1
tg7
I00
S'\xa6\x04\x87 p\xeb\xef?'
tbsS'GTEX-REY6'
p440
g3
(g4
(I0
tS'b'
tRp441
(I1
(I1
I1
tg7
I00
S']/\xb1B]\xc5\xcc?'
tbsS'GTEX-111CU'
p442
g3
(g4
(I0
tS'b'
tRp443
(I1
(I1
I1
tg7
I00
S'\x95Q\x8fO\x1d-\xf0\xbf'
tbsS'GTEX-XGQ4'
p444
g3
(g4
(I0
tS'b'
tRp445
(I1
(I1
I1
tg7
I00
S'\x04}\xdbq\xc0\xb4\xf1\xbf'
tbsS'GTEX-WFJO'
p446
g3
(g4
(I0
tS'b'
tRp447
(I1
(I1
I1
tg7
I00
S'\x9e\x84\xc8\x1e\xf6b\xbd\xbf'
tbsS'GTEX-VUSH'
p448
g3
(g4
(I0
tS'b'
tRp449
(I1
(I1
I1
tg7
I00
S'p@\x1c\xa5\x83\xa8\x10@'
tbsS'GTEX-XPT6'
p450
g3
(g4
(I0
tS'b'
tRp451
(I1
(I1
I1
tg7
I00
S'\xea\x90V\xb5\xa2\x93\xe4?'
tbsS'GTEX-VUSG'
p452
g3
(g4
(I0
tS'b'
tRp453
(I1
(I1
I1
tg7
I00
S'\xc3\xdd\x93?Ab\x03\xc0'
tbsS'GTEX-TKQ2'
p454
g3
(g4
(I0
tS'b'
tRp455
(I1
(I1
I1
tg7
I00
S'\xce0P\x80\x93\xbc\xf3?'
tbsS'GTEX-11NV4'
p456
g3
(g4
(I0
tS'b'
tRp457
(I1
(I1
I1
tg7
I00
S'\xcf\xe7\x02\xdf\x18\x18\x12@'
tbsS'GTEX-Y8DK'
p458
g3
(g4
(I0
tS'b'
tRp459
(I1
(I1
I1
tg7
I00
S'\xf0\xd9\xf81S\xac\t@'
tbsS'GTEX-ZLFU'
p460
g3
(g4
(I0
tS'b'
tRp461
(I1
(I1
I1
tg7
I00
S'7U\x1c\xb2\x95\xfd\xe5\xbf'
tbsS'GTEX-139YR'
p462
g3
(g4
(I0
tS'b'
tRp463
(I1
(I1
I1
tg7
I00
S'\x9c\xc8\x8b\xe9L\x93\r\xc0'
tbsS'GTEX-YECK'
p464
g3
(g4
(I0
tS'b'
tRp465
(I1
(I1
I1
tg7
I00
S'\xf7\x8a\xcb"\xc5\xd0\x0f@'
tbsS'GTEX-13G51'
p466
g3
(g4
(I0
tS'b'
tRp467
(I1
(I1
I1
tg7
I00
S'\x8c\x95:\xf7\xb8d\x0e@'
tbsS'GTEX-ZLV1'
p468
g3
(g4
(I0
tS'b'
tRp469
(I1
(I1
I1
tg7
I00
S' \x9b\xa5r\xb68\xff\xbf'
tbsS'GTEX-13QJ3'
p470
g3
(g4
(I0
tS'b'
tRp471
(I1
(I1
I1
tg7
I00
S'\xa9\xbc\xbcu7\xea\xf9?'
tbsS'GTEX-T2IS'
p472
g3
(g4
(I0
tS'b'
tRp473
(I1
(I1
I1
tg7
I00
S'l\x01i\x825\xfb\xfd?'
tbsS'GTEX-ZDXO'
p474
g3
(g4
(I0
tS'b'
tRp475
(I1
(I1
I1
tg7
I00
S'\n\x1f\x8c\xd9o3\x06@'
tbsS'GTEX-WY7C'
p476
g3
(g4
(I0
tS'b'
tRp477
(I1
(I1
I1
tg7
I00
S'\xa3\xfd4\xe1\x1b\x89\xa2?'
tbsS'GTEX-PLZ4'
p478
g3
(g4
(I0
tS'b'
tRp479
(I1
(I1
I1
tg7
I00
S'#Di*2\x87\x13\xc0'
tbsS'GTEX-13QJC'
p480
g3
(g4
(I0
tS'b'
tRp481
(I1
(I1
I1
tg7
I00
S'\xed\xce\xf4\x17^f\x03\xc0'
tbsS'GTEX-11WQC'
p482
g3
(g4
(I0
tS'b'
tRp483
(I1
(I1
I1
tg7
I00
S'U\xafzb\x1a7\xff?'
tbsS'GTEX-YEC4'
p484
g3
(g4
(I0
tS'b'
tRp485
(I1
(I1
I1
tg7
I00
S'\x1drJ\xef\xe8G\xec?'
tbsS'GTEX-ZTPG'
p486
g3
(g4
(I0
tS'b'
tRp487
(I1
(I1
I1
tg7
I00
S'.\x7f3k\x82\x07\r\xc0'
tbsS'GTEX-YEC3'
p488
g3
(g4
(I0
tS'b'
tRp489
(I1
(I1
I1
tg7
I00
S'O\x1c\x03\x13t\xef\xd9?'
tbsS'GTEX-T5JW'
p490
g3
(g4
(I0
tS'b'
tRp491
(I1
(I1
I1
tg7
I00
S'\x8csY\x83X\xf8\xfe?'
tbsS'GTEX-R53T'
p492
g3
(g4
(I0
tS'b'
tRp493
(I1
(I1
I1
tg7
I00
S'\xddP\xf9\xe7j!\x08\xc0'
tbsS'GTEX-WQUQ'
p494
g3
(g4
(I0
tS'b'
tRp495
(I1
(I1
I1
tg7
I00
S'"\xae\xdd\x9d\xe47\x01\xc0'
tbsS'GTEX-111VG'
p496
g3
(g4
(I0
tS'b'
tRp497
(I1
(I1
I1
tg7
I00
S'\xe0\xa9p\xa8\x8b\xf0\t@'
tbsS'GTEX-NFK9'
p498
g3
(g4
(I0
tS'b'
tRp499
(I1
(I1
I1
tg7
I00
S'\xfbK\xe1B\xac\xba\xd5?'
tbsS'GTEX-T5JC'
p500
g3
(g4
(I0
tS'b'
tRp501
(I1
(I1
I1
tg7
I00
S'\\\x83\xe2\xc4\xaa\xf0\xe2\xbf'
tbsS'GTEX-RVPV'
p502
g3
(g4
(I0
tS'b'
tRp503
(I1
(I1
I1
tg7
I00
S'\x00\xc0\xef\xf7\xf7\x9c\xf9?'
tbsS'GTEX-RVPU'
p504
g3
(g4
(I0
tS'b'
tRp505
(I1
(I1
I1
tg7
I00
S'\x197^\tz\xd6\xea?'
tbsS'GTEX-UTHO'
p506
g3
(g4
(I0
tS'b'
tRp507
(I1
(I1
I1
tg7
I00
S'\x9e\xd5a\x1f:1\x0f\xc0'
tbsS'GTEX-11LCK'
p508
g3
(g4
(I0
tS'b'
tRp509
(I1
(I1
I1
tg7
I00
S'\x97\xd71\xa7\xb6u\xcf?'
tbsS'GTEX-X88G'
p510
g3
(g4
(I0
tS'b'
tRp511
(I1
(I1
I1
tg7
I00
S'\x9d*\xc9H\x04+\x01\xc0'
tbsS'GTEX-QLQW'
p512
g3
(g4
(I0
tS'b'
tRp513
(I1
(I1
I1
tg7
I00
S'\xa3\xbd\x9a\xee\x80\x04\xe1?'
tbsS'GTEX-13PL7'
p514
g3
(g4
(I0
tS'b'
tRp515
(I1
(I1
I1
tg7
I00
S'm\xbe\xa9\xec\xa6\x99\xac\xbf'
tbsS'GTEX-13PL6'
p516
g3
(g4
(I0
tS'b'
tRp517
(I1
(I1
I1
tg7
I00
S'\x9ei?\x8cE\xe1\xe3\xbf'
tbsS'GTEX-11ZUS'
p518
g3
(g4
(I0
tS'b'
tRp519
(I1
(I1
I1
tg7
I00
S'7\x91U\x80/J\x0b@'
tbsS'GTEX-WFON'
p520
g3
(g4
(I0
tS'b'
tRp521
(I1
(I1
I1
tg7
I00
S'L\x9b\xa8\xd2\x94\xf0\xd0?'
tbsS'GTEX-QVUS'
p522
g3
(g4
(I0
tS'b'
tRp523
(I1
(I1
I1
tg7
I00
S'\x99\x84\xd3\xe3\xc1,\xfb\xbf'
tbsS'GTEX-U8T8'
p524
g3
(g4
(I0
tS'b'
tRp525
(I1
(I1
I1
tg7
I00
S'\xc6\x9cD/\x16\xac\xe1\xbf'
tbsS'GTEX-YFCO'
p526
g3
(g4
(I0
tS'b'
tRp527
(I1
(I1
I1
tg7
I00
S'\x81\xd7\xfco\xb5\xb4\xe0\xbf'
tbsS'GTEX-P78B'
p528
g3
(g4
(I0
tS'b'
tRp529
(I1
(I1
I1
tg7
I00
S'\xc9l\xb9\x82\x01j\xe9\xbf'
tbsS'GTEX-YFC4'
p530
g3
(g4
(I0
tS'b'
tRp531
(I1
(I1
I1
tg7
I00
S'\xb7\xd8\x8bP\xffg\xfe?'
tbsS'GTEX-11ZTT'
p532
g3
(g4
(I0
tS'b'
tRp533
(I1
(I1
I1
tg7
I00
S'Eef\xa7us\xf7?'
tbsS'GTEX-11ZTS'
p534
g3
(g4
(I0
tS'b'
tRp535
(I1
(I1
I1
tg7
I00
S'\x11n\xc8[\xe2\xd4\x07@'
tbsS'GTEX-13PLJ'
p536
g3
(g4
(I0
tS'b'
tRp537
(I1
(I1
I1
tg7
I00
S'\x02\xf6O\r\x92\x07\xfd?'
tbsS'GTEX-OOBJ'
p538
g3
(g4
(I0
tS'b'
tRp539
(I1
(I1
I1
tg7
I00
S'\xf3*\x13Y\xdau\xec\xbf'
tbsS'GTEX-XOT4'
p540
g3
(g4
(I0
tS'b'
tRp541
(I1
(I1
I1
tg7
I00
S'\x98\xc9t\x99\xf0K\x02@'
tbsS'GTEX-S4Q7'
p542
g3
(g4
(I0
tS'b'
tRp543
(I1
(I1
I1
tg7
I00
S'\x8f\x1c8C\xd1\xdc\x00\xc0'
tbsS'GTEX-13FLW'
p544
g3
(g4
(I0
tS'b'
tRp545
(I1
(I1
I1
tg7
I00
S'\t\x9c\xf0%\xf8u\x0c@'
tbsS'GTEX-13FLV'
p546
g3
(g4
(I0
tS'b'
tRp547
(I1
(I1
I1
tg7
I00
S'\xc3\xea$\xca\xbc\x08\r@'
tbsS'GTEX-QLQ7'
p548
g3
(g4
(I0
tS'b'
tRp549
(I1
(I1
I1
tg7
I00
S'*|{E\xc4\x88\xb5?'
tbsS'GTEX-RN64'
p550
g3
(g4
(I0
tS'b'
tRp551
(I1
(I1
I1
tg7
I00
S'L%\xdaR\xe7\x7f\x04@'
tbsS'GTEX-ZYT6'
p552
g3
(g4
(I0
tS'b'
tRp553
(I1
(I1
I1
tg7
I00
S'/(c\x9cN\x1f\r@'
tbsS'GTEX-11XUK'
p554
g3
(g4
(I0
tS'b'
tRp555
(I1
(I1
I1
tg7
I00
S'\xeeM\x8bo\x99)\xe0\xbf'
tbsS'GTEX-ZTSS'
p556
g3
(g4
(I0
tS'b'
tRp557
(I1
(I1
I1
tg7
I00
S'2\x01r%\xd84\xd1?'
tbsS'GTEX-1117F'
p558
g3
(g4
(I0
tS'b'
tRp559
(I1
(I1
I1
tg7
I00
S'\x8c\xfe\x02\r\xab=\xfd\xbf'
tbsS'GTEX-113JC'
p560
g3
(g4
(I0
tS'b'
tRp561
(I1
(I1
I1
tg7
I00
S'\xfd\x89\x90\x1a\x1fJ\x06@'
tbsS'GTEX-Z9EW'
p562
g3
(g4
(I0
tS'b'
tRp563
(I1
(I1
I1
tg7
I00
S'\xe8"7X[\xc1\xea\xbf'
tbsS'GTEX-ZPU1'
p564
g3
(g4
(I0
tS'b'
tRp565
(I1
(I1
I1
tg7
I00
S'+uV\xf2\x9f\x14\xfa?'
tbsS'GTEX-XUJ4'
p566
g3
(g4
(I0
tS'b'
tRp567
(I1
(I1
I1
tg7
I00
S'\x8e:\x00}\x19\xa7\xf1\xbf'
tbsS'GTEX-11DZ1'
p568
g3
(g4
(I0
tS'b'
tRp569
(I1
(I1
I1
tg7
I00
S'\xac\xfd\xc4\x9d6\x08\x13\xc0'
tbsS'GTEX-R3RS'
p570
g3
(g4
(I0
tS'b'
tRp571
(I1
(I1
I1
tg7
I00
S'!\xfbV\xd5p\x82\xf8\xbf'
tbsS'GTEX-13NZ8'
p572
g3
(g4
(I0
tS'b'
tRp573
(I1
(I1
I1
tg7
I00
S'\xbec>R\xaa\x06\x1c\xc0'
tbsS'GTEX-QMR6'
p574
g3
(g4
(I0
tS'b'
tRp575
(I1
(I1
I1
tg7
I00
S'\xa8C\x16\xa8\x18s\xfa?'
tbsS'GTEX-WRHU'
p576
g3
(g4
(I0
tS'b'
tRp577
(I1
(I1
I1
tg7
I00
S'\x91\xcc\x0f\xa0\xdb\xbe\x06@'
tbsS'GTEX-WCDI'
p578
g3
(g4
(I0
tS'b'
tRp579
(I1
(I1
I1
tg7
I00
S'\xa4\x1c\xc2;\xaf\x15\x18\xc0'
tbsS'GTEX-QMRM'
p580
g3
(g4
(I0
tS'b'
tRp581
(I1
(I1
I1
tg7
I00
S'4\xf1\x88g\xf9y\xdd\xbf'
tbsS'GTEX-TMZS'
p582
g3
(g4
(I0
tS'b'
tRp583
(I1
(I1
I1
tg7
I00
S'76\xb8\xe9u\xf3\x00@'
tbsS'GTEX-13NZB'
p584
g3
(g4
(I0
tS'b'
tRp585
(I1
(I1
I1
tg7
I00
S'\xdaH:\xc9\x1c\x83\x00\xc0'
tbsS'GTEX-13NZA'
p586
g3
(g4
(I0
tS'b'
tRp587
(I1
(I1
I1
tg7
I00
S'\xbf\xd7s\x93En\xf8?'
tbsS'GTEX-12ZZX'
p588
g3
(g4
(I0
tS'b'
tRp589
(I1
(I1
I1
tg7
I00
S'IV\x82\xdd#i\xfc?'
tbsS'GTEX-13OW8'
p590
g3
(g4
(I0
tS'b'
tRp591
(I1
(I1
I1
tg7
I00
S's][\xb4H\xbb\x03@'
tbsS'GTEX-13OW5'
p592
g3
(g4
(I0
tS'b'
tRp593
(I1
(I1
I1
tg7
I00
S'\x8a\x03\x02\xce\xa8\xb7\x0e\xc0'
tbsS'GTEX-13OW7'
p594
g3
(g4
(I0
tS'b'
tRp595
(I1
(I1
I1
tg7
I00
S'q\x87\xddjJy\x11@'
tbsS'GTEX-13OW6'
p596
g3
(g4
(I0
tS'b'
tRp597
(I1
(I1
I1
tg7
I00
S'\xe8\xc8K\x0b+\xc4\t@'
tbsS'GTEX-U4B1'
p598
g3
(g4
(I0
tS'b'
tRp599
(I1
(I1
I1
tg7
I00
S"e\xb7\x85v\xf0'\xf7\xbf"
tbsS'GTEX-11P81'
p600
g3
(g4
(I0
tS'b'
tRp601
(I1
(I1
I1
tg7
I00
S'k\x9c\xe1=g\x10\xe6?'
tbsS'GTEX-11P82'
p602
g3
(g4
(I0
tS'b'
tRp603
(I1
(I1
I1
tg7
I00
S'q\xdc@i2\xd7\xf4?'
tbsS'GTEX-117YW'
p604
g3
(g4
(I0
tS'b'
tRp605
(I1
(I1
I1
tg7
I00
S'\x95\x8c\xab\xe6\xca<\x0e@'
tbsS'GTEX-12KS4'
p606
g3
(g4
(I0
tS'b'
tRp607
(I1
(I1
I1
tg7
I00
S'\xba|X\xcb\xf7Y\xf2?'
tbsS'GTEX-X62O'
p608
g3
(g4
(I0
tS'b'
tRp609
(I1
(I1
I1
tg7
I00
S'\x83Eq\x8b\t@\x10\xc0'
tbsS'GTEX-13FH7'
p610
g3
(g4
(I0
tS'b'
tRp611
(I1
(I1
I1
tg7
I00
S'\x0c\xab]\x99\xd4a\xa8\xbf'
tbsS'GTEX-ZPIC'
p612
g3
(g4
(I0
tS'b'
tRp613
(I1
(I1
I1
tg7
I00
S'\x0c\x083\xbc\xc0\xa4\xf0?'
tbsS'GTEX-117XS'
p614
g3
(g4
(I0
tS'b'
tRp615
(I1
(I1
I1
tg7
I00
S'\xb0\xb5\xab_\xccg\x0b@'
tbsS'GTEX-OOBK'
p616
g3
(g4
(I0
tS'b'
tRp617
(I1
(I1
I1
tg7
I00
S'\x92b\xfa\xdd\x91\x1c\n\xc0'
tbsS'GTEX-12584'
p618
g3
(g4
(I0
tS'b'
tRp619
(I1
(I1
I1
tg7
I00
S'\xaa\x03\x8bf\xb7\xe1\xcf?'
tbsS'GTEX-12ZZZ'
p620
g3
(g4
(I0
tS'b'
tRp621
(I1
(I1
I1
tg7
I00
S'\x13\x1bAU\x82\xbf\x03@'
tbsS'GTEX-Y114'
p622
g3
(g4
(I0
tS'b'
tRp623
(I1
(I1
I1
tg7
I00
S'a\x16R\xd5\xc6\x08\x06@'
tbsS'GTEX-S33H'
p624
g3
(g4
(I0
tS'b'
tRp625
(I1
(I1
I1
tg7
I00
S'\xff\xf6\xeb\x8d\x98\xd3\xf9\xbf'
tbsS'GTEX-Y111'
p626
g3
(g4
(I0
tS'b'
tRp627
(I1
(I1
I1
tg7
I00
S'U\xbes!\xcay\x08@'
tbsS'GTEX-ZYFC'
p628
g3
(g4
(I0
tS'b'
tRp629
(I1
(I1
I1
tg7
I00
S'\xd0\xfd\x1d\xa6\xd0\xe3\x14@'
tbsS'GTEX-ZYFG'
p630
g3
(g4
(I0
tS'b'
tRp631
(I1
(I1
I1
tg7
I00
S'\xe9\xc1\xce\xefl\xff\xcb?'
tbsS'GTEX-OHPN'
p632
g3
(g4
(I0
tS'b'
tRp633
(I1
(I1
I1
tg7
I00
S'\xee\x02\xfe\xa4\xbfX\xf3?'
tbsS'GTEX-OHPM'
p634
g3
(g4
(I0
tS'b'
tRp635
(I1
(I1
I1
tg7
I00
S'L\x10\x92\xed\xd8#\x03\xc0'
tbsS'GTEX-ZYFD'
p636
g3
(g4
(I0
tS'b'
tRp637
(I1
(I1
I1
tg7
I00
S'\x90\x94\xd7k\x03\xcf\xee\xbf'
tbsS'GTEX-Z93S'
p638
g3
(g4
(I0
tS'b'
tRp639
(I1
(I1
I1
tg7
I00
S'\xd2eP^\xf5\x88\x08@'
tbsS'GTEX-Z93T'
p640
g3
(g4
(I0
tS'b'
tRp641
(I1
(I1
I1
tg7
I00
S'\xec\xccA\xd5\x05y\x02@'
tbsS'GTEX-UPK5'
p642
g3
(g4
(I0
tS'b'
tRp643
(I1
(I1
I1
tg7
I00
S'gFm\x99nB\xf6\xbf'
tbsS'GTEX-13U4I'
p644
g3
(g4
(I0
tS'b'
tRp645
(I1
(I1
I1
tg7
I00
S'\xd1%3\xc7>k\xfb?'
tbsS'GTEX-Y5LM'
p646
g3
(g4
(I0
tS'b'
tRp647
(I1
(I1
I1
tg7
I00
S'\xedP\xe2\xa8\xec\x18\x03\xc0'
tbsS'GTEX-QESD'
p648
g3
(g4
(I0
tS'b'
tRp649
(I1
(I1
I1
tg7
I00
S'\x10\xf9u\xfe\x8as\xfb\xbf'
tbsS'GTEX-UJHI'
p650
g3
(g4
(I0
tS'b'
tRp651
(I1
(I1
I1
tg7
I00
S"'\xcd\x82\rY\xe8\xd1\xbf"
tbsS'GTEX-S3XE'
p652
g3
(g4
(I0
tS'b'
tRp653
(I1
(I1
I1
tg7
I00
S'\x85\xbb\xb3}Y\xef\xea\xbf'
tbsS'GTEX-11EQ9'
p654
g3
(g4
(I0
tS'b'
tRp655
(I1
(I1
I1
tg7
I00
S'\x08bY(Z\x1f\xdb\xbf'
tbsS'GTEX-11EQ8'
p656
g3
(g4
(I0
tS'b'
tRp657
(I1
(I1
I1
tg7
I00
S'>\x05\xc8\x03}*\x18\xc0'
tbsS'GTEX-RM2N'
p658
g3
(g4
(I0
tS'b'
tRp659
(I1
(I1
I1
tg7
I00
S'\x18\x99\xb0\xdf9\xbe\xfc\xbf'
tbsS'GTEX-13FHP'
p660
g3
(g4
(I0
tS'b'
tRp661
(I1
(I1
I1
tg7
I00
S'\xcd\xf4N\xc6\xfeJ\x0b@'
tbsS'GTEX-XMD3'
p662
g3
(g4
(I0
tS'b'
tRp663
(I1
(I1
I1
tg7
I00
S'\xfa\xde\xc2\x16\x9cy\x1f\xc0'
tbsS'GTEX-XMD2'
p664
g3
(g4
(I0
tS'b'
tRp665
(I1
(I1
I1
tg7
I00
S'1~@\xa1\xe3o\x04\xc0'
tbsS'GTEX-XMD1'
p666
g3
(g4
(I0
tS'b'
tRp667
(I1
(I1
I1
tg7
I00
S'\xa7\x91\xfc\xa9\xa2\x1f\x1b\xc0'
tbsS'GTEX-11TUW'
p668
g3
(g4
(I0
tS'b'
tRp669
(I1
(I1
I1
tg7
I00
S'\xfdS&U\xa6g\xec?'
tbsS'GTEX-U412'
p670
g3
(g4
(I0
tS'b'
tRp671
(I1
(I1
I1
tg7
I00
S'\xfc\xd4\x81\xb2\xe3\xbd\x00@'
tbsS'GTEX-1339X'
p672
g3
(g4
(I0
tS'b'
tRp673
(I1
(I1
I1
tg7
I00
S'z\xbe\x08\xe6"\xe6\x15\xc0'
tbsS'GTEX-XV7Q'
p674
g3
(g4
(I0
tS'b'
tRp675
(I1
(I1
I1
tg7
I00
S'\xe4\x9c\x00DL\xf0\x11\xc0'
tbsS'GTEX-12126'
p676
g3
(g4
(I0
tS'b'
tRp677
(I1
(I1
I1
tg7
I00
S'\xf4\x80\xd9\xf0\xb6&\x03@'
tbsS'GTEX-ZLWG'
p678
g3
(g4
(I0
tS'b'
tRp679
(I1
(I1
I1
tg7
I00
S'\xe7\x13\x9a\x14\xfeJ\xc9?'
tbsS'GTEX-VJYA'
p680
g3
(g4
(I0
tS'b'
tRp681
(I1
(I1
I1
tg7
I00
S'\x85\xcc\xaec\x83\x05\xf0?'
tbsS'GTEX-ZTX8'
p682
g3
(g4
(I0
tS'b'
tRp683
(I1
(I1
I1
tg7
I00
S'\x05\xb6=\xc1+\x8f\xbb\xbf'
tbsS'GTEX-ZVT2'
p684
g3
(g4
(I0
tS'b'
tRp685
(I1
(I1
I1
tg7
I00
S'\xfcDw\x14\x83`\xf7?'
tbsS'GTEX-ZVT3'
p686
g3
(g4
(I0
tS'b'
tRp687
(I1
(I1
I1
tg7
I00
S'AN\xe3\t\x0f\\\x0b@'
tbsS'GTEX-WXYG'
p688
g3
(g4
(I0
tS'b'
tRp689
(I1
(I1
I1
tg7
I00
S'\xb7 \x03\xe9{z\xc7\xbf'
tbsS'GTEX-ZVT4'
p690
g3
(g4
(I0
tS'b'
tRp691
(I1
(I1
I1
tg7
I00
S'\xd7\xb69\x9f\x9aA\x06@'
tbsS'GTEX-TML8'
p692
g3
(g4
(I0
tS'b'
tRp693
(I1
(I1
I1
tg7
I00
S'\xc5\xb2H\xcc\xd2\xbb\x04@'
tbsS'GTEX-13FTY'
p694
g3
(g4
(I0
tS'b'
tRp695
(I1
(I1
I1
tg7
I00
S'e)3\xb9\x1c\xb2\xfa?'
tbsS'GTEX-13FTX'
p696
g3
(g4
(I0
tS'b'
tRp697
(I1
(I1
I1
tg7
I00
S'\xe1\x8d\xf2)\x0c\xb8\xfc\xbf'
tbsS'GTEX-13FTZ'
p698
g3
(g4
(I0
tS'b'
tRp699
(I1
(I1
I1
tg7
I00
S'\x93\xd9uh\x96I\r@'
tbsS'GTEX-13S86'
p700
g3
(g4
(I0
tS'b'
tRp701
(I1
(I1
I1
tg7
I00
S'z=^\xb0\xa2\xcd\x1c\xc0'
tbsS'GTEX-W5X1'
p702
g3
(g4
(I0
tS'b'
tRp703
(I1
(I1
I1
tg7
I00
S'\xf3\x8fh/3\x83\xc2?'
tbsS'GTEX-ZAJG'
p704
g3
(g4
(I0
tS'b'
tRp705
(I1
(I1
I1
tg7
I00
S'\xc0\x86<\xfe<\x0c\x1a\xc0'
tbsS'GTEX-SNMC'
p706
g3
(g4
(I0
tS'b'
tRp707
(I1
(I1
I1
tg7
I00
S'\x8b<\x8aY\xf3\xdd\xe0\xbf'
tbsS'GTEX-13FTW'
p708
g3
(g4
(I0
tS'b'
tRp709
(I1
(I1
I1
tg7
I00
S'\x05\x9a"\x94\x80\x8f\xd3?'
tbsS'GTEX-11NUK'
p710
g3
(g4
(I0
tS'b'
tRp711
(I1
(I1
I1
tg7
I00
S'_\xc4@&\x9e[\x14@'
tbsS'GTEX-ZVTK'
p712
g3
(g4
(I0
tS'b'
tRp713
(I1
(I1
I1
tg7
I00
S'7;\xc6cn\xa0\r@'
tbsS'GTEX-ZZ64'
p714
g3
(g4
(I0
tS'b'
tRp715
(I1
(I1
I1
tg7
I00
S'\x07\xec\x85\x91\x98\x05\xd2?'
tbsS'GTEX-PWO3'
p716
g3
(g4
(I0
tS'b'
tRp717
(I1
(I1
I1
tg7
I00
S'K\x1d)\xf8f\x16\x15\xc0'
tbsS'GTEX-13NYS'
p718
g3
(g4
(I0
tS'b'
tRp719
(I1
(I1
I1
tg7
I00
S'\xcd[\x08\xfe;1!\xc0'
tbsS'GTEX-1212Z'
p720
g3
(g4
(I0
tS'b'
tRp721
(I1
(I1
I1
tg7
I00
S'\xab\xcb\x87\x1c\xd3\xf9\x0b@'
tbsS'GTEX-11I78'
p722
g3
(g4
(I0
tS'b'
tRp723
(I1
(I1
I1
tg7
I00
S'\xa5\xf7\xf5\x8fG\x9a\xea\xbf'
tbsS'GTEX-13NYB'
p724
g3
(g4
(I0
tS'b'
tRp725
(I1
(I1
I1
tg7
I00
S'\x7f\x93\xb5,t!\x0b@'
tbsS'GTEX-13NYC'
p726
g3
(g4
(I0
tS'b'
tRp727
(I1
(I1
I1
tg7
I00
S'\xe7\x05r\xba\x9c\xad\x1f\xc0'
tbsS'GTEX-Y9LG'
p728
g3
(g4
(I0
tS'b'
tRp729
(I1
(I1
I1
tg7
I00
S'f\x00\xa0wXr\xd1?'
tbsS'GTEX-X5EB'
p730
g3
(g4
(I0
tS'b'
tRp731
(I1
(I1
I1
tg7
I00
S'vj\x11\xc2\x96&\xd6\xbf'
tbsS'GTEX-1399Q'
p732
g3
(g4
(I0
tS'b'
tRp733
(I1
(I1
I1
tg7
I00
S'\xb5WpQ\x17\x89\x1a\xc0'
tbsS'GTEX-1399R'
p734
g3
(g4
(I0
tS'b'
tRp735
(I1
(I1
I1
tg7
I00
S'T\xd5l\xdb\xe5\xc5\xea\xbf'
tbsS'GTEX-1399U'
p736
g3
(g4
(I0
tS'b'
tRp737
(I1
(I1
I1
tg7
I00
S'\xeb2\xe2\x17\x87y\xe9?'
tbsS'GTEX-1399T'
p738
g3
(g4
(I0
tS'b'
tRp739
(I1
(I1
I1
tg7
I00
S'@\xc0\xf4\xc6\t\xf5\x0e@'
tbsS'GTEX-13X6I'
p740
g3
(g4
(I0
tS'b'
tRp741
(I1
(I1
I1
tg7
I00
S'\x80\xf42\xb5\x96V\x07\xc0'
tbsS'GTEX-13X6H'
p742
g3
(g4
(I0
tS'b'
tRp743
(I1
(I1
I1
tg7
I00
S'7\x1e{\xea\xf8\x80\xf0\xbf'
tbsS'GTEX-13X6K'
p744
g3
(g4
(I0
tS'b'
tRp745
(I1
(I1
I1
tg7
I00
S'5\xe1\xee\xa1o\x85\xfd?'
tbsS'GTEX-13X6J'
p746
g3
(g4
(I0
tS'b'
tRp747
(I1
(I1
I1
tg7
I00
S'\xcc\xc76\xb8r\xd1\x11@'
tbsS'GTEX-ZXG5'
p748
g3
(g4
(I0
tS'b'
tRp749
(I1
(I1
I1
tg7
I00
S'i\x8e\xd5\x13\xe5\x1d\xfc?'
tbsS'GTEX-11ZU8'
p750
g3
(g4
(I0
tS'b'
tRp751
(I1
(I1
I1
tg7
I00
S'\xe7\x9aW\x800\xc8\x00@'
tbsS'GTEX-QVJO'
p752
g3
(g4
(I0
tS'b'
tRp753
(I1
(I1
I1
tg7
I00
S's`\x0e\xfcr\x16\xed\xbf'
tbsS'GTEX-RWS6'
p754
g3
(g4
(I0
tS'b'
tRp755
(I1
(I1
I1
tg7
I00
S'\x87\xd3\xcaJ\x9a\x08\xe9\xbf'
tbsS'GTEX-ZP4G'
p756
g3
(g4
(I0
tS'b'
tRp757
(I1
(I1
I1
tg7
I00
S'_\x90=\xd8}\xe3\xf2?'
tbsS'GTEX-Y8E4'
p758
g3
(g4
(I0
tS'b'
tRp759
(I1
(I1
I1
tg7
I00
S'\xd7\xf0_\xa6\xa2\x87\xe1?'
tbsS'GTEX-Y8E5'
p760
g3
(g4
(I0
tS'b'
tRp761
(I1
(I1
I1
tg7
I00
S'`vb\xb2\x13x\xd1\xbf'
tbsS'GTEX-WH7G'
p762
g3
(g4
(I0
tS'b'
tRp763
(I1
(I1
I1
tg7
I00
S'\xdd\xc6~?\xfb\x8d\xda\xbf'
tbsS'GTEX-WEY5'
p764
g3
(g4
(I0
tS'b'
tRp765
(I1
(I1
I1
tg7
I00
S'\x8c+\x02\x17=\x0b\xf2?'
tbsS'GTEX-11P7K'
p766
g3
(g4
(I0
tS'b'
tRp767
(I1
(I1
I1
tg7
I00
S'\xe5u\x84R\xac\xd9\xfa?'
tbsS'GTEX-S7PM'
p768
g3
(g4
(I0
tS'b'
tRp769
(I1
(I1
I1
tg7
I00
S'\x89\xc2\xc6\xb7e\x08\t@'
tbsS'GTEX-V1D1'
p770
g3
(g4
(I0
tS'b'
tRp771
(I1
(I1
I1
tg7
I00
S'\xf0N%M\x15\xe5\xd9\xbf'
tbsS'GTEX-WRHK'
p772
g3
(g4
(I0
tS'b'
tRp773
(I1
(I1
I1
tg7
I00
S'\xb4\xdb\x0ch<\xfe\xdd\xbf'
tbsS'GTEX-R55C'
p774
g3
(g4
(I0
tS'b'
tRp775
(I1
(I1
I1
tg7
I00
S'\x19\xf0\x8cP\xf9\x1a\xf1\xbf'
tbsS'GTEX-R55F'
p776
g3
(g4
(I0
tS'b'
tRp777
(I1
(I1
I1
tg7
I00
S'\xbe\xfd\x1a\x8b\xd2\x18\x12\xc0'
tbsS'GTEX-R55G'
p778
g3
(g4
(I0
tS'b'
tRp779
(I1
(I1
I1
tg7
I00
S'\xe5\xbc\xa9\xfaE\x1b\xfe\xbf'
tbsS'GTEX-R55D'
p780
g3
(g4
(I0
tS'b'
tRp781
(I1
(I1
I1
tg7
I00
S";\xdb\xde\xde'>\x01\xc0"
tbsS'GTEX-R55E'
p782
g3
(g4
(I0
tS'b'
tRp783
(I1
(I1
I1
tg7
I00
S'\x00\xf8\x03\x05?7\xf5?'
tbsS'GTEX-PSDG'
p784
g3
(g4
(I0
tS'b'
tRp785
(I1
(I1
I1
tg7
I00
S'\x05\xef\x92W@\xa7\x03\xc0'
tbsS'GTEX-RWSA'
p786
g3
(g4
(I0
tS'b'
tRp787
(I1
(I1
I1
tg7
I00
S'\n\xcdW5\xb3\x85\t@'
tbsS'GTEX-1122O'
p788
g3
(g4
(I0
tS'b'
tRp789
(I1
(I1
I1
tg7
I00
S'Sc]\xb3\x7fQ\xef?'
tbsS'GTEX-X4EO'
p790
g3
(g4
(I0
tS'b'
tRp791
(I1
(I1
I1
tg7
I00
S'6\xf7\x1c\x1a\xec\xa4\x03@'
tbsS'GTEX-WVLH'
p792
g3
(g4
(I0
tS'b'
tRp793
(I1
(I1
I1
tg7
I00
S'\x7fE\xc5\xb0\x9a&\xf7?'
tbsS'GTEX-WYVS'
p794
g3
(g4
(I0
tS'b'
tRp795
(I1
(I1
I1
tg7
I00
S'\xaf\xea\xb9<I_\xfa?'
tbsS'GTEX-X4EP'
p796
g3
(g4
(I0
tS'b'
tRp797
(I1
(I1
I1
tg7
I00
S'\r\x18\xe7\x99\xc3/\x0c\xc0'
tbsS'GTEX-YB5E'
p798
g3
(g4
(I0
tS'b'
tRp799
(I1
(I1
I1
tg7
I00
S'\x08(K\xa0\xe3?\xdd?'
tbsS'GTEX-RU1J'
p800
g3
(g4
(I0
tS'b'
tRp801
(I1
(I1
I1
tg7
I00
S'\xe9\xe7L\xa4Ln\x00\xc0'
tbsS'GTEX-11GSP'
p802
g3
(g4
(I0
tS'b'
tRp803
(I1
(I1
I1
tg7
I00
S'\xf2\x89\xd7\x1f\xd0f\x06@'
tbsS'GTEX-11GSO'
p804
g3
(g4
(I0
tS'b'
tRp805
(I1
(I1
I1
tg7
I00
S'\xa2\xd4\xa3eNT\x04@'
tbsS'GTEX-12ZZY'
p806
g3
(g4
(I0
tS'b'
tRp807
(I1
(I1
I1
tg7
I00
S'\x11\xf5\xa0kP\xae\x08@'
tbsS'GTEX-11UD2'
p808
g3
(g4
(I0
tS'b'
tRp809
(I1
(I1
I1
tg7
I00
S'\xa3\xeaw"\x0ba\xd1?'
tbsS'GTEX-11PRG'
p810
g3
(g4
(I0
tS'b'
tRp811
(I1
(I1
I1
tg7
I00
S'\x94q\x8c\xa5\x9b\x13\x11@'
tbsS'GTEX-SN8G'
p812
g3
(g4
(I0
tS'b'
tRp813
(I1
(I1
I1
tg7
I00
S'\xe0\x1b\x7f\xa9[\x92\xfa\xbf'
tbsS'GTEX-ZVP2'
p814
g3
(g4
(I0
tS'b'
tRp815
(I1
(I1
I1
tg7
I00
S'\x05\xb3:6\x92\xa4\xab\xbf'
tbsS'GTEX-12ZZW'
p816
g3
(g4
(I0
tS'b'
tRp817
(I1
(I1
I1
tg7
I00
S'g\xdb\x1f\xb0@\xf6\xee\xbf'
tbsS'GTEX-13W3W'
p818
g3
(g4
(I0
tS'b'
tRp819
(I1
(I1
I1
tg7
I00
S'O\xb2\x19 \xf4\xce\xdd\xbf'
tbsS'GTEX-S4Z8'
p820
g3
(g4
(I0
tS'b'
tRp821
(I1
(I1
I1
tg7
I00
S'5\xa7\xac(R\x8b\xe1\xbf'
tbsS'GTEX-1211K'
p822
g3
(g4
(I0
tS'b'
tRp823
(I1
(I1
I1
tg7
I00
S'\xb5\xfb\xda\x01\xf2\xed\xc5?'
tbsS'GTEX-ZG7Y'
p824
g3
(g4
(I0
tS'b'
tRp825
(I1
(I1
I1
tg7
I00
S'}O\xa3s\xfc\xca\t\xc0'
tbsS'GTEX-ZA64'
p826
g3
(g4
(I0
tS'b'
tRp827
(I1
(I1
I1
tg7
I00
S'"\x06\xe8j\x18Y\xd0?'
tbsS'GTEX-QCQG'
p828
g3
(g4
(I0
tS'b'
tRp829
(I1
(I1
I1
tg7
I00
S'l\xb9\xf7\x82\t\x0e\xb1\xbf'
tbsS'GTEX-11DYG'
p830
g3
(g4
(I0
tS'b'
tRp831
(I1
(I1
I1
tg7
I00
S'\xcd=\x05\xa6!\x17\x0f@'
tbsS'GTEX-S95S'
p832
g3
(g4
(I0
tS'b'
tRp833
(I1
(I1
I1
tg7
I00
S'7\xccW\x08O?\xe4\xbf'
tbsS'GTEX-Y5V6'
p834
g3
(g4
(I0
tS'b'
tRp835
(I1
(I1
I1
tg7
I00
S'\xe3\xe6@J\x15{\xf4\xbf'
tbsS'GTEX-Y5V5'
p836
g3
(g4
(I0
tS'b'
tRp837
(I1
(I1
I1
tg7
I00
S')\x8eh\x0f\xa7\xdb\xee?'
tbsS'GTEX-11GS4'
p838
g3
(g4
(I0
tS'b'
tRp839
(I1
(I1
I1
tg7
I00
S'\t\n\xa9$\xdc(\x10@'
tbsS'GTEX-QDT8'
p840
g3
(g4
(I0
tS'b'
tRp841
(I1
(I1
I1
tg7
I00
S')\x93\xa4\xde9\x88\xb2?'
tbsS'GTEX-QXCU'
p842
g3
(g4
(I0
tS'b'
tRp843
(I1
(I1
I1
tg7
I00
S'\x8c\xea\x8d\x7f\x1d3\x10@'
tbsS'GTEX-YBZK'
p844
g3
(g4
(I0
tS'b'
tRp845
(I1
(I1
I1
tg7
I00
S'\xbc\x03\xb2?\x98\xa1\xcc\xbf'
tbsS'GTEX-SSA3'
p846
g3
(g4
(I0
tS'b'
tRp847
(I1
(I1
I1
tg7
I00
S'\xc5nR\xb8\x0e{\xdc?'
tbsS'GTEX-PX3G'
p848
g3
(g4
(I0
tS'b'
tRp849
(I1
(I1
I1
tg7
I00
S'VSW\xb53>\x03@'
tbsS'GTEX-13O3P'
p850
g3
(g4
(I0
tS'b'
tRp851
(I1
(I1
I1
tg7
I00
S'?\x198<\x04d\x13\xc0'
tbsS'GTEX-V955'
p852
g3
(g4
(I0
tS'b'
tRp853
(I1
(I1
I1
tg7
I00
S'\xf5\xca\xbb<[\xab\x0b\xc0'
tbsS'GTEX-11TTK'
p854
g3
(g4
(I0
tS'b'
tRp855
(I1
(I1
I1
tg7
I00
S'\xdc\x90\n\xb7>\x86\xcf\xbf'
tbsS'GTEX-ZV7C'
p856
g3
(g4
(I0
tS'b'
tRp857
(I1
(I1
I1
tg7
I00
S'\xf8X\xb1\xab\x9f\xcf\xca?'
tbsS'GTEX-11ZVC'
p858
g3
(g4
(I0
tS'b'
tRp859
(I1
(I1
I1
tg7
I00
S'+T$\x7fT\x97\x02@'
tbsS'GTEX-11EI6'
p860
g3
(g4
(I0
tS'b'
tRp861
(I1
(I1
I1
tg7
I00
S'uaF2\xa2K\xe3?'
tbsS'GTEX-145MG'
p862
g3
(g4
(I0
tS'b'
tRp863
(I1
(I1
I1
tg7
I00
S'\xcf[PI\xbb\xf4\x04@'
tbsS'GTEX-11TT1'
p864
g3
(g4
(I0
tS'b'
tRp865
(I1
(I1
I1
tg7
I00
S'\xd3\x93(\xb4\xd1\xb3\x0e\xc0'
tbsS'GTEX-ZGAY'
p866
g3
(g4
(I0
tS'b'
tRp867
(I1
(I1
I1
tg7
I00
S'cE\xc7\x17\xcfp\x02@'
tbsS'GTEX-R45C'
p868
g3
(g4
(I0
tS'b'
tRp869
(I1
(I1
I1
tg7
I00
S'\n\xbd\xb1\xb1C\xe4\x00\xc0'
tbsS'GTEX-XAJ8'
p870
g3
(g4
(I0
tS'b'
tRp871
(I1
(I1
I1
tg7
I00
S'\x9bIh\x83\x19\xc8\x04\xc0'
tbsS'GTEX-YB5K'
p872
g3
(g4
(I0
tS'b'
tRp873
(I1
(I1
I1
tg7
I00
S'\xea\xb5r[\xfe&\xe4\xbf'
tbsS'GTEX-RUSQ'
p874
g3
(g4
(I0
tS'b'
tRp875
(I1
(I1
I1
tg7
I00
S'\xda\x00-\x1f\x07\x07 \xc0'
tbsS'GTEX-VJWN'
p876
g3
(g4
(I0
tS'b'
tRp877
(I1
(I1
I1
tg7
I00
S'\xb6\xb7\x97\x89\x07M\xc1\xbf'
tbsS'GTEX-U8XE'
p878
g3
(g4
(I0
tS'b'
tRp879
(I1
(I1
I1
tg7
I00
S'L\x9c\xfbm*\xa5\x0c\xc0'
tbsS'GTEX-XQ8I'
p880
g3
(g4
(I0
tS'b'
tRp881
(I1
(I1
I1
tg7
I00
S'\xf1\xdfF\x9d\xd0,\x08\xc0'
tbsS'GTEX-SNOS'
p882
g3
(g4
(I0
tS'b'
tRp883
(I1
(I1
I1
tg7
I00
S'\xc9\xb0\xe2\x8dR\xba\x04\xc0'
tbsS'GTEX-QV31'
p884
g3
(g4
(I0
tS'b'
tRp885
(I1
(I1
I1
tg7
I00
S'\x81<\xdd|\xe9\x81\xdd?'
tbsS'GTEX-S7SE'
p886
g3
(g4
(I0
tS'b'
tRp887
(I1
(I1
I1
tg7
I00
S'\xc5\xe9;XJ%\x10@'
tbsS'GTEX-145MF'
p888
g3
(g4
(I0
tS'b'
tRp889
(I1
(I1
I1
tg7
I00
S'\xe9L\xb1\xf9VG\x08@'
tbsS'GTEX-S7SF'
p890
g3
(g4
(I0
tS'b'
tRp891
(I1
(I1
I1
tg7
I00
S'\xe6\xd1\x15F\x8b\xb7\xe8\xbf'
tbsS'GTEX-145MH'
p892
g3
(g4
(I0
tS'b'
tRp893
(I1
(I1
I1
tg7
I00
S'\x83\x84<E\\8\t@'
tbsS'GTEX-WYJK'
p894
g3
(g4
(I0
tS'b'
tRp895
(I1
(I1
I1
tg7
I00
S'\x80C\x8f\xd4\x94\xb1\x8c\xbf'
tbsS'GTEX-145MO'
p896
g3
(g4
(I0
tS'b'
tRp897
(I1
(I1
I1
tg7
I00
S'4\x9e\xdd.\xe7\xb6\xe6?'
tbs.