(dp1
S'GTEX-YJ89'
p2
cnumpy.core.multiarray
_reconstruct
p3
(cnumpy
ndarray
p4
(I0
tS'b'
tRp5
(I1
(I1
I1
tcnumpy
dtype
p6
(S'f8'
I0
I1
tRp7
(I3
S'<'
NNNI-1
I-1
I0
tbI00
S'uCuUu\xce\x0c\xc0'
tbsS'GTEX-XPVG'
p8
g3
(g4
(I0
tS'b'
tRp9
(I1
(I1
I1
tg7
I00
S'y\xb7\x8b-\x1e\xfe\xc3\xbf'
tbsS'GTEX-TMMY'
p10
g3
(g4
(I0
tS'b'
tRp11
(I1
(I1
I1
tg7
I00
S'\x90\xb3\xc9\x1fp\xcc\xd2?'
tbsS'GTEX-WWYW'
p12
g3
(g4
(I0
tS'b'
tRp13
(I1
(I1
I1
tg7
I00
S'Z\xe8z9\x8a\xcb\xf0\xbf'
tbsS'GTEX-111FC'
p14
g3
(g4
(I0
tS'b'
tRp15
(I1
(I1
I1
tg7
I00
S'\xa5U\xf3\x9f\r5\x07@'
tbsS'GTEX-139T8'
p16
g3
(g4
(I0
tS'b'
tRp17
(I1
(I1
I1
tg7
I00
S'BMj\xcfQR\xf9?'
tbsS'GTEX-139T6'
p18
g3
(g4
(I0
tS'b'
tRp19
(I1
(I1
I1
tg7
I00
S'5G\xf9\xdd4\xc4\x05\xc0'
tbsS'GTEX-13O1R'
p20
g3
(g4
(I0
tS'b'
tRp21
(I1
(I1
I1
tg7
I00
S'\xf7\x9d\x97\xe5\xeb\xe5\r\xc0'
tbsS'GTEX-TKQ1'
p22
g3
(g4
(I0
tS'b'
tRp23
(I1
(I1
I1
tg7
I00
S"/>'<\x1cA\xce\xbf"
tbsS'GTEX-ZVE1'
p24
g3
(g4
(I0
tS'b'
tRp25
(I1
(I1
I1
tg7
I00
S'\xd09c"pF\x10@'
tbsS'GTEX-ZVE2'
p26
g3
(g4
(I0
tS'b'
tRp27
(I1
(I1
I1
tg7
I00
S'g\xab\xaf\x15_\xb3\x01@'
tbsS'GTEX-Q2AH'
p28
g3
(g4
(I0
tS'b'
tRp29
(I1
(I1
I1
tg7
I00
S"\xfe\xdc\xdbz\x9e'\x02@"
tbsS'GTEX-Q2AI'
p30
g3
(g4
(I0
tS'b'
tRp31
(I1
(I1
I1
tg7
I00
S'\xeb\xd3*\xcc\xc96\xf3?'
tbsS'GTEX-S32W'
p32
g3
(g4
(I0
tS'b'
tRp33
(I1
(I1
I1
tg7
I00
S'\xb7\xa4\x19\x9b;h\xfa?'
tbsS'GTEX-ZEX8'
p34
g3
(g4
(I0
tS'b'
tRp35
(I1
(I1
I1
tg7
I00
S'\xdc\x1e\xdb\xa6\xb8\xbf\x16\xc0'
tbsS'GTEX-13D11'
p36
g3
(g4
(I0
tS'b'
tRp37
(I1
(I1
I1
tg7
I00
S'U\xd90\x13}\xbe\xf6\xbf'
tbsS'GTEX-WZTO'
p38
g3
(g4
(I0
tS'b'
tRp39
(I1
(I1
I1
tg7
I00
S'\xa0d~l\x0c\xf9\xec\xbf'
tbsS'GTEX-139TU'
p40
g3
(g4
(I0
tS'b'
tRp41
(I1
(I1
I1
tg7
I00
S'\x89\xa9\xc6M\xacz\xfd\xbf'
tbsS'GTEX-139TS'
p42
g3
(g4
(I0
tS'b'
tRp43
(I1
(I1
I1
tg7
I00
S'\xe1\t\xa5\x19nw\xed?'
tbsS'GTEX-ZF3C'
p44
g3
(g4
(I0
tS'b'
tRp45
(I1
(I1
I1
tg7
I00
S'\xbe\xff\xd7\x96(\xf8\x06@'
tbsS'GTEX-XMK1'
p46
g3
(g4
(I0
tS'b'
tRp47
(I1
(I1
I1
tg7
I00
S'My\xd3\xcfj\xac\xea?'
tbsS'GTEX-WHWD'
p48
g3
(g4
(I0
tS'b'
tRp49
(I1
(I1
I1
tg7
I00
S'">\xabX\x8d^\xd4\xbf'
tbsS'GTEX-1192W'
p50
g3
(g4
(I0
tS'b'
tRp51
(I1
(I1
I1
tg7
I00
S'"\x8c\xb5c\xbej\xa3?'
tbsS'GTEX-X4XX'
p52
g3
(g4
(I0
tS'b'
tRp53
(I1
(I1
I1
tg7
I00
S'\xc1&\x84\t2\xfd\t@'
tbsS'GTEX-X4XY'
p54
g3
(g4
(I0
tS'b'
tRp55
(I1
(I1
I1
tg7
I00
S'\x05\xb6\x98q\xca5\n\xc0'
tbsS'GTEX-13CZV'
p56
g3
(g4
(I0
tS'b'
tRp57
(I1
(I1
I1
tg7
I00
S"\xe4\xa9'x\x00<\x18@"
tbsS'GTEX-1192X'
p58
g3
(g4
(I0
tS'b'
tRp59
(I1
(I1
I1
tg7
I00
S'A\x8b\xf2\xcd\xc0:\x15\xc0'
tbsS'GTEX-T2YK'
p60
g3
(g4
(I0
tS'b'
tRp61
(I1
(I1
I1
tg7
I00
S'k\xa2\xe1@\x1f\xf0\x11\xc0'
tbsS'GTEX-YJ8A'
p62
g3
(g4
(I0
tS'b'
tRp63
(I1
(I1
I1
tg7
I00
S'\xed(l\x1dvx\n@'
tbsS'GTEX-SIU8'
p64
g3
(g4
(I0
tS'b'
tRp65
(I1
(I1
I1
tg7
I00
S'O"\x02Nr\x04\x11\xc0'
tbsS'GTEX-QEG5'
p66
g3
(g4
(I0
tS'b'
tRp67
(I1
(I1
I1
tg7
I00
S'-[1\x0e\x13\xfb\xb8?'
tbsS'GTEX-QEG4'
p68
g3
(g4
(I0
tS'b'
tRp69
(I1
(I1
I1
tg7
I00
S'\x9f+\x1d\xd5\xc0L\xe8\xbf'
tbsS'GTEX-SIU7'
p70
g3
(g4
(I0
tS'b'
tRp71
(I1
(I1
I1
tg7
I00
S'\xc3\x97f\xee\x05\x01\xca?'
tbsS'GTEX-WI4N'
p72
g3
(g4
(I0
tS'b'
tRp73
(I1
(I1
I1
tg7
I00
S'P\x9c:\x80\x01\x0f\xd3?'
tbsS'GTEX-OXRL'
p74
g3
(g4
(I0
tS'b'
tRp75
(I1
(I1
I1
tg7
I00
S'\xc0V\xfb\x9bZ\xfb\x07\xc0'
tbsS'GTEX-OXRO'
p76
g3
(g4
(I0
tS'b'
tRp77
(I1
(I1
I1
tg7
I00
S'\x80\xb2j\x10\x93-\x8e\xbf'
tbsS'GTEX-OXRN'
p78
g3
(g4
(I0
tS'b'
tRp79
(I1
(I1
I1
tg7
I00
S'\x01 \xf0i\xff>\x04@'
tbsS'GTEX-OXRK'
p80
g3
(g4
(I0
tS'b'
tRp81
(I1
(I1
I1
tg7
I00
S"\xbe'\xe4\x99\xa7\x1a\x04@"
tbsS'GTEX-X261'
p82
g3
(g4
(I0
tS'b'
tRp83
(I1
(I1
I1
tg7
I00
S'\xab\x03\xc4T\xc1\xee\xd0?'
tbsS'GTEX-UJMC'
p84
g3
(g4
(I0
tS'b'
tRp85
(I1
(I1
I1
tg7
I00
S'\xb9#^\x07\x7f/\x06\xc0'
tbsS'GTEX-SJXC'
p86
g3
(g4
(I0
tS'b'
tRp87
(I1
(I1
I1
tg7
I00
S'\x00\xe6\xf8\xb2\xa4\x9f\xef\xbf'
tbsS'GTEX-13VXU'
p88
g3
(g4
(I0
tS'b'
tRp89
(I1
(I1
I1
tg7
I00
S'\xe1\xb1\xda3\xd3!\x04@'
tbsS'GTEX-13VXT'
p90
g3
(g4
(I0
tS'b'
tRp91
(I1
(I1
I1
tg7
I00
S'\x82^\xcb\x9d\xf8\xb5\xf5?'
tbsS'GTEX-OIZH'
p92
g3
(g4
(I0
tS'b'
tRp93
(I1
(I1
I1
tg7
I00
S'\xb3\x83y|!c\xf3\xbf'
tbsS'GTEX-OIZI'
p94
g3
(g4
(I0
tS'b'
tRp95
(I1
(I1
I1
tg7
I00
S'\xce\xbc1\xfd\x02R\xd0?'
tbsS'GTEX-ZAB5'
p96
g3
(g4
(I0
tS'b'
tRp97
(I1
(I1
I1
tg7
I00
S'\x95%\xcaUh\xfe\xf7?'
tbsS'GTEX-ZAB4'
p98
g3
(g4
(I0
tS'b'
tRp99
(I1
(I1
I1
tg7
I00
S'=\xa56\xbb\xd6\xbe\xfe?'
tbsS'GTEX-OHPL'
p100
g3
(g4
(I0
tS'b'
tRp101
(I1
(I1
I1
tg7
I00
S'C/\xe6"n#\x03\xc0'
tbsS'GTEX-OIZG'
p102
g3
(g4
(I0
tS'b'
tRp103
(I1
(I1
I1
tg7
I00
S'\xf9?\xc7\xc6l\xe8\xfb\xbf'
tbsS'GTEX-ZY6K'
p104
g3
(g4
(I0
tS'b'
tRp105
(I1
(I1
I1
tg7
I00
S'1v\xc5\xe3\xc1.\x05@'
tbsS'GTEX-11DXW'
p106
g3
(g4
(I0
tS'b'
tRp107
(I1
(I1
I1
tg7
I00
S'6.\x00\xf4\xbb\x02\xeb?'
tbsS'GTEX-13CF2'
p108
g3
(g4
(I0
tS'b'
tRp109
(I1
(I1
I1
tg7
I00
S'\x18\xf17\xb4\xc4\x1a\xd3?'
tbsS'GTEX-13CF3'
p110
g3
(g4
(I0
tS'b'
tRp111
(I1
(I1
I1
tg7
I00
S'\xd9\xf4-\xec\x80;\x0c\xc0'
tbsS'GTEX-11DXY'
p112
g3
(g4
(I0
tS'b'
tRp113
(I1
(I1
I1
tg7
I00
S'\t\x82\x00\x99\xec<\xa7\xbf'
tbsS'GTEX-11DXX'
p114
g3
(g4
(I0
tS'b'
tRp115
(I1
(I1
I1
tg7
I00
S'\x91cM\xd539\xfe?'
tbsS'GTEX-11DXZ'
p116
g3
(g4
(I0
tS'b'
tRp117
(I1
(I1
I1
tg7
I00
S'D;\xe9)\x7f\xe0\xf1\xbf'
tbsS'GTEX-13S7M'
p118
g3
(g4
(I0
tS'b'
tRp119
(I1
(I1
I1
tg7
I00
S'EP\xae\xb6\x1ej\xfa\xbf'
tbsS'GTEX-WOFL'
p120
g3
(g4
(I0
tS'b'
tRp121
(I1
(I1
I1
tg7
I00
S'\xa8s\x05,\x93S\xd9\xbf'
tbsS'GTEX-WOFM'
p122
g3
(g4
(I0
tS'b'
tRp123
(I1
(I1
I1
tg7
I00
S'\xeb:jA\xf0~\xf4?'
tbsS'GTEX-XUZC'
p124
g3
(g4
(I0
tS'b'
tRp125
(I1
(I1
I1
tg7
I00
S'\xffHWNT[\xe2?'
tbsS'GTEX-ZDTS'
p126
g3
(g4
(I0
tS'b'
tRp127
(I1
(I1
I1
tg7
I00
S'\xb8\x9b\xa8\xd1d\x9a\xe6?'
tbsS'GTEX-ZDTT'
p128
g3
(g4
(I0
tS'b'
tRp129
(I1
(I1
I1
tg7
I00
S'{\xdd\xa3\\(\xca\x15@'
tbsS'GTEX-PWN1'
p130
g3
(g4
(I0
tS'b'
tRp131
(I1
(I1
I1
tg7
I00
S'\xe4iN\x10\xe4\x92\xf6\xbf'
tbsS'GTEX-N7MS'
p132
g3
(g4
(I0
tS'b'
tRp133
(I1
(I1
I1
tg7
I00
S'\xd8G>\xafg\xf5\xef\xbf'
tbsS'GTEX-N7MT'
p134
g3
(g4
(I0
tS'b'
tRp135
(I1
(I1
I1
tg7
I00
S'\xd4l\x08\xdaA|\x02@'
tbsS'GTEX-W5WG'
p136
g3
(g4
(I0
tS'b'
tRp137
(I1
(I1
I1
tg7
I00
S'\x03\\\xe4!R\x89\xca\xbf'
tbsS'GTEX-XYKS'
p138
g3
(g4
(I0
tS'b'
tRp139
(I1
(I1
I1
tg7
I00
S'\xe6\xf7j\xcd&\xcd\x04@'
tbsS'GTEX-NPJ7'
p140
g3
(g4
(I0
tS'b'
tRp141
(I1
(I1
I1
tg7
I00
S'N\xd7\\\xa4g\\\xe5?'
tbsS'GTEX-13RTK'
p142
g3
(g4
(I0
tS'b'
tRp143
(I1
(I1
I1
tg7
I00
S'(\xc1\xa0\xfa\r?\xc9\xbf'
tbsS'GTEX-13RTJ'
p144
g3
(g4
(I0
tS'b'
tRp145
(I1
(I1
I1
tg7
I00
S'\xb1|\x86}VF\xac\xbf'
tbsS'GTEX-O5YT'
p146
g3
(g4
(I0
tS'b'
tRp147
(I1
(I1
I1
tg7
I00
S'x\xed5v9u\x05\xc0'
tbsS'GTEX-O5YW'
p148
g3
(g4
(I0
tS'b'
tRp149
(I1
(I1
I1
tg7
I00
S"w\x87g4|'\xf6\xbf"
tbsS'GTEX-O5YV'
p150
g3
(g4
(I0
tS'b'
tRp151
(I1
(I1
I1
tg7
I00
S'\xdd\xd7\xbc\xb3\xa1\x16\x02@'
tbsS'GTEX-WL46'
p152
g3
(g4
(I0
tS'b'
tRp153
(I1
(I1
I1
tg7
I00
S'\xe2\xea\x80\xa6<E\x08\xc0'
tbsS'GTEX-NPJ8'
p154
g3
(g4
(I0
tS'b'
tRp155
(I1
(I1
I1
tg7
I00
S'\x05\xdd\xb6f\x16d\xdf?'
tbsS'GTEX-Q2AG'
p156
g3
(g4
(I0
tS'b'
tRp157
(I1
(I1
I1
tg7
I00
S'\xa2a\xb5\xe0\xda\x04\xfa?'
tbsS'GTEX-11EM3'
p158
g3
(g4
(I0
tS'b'
tRp159
(I1
(I1
I1
tg7
I00
S'\xeb\x9b\x8f\x9a\xf6D\xde\xbf'
tbsS'GTEX-Q734'
p160
g3
(g4
(I0
tS'b'
tRp161
(I1
(I1
I1
tg7
I00
S'\xa8\x97\xf2\xce\xb7\xeb\xf4\xbf'
tbsS'GTEX-11EMC'
p162
g3
(g4
(I0
tS'b'
tRp163
(I1
(I1
I1
tg7
I00
S'\xfd\xe19M\x88\xc5\xf8?'
tbsS'GTEX-13N11'
p164
g3
(g4
(I0
tS'b'
tRp165
(I1
(I1
I1
tg7
I00
S'4\xf9\x08\x07\xc2@\xf9?'
tbsS'GTEX-1128S'
p166
g3
(g4
(I0
tS'b'
tRp167
(I1
(I1
I1
tg7
I00
S'p\xcc)\xac\xd3%\xfb\xbf'
tbsS'GTEX-WHSE'
p168
g3
(g4
(I0
tS'b'
tRp169
(I1
(I1
I1
tg7
I00
S'\x02\xe2L\xd8\x8c\xc2\xdc?'
tbsS'GTEX-WHSB'
p170
g3
(g4
(I0
tS'b'
tRp171
(I1
(I1
I1
tg7
I00
S'\xde";\x10\x12\x93\x11@'
tbsS'GTEX-133LE'
p172
g3
(g4
(I0
tS'b'
tRp173
(I1
(I1
I1
tg7
I00
S'\xacir\n\x92\x80\xff?'
tbsS'GTEX-NL4W'
p174
g3
(g4
(I0
tS'b'
tRp175
(I1
(I1
I1
tg7
I00
S'\x1dE)Zo\xd0\xeb?'
tbsS'GTEX-SUCS'
p176
g3
(g4
(I0
tS'b'
tRp177
(I1
(I1
I1
tg7
I00
S'w6Tv\xa7m\xfb\xbf'
tbsS'GTEX-13QIC'
p178
g3
(g4
(I0
tS'b'
tRp179
(I1
(I1
I1
tg7
I00
S'\x93\xd2\xd4;\xdc`\xe4?'
tbsS'GTEX-ZYY3'
p180
g3
(g4
(I0
tS'b'
tRp181
(I1
(I1
I1
tg7
I00
S'\xf9D\xcf\x15\xf2v\xfa\xbf'
tbsS'GTEX-WYBS'
p182
g3
(g4
(I0
tS'b'
tRp183
(I1
(I1
I1
tg7
I00
S'_\xc5\xad\x8f\xc6v\xfa\xbf'
tbsS'GTEX-Y3I4'
p184
g3
(g4
(I0
tS'b'
tRp185
(I1
(I1
I1
tg7
I00
S'9\x9e\xc6\xe7\x10=\xe9?'
tbsS'GTEX-13O21'
p186
g3
(g4
(I0
tS'b'
tRp187
(I1
(I1
I1
tg7
I00
S'\x9cB\xefq0G\x05\xc0'
tbsS'GTEX-PVOW'
p188
g3
(g4
(I0
tS'b'
tRp189
(I1
(I1
I1
tg7
I00
S'\xa3\xe5E\xc6\xf2\xe2\xbf?'
tbsS'GTEX-13QBU'
p190
g3
(g4
(I0
tS'b'
tRp191
(I1
(I1
I1
tg7
I00
S'3\xdfalw\xd8\xe1\xbf'
tbsS'GTEX-QEL4'
p192
g3
(g4
(I0
tS'b'
tRp193
(I1
(I1
I1
tg7
I00
S'\xa6"rYY\x12\xf6\xbf'
tbsS'GTEX-X585'
p194
g3
(g4
(I0
tS'b'
tRp195
(I1
(I1
I1
tg7
I00
S'$\n\xd7\x88\xc0\x04\xe7?'
tbsS'GTEX-11VI4'
p196
g3
(g4
(I0
tS'b'
tRp197
(I1
(I1
I1
tg7
I00
S'Y\x03\xb1n\xb0\xcc\x01@'
tbsS'GTEX-NL3G'
p198
g3
(g4
(I0
tS'b'
tRp199
(I1
(I1
I1
tg7
I00
S'E\x7fm\xd4\xc0\xab\x1e\xc0'
tbsS'GTEX-NL3H'
p200
g3
(g4
(I0
tS'b'
tRp201
(I1
(I1
I1
tg7
I00
S'\x10b\x05\x8c\xb4\xd4\x19\xc0'
tbsS'GTEX-139TT'
p202
g3
(g4
(I0
tS'b'
tRp203
(I1
(I1
I1
tg7
I00
S'\x80p\x84AF\xc1\xef\xbf'
tbsS'GTEX-XUYS'
p204
g3
(g4
(I0
tS'b'
tRp205
(I1
(I1
I1
tg7
I00
S'\x03\xdb)x\xb7B\x05@'
tbsS'GTEX-P4QT'
p206
g3
(g4
(I0
tS'b'
tRp207
(I1
(I1
I1
tg7
I00
S'\xaa\x1arp\xe5R\x0b\xc0'
tbsS'GTEX-WYVS'
p208
g3
(g4
(I0
tS'b'
tRp209
(I1
(I1
I1
tg7
I00
S'\xb7&E1>]\xe4\xbf'
tbsS'GTEX-ZVZP'
p210
g3
(g4
(I0
tS'b'
tRp211
(I1
(I1
I1
tg7
I00
S'%yte\xa6\x89\x10\xc0'
tbsS'GTEX-ZVZQ'
p212
g3
(g4
(I0
tS'b'
tRp213
(I1
(I1
I1
tg7
I00
S'\\\xd1ie\xe7\xc9\xf6\xbf'
tbsS'GTEX-P4QS'
p214
g3
(g4
(I0
tS'b'
tRp215
(I1
(I1
I1
tg7
I00
S'6\x92s\r\xd5M\xef\xbf'
tbsS'GTEX-P4QR'
p216
g3
(g4
(I0
tS'b'
tRp217
(I1
(I1
I1
tg7
I00
S'oC\xe8\x99#\x14\x00@'
tbsS'GTEX-ZVZO'
p218
g3
(g4
(I0
tS'b'
tRp219
(I1
(I1
I1
tg7
I00
S'\xd2\xe4\x13\xb3g\xab\x12\xc0'
tbsS'GTEX-13SLX'
p220
g3
(g4
(I0
tS'b'
tRp221
(I1
(I1
I1
tg7
I00
S'[\xf2\xd66PO\x06\xc0'
tbsS'GTEX-13FXS'
p222
g3
(g4
(I0
tS'b'
tRp223
(I1
(I1
I1
tg7
I00
S'\x13\xa9\x83\x81(\xe1\x0b\xc0'
tbsS'GTEX-X3Y1'
p224
g3
(g4
(I0
tS'b'
tRp225
(I1
(I1
I1
tg7
I00
S'\x00DI\xe0\x10\xb3\xf4\xbf'
tbsS'GTEX-SE5C'
p226
g3
(g4
(I0
tS'b'
tRp227
(I1
(I1
I1
tg7
I00
S'\x8b\xe4n<\xc2\xe9\x13@'
tbsS'GTEX-OHPK'
p228
g3
(g4
(I0
tS'b'
tRp229
(I1
(I1
I1
tg7
I00
S'\xe4\xe7?\xa8\xc7\xe0\x02@'
tbsS'GTEX-Y3IK'
p230
g3
(g4
(I0
tS'b'
tRp231
(I1
(I1
I1
tg7
I00
S'\x8a\xcc\x11Idy\xec\xbf'
tbsS'GTEX-ZF2S'
p232
g3
(g4
(I0
tS'b'
tRp233
(I1
(I1
I1
tg7
I00
S'W\xa7g\xcb\x97@\xfb?'
tbsS'GTEX-111YS'
p234
g3
(g4
(I0
tS'b'
tRp235
(I1
(I1
I1
tg7
I00
S'\xc7\x84N\xa1g\x83m\xbf'
tbsS'GTEX-139UW'
p236
g3
(g4
(I0
tS'b'
tRp237
(I1
(I1
I1
tg7
I00
S']\xc5l\xa2Q\xc9\xd7?'
tbsS'GTEX-U3ZG'
p238
g3
(g4
(I0
tS'b'
tRp239
(I1
(I1
I1
tg7
I00
S'\xd9\x8a|\x98\xfan\x14\xc0'
tbsS'GTEX-U3ZM'
p240
g3
(g4
(I0
tS'b'
tRp241
(I1
(I1
I1
tg7
I00
S'\x80\xb12!|}\xf1\xbf'
tbsS'GTEX-U3ZN'
p242
g3
(g4
(I0
tS'b'
tRp243
(I1
(I1
I1
tg7
I00
S'\xf6\xe1(\xd5\xed\x11\xdc?'
tbsS'GTEX-ZV6S'
p244
g3
(g4
(I0
tS'b'
tRp245
(I1
(I1
I1
tg7
I00
S'\x99\xd2\x01k\xda\xf2\xff?'
tbsS'GTEX-U3ZH'
p246
g3
(g4
(I0
tS'b'
tRp247
(I1
(I1
I1
tg7
I00
S'^xC\xfc\xabk\xb2?'
tbsS'GTEX-RTLS'
p248
g3
(g4
(I0
tS'b'
tRp249
(I1
(I1
I1
tg7
I00
S'@\x87\x08N\x14h\xbb\xbf'
tbsS'GTEX-PWCY'
p250
g3
(g4
(I0
tS'b'
tRp251
(I1
(I1
I1
tg7
I00
S'\xf9\xacm]\x85\xdc\x06\xc0'
tbsS'GTEX-P44H'
p252
g3
(g4
(I0
tS'b'
tRp253
(I1
(I1
I1
tg7
I00
S'un\xd3Q:\x82\r\xc0'
tbsS'GTEX-11WQK'
p254
g3
(g4
(I0
tS'b'
tRp255
(I1
(I1
I1
tg7
I00
S'J\x15H\xe23D\x00\xc0'
tbsS'GTEX-12696'
p256
g3
(g4
(I0
tS'b'
tRp257
(I1
(I1
I1
tg7
I00
S'\xda\xfff\rH\xa1\xc8?'
tbsS'GTEX-XUW1'
p258
g3
(g4
(I0
tS'b'
tRp259
(I1
(I1
I1
tg7
I00
S'\xd6d\x01H\xe2g\xf1\xbf'
tbsS'GTEX-13JVG'
p260
g3
(g4
(I0
tS'b'
tRp261
(I1
(I1
I1
tg7
I00
S'\x81\xefH\xdf\xa3\xdb\xf0\xbf'
tbsS'GTEX-XBEW'
p262
g3
(g4
(I0
tS'b'
tRp263
(I1
(I1
I1
tg7
I00
S'\xd1\xf9\xcd\x9f{\xdc\xc3\xbf'
tbsS'GTEX-WK11'
p264
g3
(g4
(I0
tS'b'
tRp265
(I1
(I1
I1
tg7
I00
S'q\xf1\x9d\x1dV:\x01@'
tbsS'GTEX-XBEC'
p266
g3
(g4
(I0
tS'b'
tRp267
(I1
(I1
I1
tg7
I00
S'%\x93\x94+P\xaf\xf5\xbf'
tbsS'GTEX-XBED'
p268
g3
(g4
(I0
tS'b'
tRp269
(I1
(I1
I1
tg7
I00
S'\xc0\xab\xb9+\xf8 \xfc\xbf'
tbsS'GTEX-ZDYS'
p270
g3
(g4
(I0
tS'b'
tRp271
(I1
(I1
I1
tg7
I00
S'\xbf\xea\x8e\x85\x1c\xb6\xf0\xbf'
tbsS'GTEX-X8HC'
p272
g3
(g4
(I0
tS'b'
tRp273
(I1
(I1
I1
tg7
I00
S'\x93\x80\xd9\xb2?\xe3\x01@'
tbsS'GTEX-ZF28'
p274
g3
(g4
(I0
tS'b'
tRp275
(I1
(I1
I1
tg7
I00
S'\xc5p\xb1\xcb\xeb?\x14\xc0'
tbsS'GTEX-ZF29'
p276
g3
(g4
(I0
tS'b'
tRp277
(I1
(I1
I1
tg7
I00
S'9fp}\xe5\xdd\x10\xc0'
tbsS'GTEX-ZV68'
p278
g3
(g4
(I0
tS'b'
tRp279
(I1
(I1
I1
tg7
I00
S'\xac\x89\xc0\x9c#H\x00\xc0'
tbsS'GTEX-Y8LW'
p280
g3
(g4
(I0
tS'b'
tRp281
(I1
(I1
I1
tg7
I00
S'\xa9\x02vE\xe3\x7f\x15\xc0'
tbsS'GTEX-13CIG'
p282
g3
(g4
(I0
tS'b'
tRp283
(I1
(I1
I1
tg7
I00
S'\xf8\xfa\x90\x85\x9a\x02\x1c@'
tbsS'GTEX-13O61'
p284
g3
(g4
(I0
tS'b'
tRp285
(I1
(I1
I1
tg7
I00
S'7\x8c\xfa\x17\x9c\x92\xea?'
tbsS'GTEX-12WSC'
p286
g3
(g4
(I0
tS'b'
tRp287
(I1
(I1
I1
tg7
I00
S'4-#X\x9fs\xfb?'
tbsS'GTEX-12WSA'
p288
g3
(g4
(I0
tS'b'
tRp289
(I1
(I1
I1
tg7
I00
S'PE&\x87\xf6d\x08\xc0'
tbsS'GTEX-12WSF'
p290
g3
(g4
(I0
tS'b'
tRp291
(I1
(I1
I1
tg7
I00
S'\x81C\xc9\xd3\xea\xda#@'
tbsS'GTEX-12WSG'
p292
g3
(g4
(I0
tS'b'
tRp293
(I1
(I1
I1
tg7
I00
S'B\xaa\xf3\xcc\xee<\x07@'
tbsS'GTEX-12WSD'
p294
g3
(g4
(I0
tS'b'
tRp295
(I1
(I1
I1
tg7
I00
S'\xa3\x08\x1d\x87\xd9r\xe9?'
tbsS'GTEX-12WSE'
p296
g3
(g4
(I0
tS'b'
tRp297
(I1
(I1
I1
tg7
I00
S'\xa6\xf0|\x93r\x10\xdb?'
tbsS'GTEX-12WSJ'
p298
g3
(g4
(I0
tS'b'
tRp299
(I1
(I1
I1
tg7
I00
S'\xd4\xa0&R\x85\xdc\x02\xc0'
tbsS'GTEX-12WSK'
p300
g3
(g4
(I0
tS'b'
tRp301
(I1
(I1
I1
tg7
I00
S'\xce\x12\xa5\x1c\xdbu\xf5\xbf'
tbsS'GTEX-12WSH'
p302
g3
(g4
(I0
tS'b'
tRp303
(I1
(I1
I1
tg7
I00
S'\x95\x03aNe\x8b\x04\xc0'
tbsS'GTEX-12WSI'
p304
g3
(g4
(I0
tS'b'
tRp305
(I1
(I1
I1
tg7
I00
S'\xc8=\xa2/\x04\xdc\x12\xc0'
tbsS'GTEX-12WSN'
p306
g3
(g4
(I0
tS'b'
tRp307
(I1
(I1
I1
tg7
I00
S'\xddUj\xa0\x87T\xd7?'
tbsS'GTEX-12WSL'
p308
g3
(g4
(I0
tS'b'
tRp309
(I1
(I1
I1
tg7
I00
S'q?>*\xb04\xe5\xbf'
tbsS'GTEX-12WSM'
p310
g3
(g4
(I0
tS'b'
tRp311
(I1
(I1
I1
tg7
I00
S'\xf7\xe3GFx\x9c\xec\xbf'
tbsS'GTEX-13N2G'
p312
g3
(g4
(I0
tS'b'
tRp313
(I1
(I1
I1
tg7
I00
S'\xef\xcc\r\x0b\xa8|\xe7?'
tbsS'GTEX-X15G'
p314
g3
(g4
(I0
tS'b'
tRp315
(I1
(I1
I1
tg7
I00
S'K\xcc\x0f\xe9\x99\xe8\xd2?'
tbsS'GTEX-YF7O'
p316
g3
(g4
(I0
tS'b'
tRp317
(I1
(I1
I1
tg7
I00
S'B\xa7L\xd0\xf8\xbd\xdc\xbf'
tbsS'GTEX-S4P3'
p318
g3
(g4
(I0
tS'b'
tRp319
(I1
(I1
I1
tg7
I00
S'W!\xf4\x90\x81y\r\xc0'
tbsS'GTEX-X4LF'
p320
g3
(g4
(I0
tS'b'
tRp321
(I1
(I1
I1
tg7
I00
S'\x93\xf9\x18i\xe4\xde\x00\xc0'
tbsS'GTEX-ZE7O'
p322
g3
(g4
(I0
tS'b'
tRp323
(I1
(I1
I1
tg7
I00
S'\x0e\xcf\xff\x8c\x06\xd6\xe6?'
tbsS'GTEX-ZQUD'
p324
g3
(g4
(I0
tS'b'
tRp325
(I1
(I1
I1
tg7
I00
S'\xad\x82\x06M\xf8\xeb\xc1?'
tbsS'GTEX-ZQG8'
p326
g3
(g4
(I0
tS'b'
tRp327
(I1
(I1
I1
tg7
I00
S'\xc9\xc7\xf8N\xd3$\xf9\xbf'
tbsS'GTEX-13SLW'
p328
g3
(g4
(I0
tS'b'
tRp329
(I1
(I1
I1
tg7
I00
S'\xc3)\n\x9c\xbd\xd0\xeb\xbf'
tbsS'GTEX-WFG7'
p330
g3
(g4
(I0
tS'b'
tRp331
(I1
(I1
I1
tg7
I00
S'\xbbZ\xcc\x17\xa5\x85\xd7\xbf'
tbsS'GTEX-WFG8'
p332
g3
(g4
(I0
tS'b'
tRp333
(I1
(I1
I1
tg7
I00
S'\xf0d\xea\x87@\x18\xf7\xbf'
tbsS'GTEX-RU72'
p334
g3
(g4
(I0
tS'b'
tRp335
(I1
(I1
I1
tg7
I00
S'2\xbcC~\xb0\xd9\x00@'
tbsS'GTEX-13W46'
p336
g3
(g4
(I0
tS'b'
tRp337
(I1
(I1
I1
tg7
I00
S'WN\xc1\xeeI/\x00\xc0'
tbsS'GTEX-UPJH'
p338
g3
(g4
(I0
tS'b'
tRp339
(I1
(I1
I1
tg7
I00
S'\xf0G\xa3h\xa76\xc6\xbf'
tbsS'GTEX-PW2O'
p340
g3
(g4
(I0
tS'b'
tRp341
(I1
(I1
I1
tg7
I00
S'\xa7)\xd4\xef\x9cm\t\xc0'
tbsS'GTEX-T8EM'
p342
g3
(g4
(I0
tS'b'
tRp343
(I1
(I1
I1
tg7
I00
S'\xe1\n.u\xbb\xca\x07\xc0'
tbsS'GTEX-XQ3S'
p344
g3
(g4
(I0
tS'b'
tRp345
(I1
(I1
I1
tg7
I00
S'$\x1b\xe3[\xd3.\xe6\xbf'
tbsS'GTEX-ZPCL'
p346
g3
(g4
(I0
tS'b'
tRp347
(I1
(I1
I1
tg7
I00
S'\xbb\xcbjA\xe8J\xd6\xbf'
tbsS'GTEX-11ONC'
p348
g3
(g4
(I0
tS'b'
tRp349
(I1
(I1
I1
tg7
I00
S'D\xecOA\xff\x1f\xed\xbf'
tbsS'GTEX-QV44'
p350
g3
(g4
(I0
tS'b'
tRp351
(I1
(I1
I1
tg7
I00
S'p\x12\x051V\xbd\xe7\xbf'
tbsS'GTEX-WHPG'
p352
g3
(g4
(I0
tS'b'
tRp353
(I1
(I1
I1
tg7
I00
S'\xcbK\x97e@\x07\xfb?'
tbsS'GTEX-T6MO'
p354
g3
(g4
(I0
tS'b'
tRp355
(I1
(I1
I1
tg7
I00
S"\xcbgB'\x1d:\xf3?"
tbsS'GTEX-T6MN'
p356
g3
(g4
(I0
tS'b'
tRp357
(I1
(I1
I1
tg7
I00
S':\xd2\x95\x9er\xa1\xfa\xbf'
tbsS'GTEX-XXEK'
p358
g3
(g4
(I0
tS'b'
tRp359
(I1
(I1
I1
tg7
I00
S'\xe6DL\xa0\xe0\x89\xeb?'
tbsS'GTEX-ZTTD'
p360
g3
(g4
(I0
tS'b'
tRp361
(I1
(I1
I1
tg7
I00
S'\xb6)/\xb4\x98\xc9\x00\xc0'
tbsS'GTEX-ZUA1'
p362
g3
(g4
(I0
tS'b'
tRp363
(I1
(I1
I1
tg7
I00
S'\xb5yqpmQ\xc1\xbf'
tbsS'GTEX-OXRP'
p364
g3
(g4
(I0
tS'b'
tRp365
(I1
(I1
I1
tg7
I00
S'\x8f\xf2\x1d\x16\xd6\x03\x12@'
tbsS'GTEX-13OVL'
p366
g3
(g4
(I0
tS'b'
tRp367
(I1
(I1
I1
tg7
I00
S'c\xba\x16\xc3@<\x03\xc0'
tbsS'GTEX-13OVJ'
p368
g3
(g4
(I0
tS'b'
tRp369
(I1
(I1
I1
tg7
I00
S'\xc0\xb0\xf6\xcb\xbbA\xfa?'
tbsS'GTEX-13OVH'
p370
g3
(g4
(I0
tS'b'
tRp371
(I1
(I1
I1
tg7
I00
S'\x1dm\x81\x00\xd0\xe7\xef?'
tbsS'GTEX-13OVI'
p372
g3
(g4
(I0
tS'b'
tRp373
(I1
(I1
I1
tg7
I00
S'\x1aA\xf2W\xf3\x81\x15\xc0'
tbsS'GTEX-13OVG'
p374
g3
(g4
(I0
tS'b'
tRp375
(I1
(I1
I1
tg7
I00
S'\xc2\xb9\xcc\xb8E\xca\xf3\xbf'
tbsS'GTEX-113IC'
p376
g3
(g4
(I0
tS'b'
tRp377
(I1
(I1
I1
tg7
I00
S'\\I\xa8\x89\x95\xda\x04\xc0'
tbsS'GTEX-XLM4'
p378
g3
(g4
(I0
tS'b'
tRp379
(I1
(I1
I1
tg7
I00
S'F\xf7\xbb\xe2%\xf9a?'
tbsS'GTEX-13JUV'
p380
g3
(g4
(I0
tS'b'
tRp381
(I1
(I1
I1
tg7
I00
S'\xffTe\xa63\x82\xd3?'
tbsS'GTEX-PLZ5'
p382
g3
(g4
(I0
tS'b'
tRp383
(I1
(I1
I1
tg7
I00
S'.\x82\xe6\x15\xcfW\xf3?'
tbsS'GTEX-PLZ6'
p384
g3
(g4
(I0
tS'b'
tRp385
(I1
(I1
I1
tg7
I00
S'\x0b\x05\xb0\x8e\xd6h\xb6?'
tbsS'GTEX-ZZPT'
p386
g3
(g4
(I0
tS'b'
tRp387
(I1
(I1
I1
tg7
I00
S'-c|\xe1e\xef\xfb?'
tbsS'GTEX-ZZPU'
p388
g3
(g4
(I0
tS'b'
tRp389
(I1
(I1
I1
tg7
I00
S'\xcd\xad\xf5[+!\xec\xbf'
tbsS'GTEX-ZXES'
p390
g3
(g4
(I0
tS'b'
tRp391
(I1
(I1
I1
tg7
I00
S'`\xb8\xfd\x95\x865\xa0?'
tbsS'GTEX-TSE9'
p392
g3
(g4
(I0
tS'b'
tRp393
(I1
(I1
I1
tg7
I00
S'\xc3\xa9\t\xfd\xc2\xc3\x0c@'
tbsS'GTEX-ZC5H'
p394
g3
(g4
(I0
tS'b'
tRp395
(I1
(I1
I1
tg7
I00
S'r\x0e\xd3\xdc~{\xc8?'
tbsS'GTEX-QDVN'
p396
g3
(g4
(I0
tS'b'
tRp397
(I1
(I1
I1
tg7
I00
S'\x8b\xe0\xfcT\xfcE\xed?'
tbsS'GTEX-QDVJ'
p398
g3
(g4
(I0
tS'b'
tRp399
(I1
(I1
I1
tg7
I00
S'\xc9\xdf\xcf\xf0q\xf6\xed?'
tbsS'GTEX-P4PP'
p400
g3
(g4
(I0
tS'b'
tRp401
(I1
(I1
I1
tg7
I00
S'\x8a\xab\xe9\x94\xefp\x05@'
tbsS'GTEX-P4PQ'
p402
g3
(g4
(I0
tS'b'
tRp403
(I1
(I1
I1
tg7
I00
S'e,\x8c\xa7\xbd\x05\xdf\xbf'
tbsS'GTEX-S4UY'
p404
g3
(g4
(I0
tS'b'
tRp405
(I1
(I1
I1
tg7
I00
S'\xce\xd0\x94\xa2\xae\xb9\xf8?'
tbsS'GTEX-S341'
p406
g3
(g4
(I0
tS'b'
tRp407
(I1
(I1
I1
tg7
I00
S'\xa7k\xb1\x9a6~\x02\xc0'
tbsS'GTEX-11UD1'
p408
g3
(g4
(I0
tS'b'
tRp409
(I1
(I1
I1
tg7
I00
S'\xe1\xa1O)4\x90\x10@'
tbsS'GTEX-13FHO'
p410
g3
(g4
(I0
tS'b'
tRp411
(I1
(I1
I1
tg7
I00
S'\xed\xe8\x90T\t"\x14\xc0'
tbsS'GTEX-13O3O'
p412
g3
(g4
(I0
tS'b'
tRp413
(I1
(I1
I1
tg7
I00
S'\x1d\x0c?\xc2\xd5\x9d\x04\xc0'
tbsS'GTEX-13O3Q'
p414
g3
(g4
(I0
tS'b'
tRp415
(I1
(I1
I1
tg7
I00
S'\xbd\xedr\xe6c\xa9\xed?'
tbsS'GTEX-13O3P'
p416
g3
(g4
(I0
tS'b'
tRp417
(I1
(I1
I1
tg7
I00
S'=e\x9d*\xb1\x80\x07\xc0'
tbsS'GTEX-ZYWO'
p418
g3
(g4
(I0
tS'b'
tRp419
(I1
(I1
I1
tg7
I00
S'\xc8\xa7\x0c\xff\xafY\xbd\xbf'
tbsS'GTEX-X638'
p420
g3
(g4
(I0
tS'b'
tRp421
(I1
(I1
I1
tg7
I00
S'\xfe\r\x85\x06F~\xf4\xbf'
tbsS'GTEX-13111'
p422
g3
(g4
(I0
tS'b'
tRp423
(I1
(I1
I1
tg7
I00
S'8\xdc|2\xf5\xc5\x03\xc0'
tbsS'GTEX-13113'
p424
g3
(g4
(I0
tS'b'
tRp425
(I1
(I1
I1
tg7
I00
S'lE\xd1\xe0\xe2^\xd9\xbf'
tbsS'GTEX-13112'
p426
g3
(g4
(I0
tS'b'
tRp427
(I1
(I1
I1
tg7
I00
S'\x95\xccU\xac\xfaL\x04@'
tbsS'GTEX-POMQ'
p428
g3
(g4
(I0
tS'b'
tRp429
(I1
(I1
I1
tg7
I00
S'\xd9\xfe\xc8}\x05\xeb\n@'
tbsS'GTEX-PWOO'
p430
g3
(g4
(I0
tS'b'
tRp431
(I1
(I1
I1
tg7
I00
S'\xef\x96\xaeG\xeb\x91\xf9\xbf'
tbsS'GTEX-ZT9W'
p432
g3
(g4
(I0
tS'b'
tRp433
(I1
(I1
I1
tg7
I00
S'\x04\xd97\x89\xae\xab\n@'
tbsS'GTEX-ZT9X'
p434
g3
(g4
(I0
tS'b'
tRp435
(I1
(I1
I1
tg7
I00
S't)\xf9+\x02\xc3\x02@'
tbsS'GTEX-RNOR'
p436
g3
(g4
(I0
tS'b'
tRp437
(I1
(I1
I1
tg7
I00
S'\xb76\x05\rr\xed\xee?'
tbsS'GTEX-REY6'
p438
g3
(g4
(I0
tS'b'
tRp439
(I1
(I1
I1
tg7
I00
S'?7K\xb53\x99\x08\xc0'
tbsS'GTEX-111CU'
p440
g3
(g4
(I0
tS'b'
tRp441
(I1
(I1
I1
tg7
I00
S'\x84V\xcad)G\xfe?'
tbsS'GTEX-XGQ4'
p442
g3
(g4
(I0
tS'b'
tRp443
(I1
(I1
I1
tg7
I00
S'\xc8\xd0r\xcbS\x83\xdf\xbf'
tbsS'GTEX-WFJO'
p444
g3
(g4
(I0
tS'b'
tRp445
(I1
(I1
I1
tg7
I00
S'r3\x11\xb3\xff.\x11\xc0'
tbsS'GTEX-VUSH'
p446
g3
(g4
(I0
tS'b'
tRp447
(I1
(I1
I1
tg7
I00
S'\n\x02\x11i\x07\xce\x08\xc0'
tbsS'GTEX-XPT6'
p448
g3
(g4
(I0
tS'b'
tRp449
(I1
(I1
I1
tg7
I00
S'\xa7\xef(\xd2M\xe4\x01\xc0'
tbsS'GTEX-VUSG'
p450
g3
(g4
(I0
tS'b'
tRp451
(I1
(I1
I1
tg7
I00
S'N\xb6\xfc\xf9\x95\xe2\xf9?'
tbsS'GTEX-TKQ2'
p452
g3
(g4
(I0
tS'b'
tRp453
(I1
(I1
I1
tg7
I00
S'MW\xc2y\x03\xe0\xa0?'
tbsS'GTEX-11NV4'
p454
g3
(g4
(I0
tS'b'
tRp455
(I1
(I1
I1
tg7
I00
S'\xc9\xf4%\x1a\x03\xfc\xe8?'
tbsS'GTEX-Y8DK'
p456
g3
(g4
(I0
tS'b'
tRp457
(I1
(I1
I1
tg7
I00
S'\x8am\xe1ec\x0c\xf9?'
tbsS'GTEX-ZLFU'
p458
g3
(g4
(I0
tS'b'
tRp459
(I1
(I1
I1
tg7
I00
S'\x1er\x10\xe2\x97\xa5\x01@'
tbsS'GTEX-139YR'
p460
g3
(g4
(I0
tS'b'
tRp461
(I1
(I1
I1
tg7
I00
S'\x94\xed\x1f\xe0\xb7\xe2\xb8?'
tbsS'GTEX-YECK'
p462
g3
(g4
(I0
tS'b'
tRp463
(I1
(I1
I1
tg7
I00
S'\xae]\x98"\x03\xea\xef\xbf'
tbsS'GTEX-13G51'
p464
g3
(g4
(I0
tS'b'
tRp465
(I1
(I1
I1
tg7
I00
S'\xe6_\xeb\xcd\xa4.\xc2?'
tbsS'GTEX-ZLV1'
p466
g3
(g4
(I0
tS'b'
tRp467
(I1
(I1
I1
tg7
I00
S'\x00\xc9\x98\xd3\x1c>\x88?'
tbsS'GTEX-13QJ3'
p468
g3
(g4
(I0
tS'b'
tRp469
(I1
(I1
I1
tg7
I00
S'\x04\xe6\xa2\xa3\xae\x8d\x05\xc0'
tbsS'GTEX-T2IS'
p470
g3
(g4
(I0
tS'b'
tRp471
(I1
(I1
I1
tg7
I00
S'\x97\xf6\x15s9\xfd\xee\xbf'
tbsS'GTEX-ZDXO'
p472
g3
(g4
(I0
tS'b'
tRp473
(I1
(I1
I1
tg7
I00
S'\xe5&\xc3\xadg|\xfe?'
tbsS'GTEX-WY7C'
p474
g3
(g4
(I0
tS'b'
tRp475
(I1
(I1
I1
tg7
I00
S'=\xe3\x04%\x0c:\x00\xc0'
tbsS'GTEX-PLZ4'
p476
g3
(g4
(I0
tS'b'
tRp477
(I1
(I1
I1
tg7
I00
S'6\xc2e\x83\x94\x7f\xf5\xbf'
tbsS'GTEX-13QJC'
p478
g3
(g4
(I0
tS'b'
tRp479
(I1
(I1
I1
tg7
I00
S'\xd7\x1a\xc0\xfb\x9b\xd8\xe7?'
tbsS'GTEX-11WQC'
p480
g3
(g4
(I0
tS'b'
tRp481
(I1
(I1
I1
tg7
I00
S'\x8c\xe8\xf7\xbb\xec\xb8\xdc\xbf'
tbsS'GTEX-YEC4'
p482
g3
(g4
(I0
tS'b'
tRp483
(I1
(I1
I1
tg7
I00
S'3\x9fX\x12\xe1\xa2\xf5?'
tbsS'GTEX-ZTPG'
p484
g3
(g4
(I0
tS'b'
tRp485
(I1
(I1
I1
tg7
I00
S'\xe8\x9cZ\xbeQ\x0c\x0f@'
tbsS'GTEX-YEC3'
p486
g3
(g4
(I0
tS'b'
tRp487
(I1
(I1
I1
tg7
I00
S'\xb3\xd4\x16\xea\xd2+\xe8?'
tbsS'GTEX-T5JW'
p488
g3
(g4
(I0
tS'b'
tRp489
(I1
(I1
I1
tg7
I00
S'K\x1a|\xe0[\xb4\xf1\xbf'
tbsS'GTEX-R53T'
p490
g3
(g4
(I0
tS'b'
tRp491
(I1
(I1
I1
tg7
I00
S'\xb3\xc5mtF!\xeb?'
tbsS'GTEX-WQUQ'
p492
g3
(g4
(I0
tS'b'
tRp493
(I1
(I1
I1
tg7
I00
S"\x96\xe4x\x1c\x85'\xe0\xbf"
tbsS'GTEX-111VG'
p494
g3
(g4
(I0
tS'b'
tRp495
(I1
(I1
I1
tg7
I00
S'\xa0O\x08AMv\x0b\xc0'
tbsS'GTEX-NFK9'
p496
g3
(g4
(I0
tS'b'
tRp497
(I1
(I1
I1
tg7
I00
S':E\xf7\x17j0\xf9\xbf'
tbsS'GTEX-T5JC'
p498
g3
(g4
(I0
tS'b'
tRp499
(I1
(I1
I1
tg7
I00
S'\x9f1n\x89\xcc\xad\xf2\xbf'
tbsS'GTEX-RVPV'
p500
g3
(g4
(I0
tS'b'
tRp501
(I1
(I1
I1
tg7
I00
S'\xbe\xe2dJ\x84A\xff?'
tbsS'GTEX-RVPU'
p502
g3
(g4
(I0
tS'b'
tRp503
(I1
(I1
I1
tg7
I00
S'z\xa1\xa2\xbc\xda\xc2\xef\xbf'
tbsS'GTEX-UTHO'
p504
g3
(g4
(I0
tS'b'
tRp505
(I1
(I1
I1
tg7
I00
S'b\x8c\xc9\xf0\xc0\xfc\x03\xc0'
tbsS'GTEX-11LCK'
p506
g3
(g4
(I0
tS'b'
tRp507
(I1
(I1
I1
tg7
I00
S'\x8eA\x10\xec\x86\xa6\xe2?'
tbsS'GTEX-X88G'
p508
g3
(g4
(I0
tS'b'
tRp509
(I1
(I1
I1
tg7
I00
S'9f\x06\xc8$F\xc6?'
tbsS'GTEX-QLQW'
p510
g3
(g4
(I0
tS'b'
tRp511
(I1
(I1
I1
tg7
I00
S'.CsH\x06\xae\n@'
tbsS'GTEX-13PL7'
p512
g3
(g4
(I0
tS'b'
tRp513
(I1
(I1
I1
tg7
I00
S'\x7f\xbcps\xad\xbb\x03@'
tbsS'GTEX-13PL6'
p514
g3
(g4
(I0
tS'b'
tRp515
(I1
(I1
I1
tg7
I00
S'\xd2\xbc\xab\xa3\xad\xf4\x0e@'
tbsS'GTEX-11ZUS'
p516
g3
(g4
(I0
tS'b'
tRp517
(I1
(I1
I1
tg7
I00
S'%\xa8\x07\x04\xf2R\xd9?'
tbsS'GTEX-WFON'
p518
g3
(g4
(I0
tS'b'
tRp519
(I1
(I1
I1
tg7
I00
S'\x06\xb8r\x80\xf2\xba\xe1\xbf'
tbsS'GTEX-QVUS'
p520
g3
(g4
(I0
tS'b'
tRp521
(I1
(I1
I1
tg7
I00
S'Z\xacs\xa6\x7f\x9b\x00@'
tbsS'GTEX-U8T8'
p522
g3
(g4
(I0
tS'b'
tRp523
(I1
(I1
I1
tg7
I00
S'2S62\xa2>\xfe?'
tbsS'GTEX-YFCO'
p524
g3
(g4
(I0
tS'b'
tRp525
(I1
(I1
I1
tg7
I00
S';c\xb6\x0f\xbe3\xea?'
tbsS'GTEX-P78B'
p526
g3
(g4
(I0
tS'b'
tRp527
(I1
(I1
I1
tg7
I00
S'\xdd\xe0\xcf\x19\xa5/\xed?'
tbsS'GTEX-YFC4'
p528
g3
(g4
(I0
tS'b'
tRp529
(I1
(I1
I1
tg7
I00
S'0\x9b:\x03;#\x00\xc0'
tbsS'GTEX-11ZTT'
p530
g3
(g4
(I0
tS'b'
tRp531
(I1
(I1
I1
tg7
I00
S'3\xc9\x19?\xb6\x84\xd4?'
tbsS'GTEX-11ZTS'
p532
g3
(g4
(I0
tS'b'
tRp533
(I1
(I1
I1
tg7
I00
S'\x7f9\x91%\xab\xe4\t\xc0'
tbsS'GTEX-13PLJ'
p534
g3
(g4
(I0
tS'b'
tRp535
(I1
(I1
I1
tg7
I00
S'\xd6\xc5\x03\x97\xf2\x1b\xfd?'
tbsS'GTEX-OOBJ'
p536
g3
(g4
(I0
tS'b'
tRp537
(I1
(I1
I1
tg7
I00
S'.\xb2bCa\xbb\x92?'
tbsS'GTEX-XOT4'
p538
g3
(g4
(I0
tS'b'
tRp539
(I1
(I1
I1
tg7
I00
S'\xd4\xea_LT\xba\xdb\xbf'
tbsS'GTEX-S4Q7'
p540
g3
(g4
(I0
tS'b'
tRp541
(I1
(I1
I1
tg7
I00
S'\x83\xe0\x94\xab\x99f\xae\xbf'
tbsS'GTEX-13FLW'
p542
g3
(g4
(I0
tS'b'
tRp543
(I1
(I1
I1
tg7
I00
S'[@\xfbt\xb4F\x12\xc0'
tbsS'GTEX-13FLV'
p544
g3
(g4
(I0
tS'b'
tRp545
(I1
(I1
I1
tg7
I00
S'\xca;@c\x0e6\xef\xbf'
tbsS'GTEX-QLQ7'
p546
g3
(g4
(I0
tS'b'
tRp547
(I1
(I1
I1
tg7
I00
S'\n\x82r\xc7M\x1d\xec?'
tbsS'GTEX-RN64'
p548
g3
(g4
(I0
tS'b'
tRp549
(I1
(I1
I1
tg7
I00
S'\x8f\xa9zC\xbeG\xfc\xbf'
tbsS'GTEX-ZYT6'
p550
g3
(g4
(I0
tS'b'
tRp551
(I1
(I1
I1
tg7
I00
S'\xbbh\x9enC\x03\xe5\xbf'
tbsS'GTEX-11XUK'
p552
g3
(g4
(I0
tS'b'
tRp553
(I1
(I1
I1
tg7
I00
S'\xf8\xb7\xb1C\xf9\xa2\xb8\xbf'
tbsS'GTEX-ZTSS'
p554
g3
(g4
(I0
tS'b'
tRp555
(I1
(I1
I1
tg7
I00
S'\xf7$\x8d\x9d\xfa\x0e\x07\xc0'
tbsS'GTEX-1117F'
p556
g3
(g4
(I0
tS'b'
tRp557
(I1
(I1
I1
tg7
I00
S'P&P\xe2\x92\xff\xed?'
tbsS'GTEX-113JC'
p558
g3
(g4
(I0
tS'b'
tRp559
(I1
(I1
I1
tg7
I00
S'\x14nR\xfc\xf28\xb5?'
tbsS'GTEX-Z9EW'
p560
g3
(g4
(I0
tS'b'
tRp561
(I1
(I1
I1
tg7
I00
S'\x9es`\x85\x9cV\x00\xc0'
tbsS'GTEX-ZPU1'
p562
g3
(g4
(I0
tS'b'
tRp563
(I1
(I1
I1
tg7
I00
S'\x87A\xc1\x12\xaa\xa4\xea?'
tbsS'GTEX-XUJ4'
p564
g3
(g4
(I0
tS'b'
tRp565
(I1
(I1
I1
tg7
I00
S'Qt\x84\x19bE\xed?'
tbsS'GTEX-11DZ1'
p566
g3
(g4
(I0
tS'b'
tRp567
(I1
(I1
I1
tg7
I00
S'\x0c=t~\xc4\x1a\xd8?'
tbsS'GTEX-R3RS'
p568
g3
(g4
(I0
tS'b'
tRp569
(I1
(I1
I1
tg7
I00
S'G\xc29\xbd\xc1F\x00\xc0'
tbsS'GTEX-13NZ8'
p570
g3
(g4
(I0
tS'b'
tRp571
(I1
(I1
I1
tg7
I00
S'-\xa0\x88\xc0\x8a\x97\x03@'
tbsS'GTEX-QMR6'
p572
g3
(g4
(I0
tS'b'
tRp573
(I1
(I1
I1
tg7
I00
S"\xa2\x0eu\xcb\xff'\x0f\xc0"
tbsS'GTEX-WRHU'
p574
g3
(g4
(I0
tS'b'
tRp575
(I1
(I1
I1
tg7
I00
S'\xb2/\xb1\xadx7\xee\xbf'
tbsS'GTEX-WCDI'
p576
g3
(g4
(I0
tS'b'
tRp577
(I1
(I1
I1
tg7
I00
S'\x13 G\xef\xefY\x04\xc0'
tbsS'GTEX-QMRM'
p578
g3
(g4
(I0
tS'b'
tRp579
(I1
(I1
I1
tg7
I00
S'k\x8cM,\xddx\xf5\xbf'
tbsS'GTEX-TMZS'
p580
g3
(g4
(I0
tS'b'
tRp581
(I1
(I1
I1
tg7
I00
S'l\x7f\xb5\xe5\xa3q\xf0\xbf'
tbsS'GTEX-13NZB'
p582
g3
(g4
(I0
tS'b'
tRp583
(I1
(I1
I1
tg7
I00
S'r\x80\xfa=\xce\x1a\xf3\xbf'
tbsS'GTEX-13NZA'
p584
g3
(g4
(I0
tS'b'
tRp585
(I1
(I1
I1
tg7
I00
S'}\xc2\xc8WD\xa5\xfa?'
tbsS'GTEX-12ZZX'
p586
g3
(g4
(I0
tS'b'
tRp587
(I1
(I1
I1
tg7
I00
S'\xe5,\xd9}\xde\xf6\xf4?'
tbsS'GTEX-13OW8'
p588
g3
(g4
(I0
tS'b'
tRp589
(I1
(I1
I1
tg7
I00
S"'\xa7\xbc\xa2\xdaB\xf5?"
tbsS'GTEX-13OW5'
p590
g3
(g4
(I0
tS'b'
tRp591
(I1
(I1
I1
tg7
I00
S'((%\xc7xr\x0c\xc0'
tbsS'GTEX-13OW7'
p592
g3
(g4
(I0
tS'b'
tRp593
(I1
(I1
I1
tg7
I00
S'\x97NT1\xc9\xe5\xe2?'
tbsS'GTEX-13OW6'
p594
g3
(g4
(I0
tS'b'
tRp595
(I1
(I1
I1
tg7
I00
S'\xe6\x19i\xdb?O\xff?'
tbsS'GTEX-U4B1'
p596
g3
(g4
(I0
tS'b'
tRp597
(I1
(I1
I1
tg7
I00
S'\xf4El\x98\xf9\xf9\t\xc0'
tbsS'GTEX-11P81'
p598
g3
(g4
(I0
tS'b'
tRp599
(I1
(I1
I1
tg7
I00
S'{%k\xd5~>\xd2?'
tbsS'GTEX-11P82'
p600
g3
(g4
(I0
tS'b'
tRp601
(I1
(I1
I1
tg7
I00
S'O\xa59x\xab1\x0b\xc0'
tbsS'GTEX-117YW'
p602
g3
(g4
(I0
tS'b'
tRp603
(I1
(I1
I1
tg7
I00
S'&F\x1e\xa6\xb7\x95\x00\xc0'
tbsS'GTEX-12KS4'
p604
g3
(g4
(I0
tS'b'
tRp605
(I1
(I1
I1
tg7
I00
S'\xde\xfc\x8c\x9a\xc5\xed\x04@'
tbsS'GTEX-X62O'
p606
g3
(g4
(I0
tS'b'
tRp607
(I1
(I1
I1
tg7
I00
S'\xd0\xec\x93\xfa!\xb9\xfb?'
tbsS'GTEX-13FH7'
p608
g3
(g4
(I0
tS'b'
tRp609
(I1
(I1
I1
tg7
I00
S'\xa8Ri\x07Z(\xb0\xbf'
tbsS'GTEX-ZPIC'
p610
g3
(g4
(I0
tS'b'
tRp611
(I1
(I1
I1
tg7
I00
S'2`\xf7\x81\xa5\xb7\xe6\xbf'
tbsS'GTEX-117XS'
p612
g3
(g4
(I0
tS'b'
tRp613
(I1
(I1
I1
tg7
I00
S'\x0c5\x9b\x95\x96\\\xe7\xbf'
tbsS'GTEX-OOBK'
p614
g3
(g4
(I0
tS'b'
tRp615
(I1
(I1
I1
tg7
I00
S'\xf4\xfd\xd9m>I\t\xc0'
tbsS'GTEX-12584'
p616
g3
(g4
(I0
tS'b'
tRp617
(I1
(I1
I1
tg7
I00
S'\x1b\xf6\x9b!\xc1|\xe4?'
tbsS'GTEX-12ZZZ'
p618
g3
(g4
(I0
tS'b'
tRp619
(I1
(I1
I1
tg7
I00
S'\x11\xe7\xf1\t\xb5>\xe9?'
tbsS'GTEX-Y114'
p620
g3
(g4
(I0
tS'b'
tRp621
(I1
(I1
I1
tg7
I00
S'\xb6\xcb\xda\xae\x840\xdb\xbf'
tbsS'GTEX-S33H'
p622
g3
(g4
(I0
tS'b'
tRp623
(I1
(I1
I1
tg7
I00
S'\xa3\x8eh\x04\xd0t\xd9?'
tbsS'GTEX-Y111'
p624
g3
(g4
(I0
tS'b'
tRp625
(I1
(I1
I1
tg7
I00
S'\x15G\xdaJ\xf3\xe1\x16\xc0'
tbsS'GTEX-ZYFC'
p626
g3
(g4
(I0
tS'b'
tRp627
(I1
(I1
I1
tg7
I00
S'S\xa2\xbe\xda\x1f\xa6\xf8?'
tbsS'GTEX-ZYFG'
p628
g3
(g4
(I0
tS'b'
tRp629
(I1
(I1
I1
tg7
I00
S'/*\x01\xed"F\xce?'
tbsS'GTEX-OHPN'
p630
g3
(g4
(I0
tS'b'
tRp631
(I1
(I1
I1
tg7
I00
S'\x82\x13\x90\xf1\xbe\xfc\xe6\xbf'
tbsS'GTEX-OHPM'
p632
g3
(g4
(I0
tS'b'
tRp633
(I1
(I1
I1
tg7
I00
S'\x12\xe8\xffG\xa0\x96\xf3?'
tbsS'GTEX-ZYFD'
p634
g3
(g4
(I0
tS'b'
tRp635
(I1
(I1
I1
tg7
I00
S'\xa2^\xe2&\x9e*\xfb\xbf'
tbsS'GTEX-Z93S'
p636
g3
(g4
(I0
tS'b'
tRp637
(I1
(I1
I1
tg7
I00
S'2\xf8\x08\x99\x00\xa3\xe3\xbf'
tbsS'GTEX-Z93T'
p638
g3
(g4
(I0
tS'b'
tRp639
(I1
(I1
I1
tg7
I00
S'\x90N/\x1e\xcfR\x13@'
tbsS'GTEX-UPK5'
p640
g3
(g4
(I0
tS'b'
tRp641
(I1
(I1
I1
tg7
I00
S'\xd1\x15?g\x9f#\xf3?'
tbsS'GTEX-13U4I'
p642
g3
(g4
(I0
tS'b'
tRp643
(I1
(I1
I1
tg7
I00
S'%+\x9f\xfc3\xe4\xd0?'
tbsS'GTEX-Y5LM'
p644
g3
(g4
(I0
tS'b'
tRp645
(I1
(I1
I1
tg7
I00
S'VU\x12\xf0\x14\xb2\x02@'
tbsS'GTEX-QESD'
p646
g3
(g4
(I0
tS'b'
tRp647
(I1
(I1
I1
tg7
I00
S'j\x8c\x8dB\x8c \x0e@'
tbsS'GTEX-UJHI'
p648
g3
(g4
(I0
tS'b'
tRp649
(I1
(I1
I1
tg7
I00
S'U\x96\xcd\x90\xc8s\x86\xbf'
tbsS'GTEX-S3XE'
p650
g3
(g4
(I0
tS'b'
tRp651
(I1
(I1
I1
tg7
I00
S'\xfd\xa8\x19\xc6C\x9a\x02\xc0'
tbsS'GTEX-11EQ9'
p652
g3
(g4
(I0
tS'b'
tRp653
(I1
(I1
I1
tg7
I00
S'H\xb1\xa8\xbdlG\xb0?'
tbsS'GTEX-11EQ8'
p654
g3
(g4
(I0
tS'b'
tRp655
(I1
(I1
I1
tg7
I00
S'p;\x0e\x82,\xf3\xe3\xbf'
tbsS'GTEX-RM2N'
p656
g3
(g4
(I0
tS'b'
tRp657
(I1
(I1
I1
tg7
I00
S'[\x82\xa7\x82?]\xe6\xbf'
tbsS'GTEX-13FHP'
p658
g3
(g4
(I0
tS'b'
tRp659
(I1
(I1
I1
tg7
I00
S'\xaf\x84mh\xec\x08\xfc\xbf'
tbsS'GTEX-XMD3'
p660
g3
(g4
(I0
tS'b'
tRp661
(I1
(I1
I1
tg7
I00
S'\x95\xda\x8a\x1e]g\x10@'
tbsS'GTEX-XMD2'
p662
g3
(g4
(I0
tS'b'
tRp663
(I1
(I1
I1
tg7
I00
S'\xdf\xcb\x1a&\n\xba\xf4\xbf'
tbsS'GTEX-XMD1'
p664
g3
(g4
(I0
tS'b'
tRp665
(I1
(I1
I1
tg7
I00
S'\x03\\V\xeb\x1d[\xf4?'
tbsS'GTEX-11TUW'
p666
g3
(g4
(I0
tS'b'
tRp667
(I1
(I1
I1
tg7
I00
S'\xdb\xf6\x84\xfd\xa9\xb4\x01\xc0'
tbsS'GTEX-U412'
p668
g3
(g4
(I0
tS'b'
tRp669
(I1
(I1
I1
tg7
I00
S'\xc2\xcd\x11;\xf6\xf1\xd1?'
tbsS'GTEX-1339X'
p670
g3
(g4
(I0
tS'b'
tRp671
(I1
(I1
I1
tg7
I00
S'\xba)\xe4O#\xb5\x0b@'
tbsS'GTEX-XV7Q'
p672
g3
(g4
(I0
tS'b'
tRp673
(I1
(I1
I1
tg7
I00
S'$\xd3y\xd2\xfd1\xff\xbf'
tbsS'GTEX-12126'
p674
g3
(g4
(I0
tS'b'
tRp675
(I1
(I1
I1
tg7
I00
S'\xce\xef\xd3\xe9\x1dN\xf7\xbf'
tbsS'GTEX-ZLWG'
p676
g3
(g4
(I0
tS'b'
tRp677
(I1
(I1
I1
tg7
I00
S'\x8e\xc4\x00\x7f\xae\xd5\xe4?'
tbsS'GTEX-VJYA'
p678
g3
(g4
(I0
tS'b'
tRp679
(I1
(I1
I1
tg7
I00
S't\xfe\x8e\x8c\xc9\\\x06\xc0'
tbsS'GTEX-ZTX8'
p680
g3
(g4
(I0
tS'b'
tRp681
(I1
(I1
I1
tg7
I00
S'\xde#\xd0\xcf\x89\x1d\xef?'
tbsS'GTEX-ZVT2'
p682
g3
(g4
(I0
tS'b'
tRp683
(I1
(I1
I1
tg7
I00
S'Y\xa3\xe7Jt\xb1\x03\xc0'
tbsS'GTEX-ZVT3'
p684
g3
(g4
(I0
tS'b'
tRp685
(I1
(I1
I1
tg7
I00
S'\x03f\xdc&\xf2\xb7\xf5?'
tbsS'GTEX-WXYG'
p686
g3
(g4
(I0
tS'b'
tRp687
(I1
(I1
I1
tg7
I00
S'7\xbc\x8e\xec\xfa\xb9\x05\xc0'
tbsS'GTEX-ZVT4'
p688
g3
(g4
(I0
tS'b'
tRp689
(I1
(I1
I1
tg7
I00
S'i\xe0JVu\xbb\x03\xc0'
tbsS'GTEX-TML8'
p690
g3
(g4
(I0
tS'b'
tRp691
(I1
(I1
I1
tg7
I00
S'\nn\xe4\x19\x95w\xf4\xbf'
tbsS'GTEX-13FTY'
p692
g3
(g4
(I0
tS'b'
tRp693
(I1
(I1
I1
tg7
I00
S'\x1e\xc4\xac\x8f\x12:\xf9?'
tbsS'GTEX-13FTX'
p694
g3
(g4
(I0
tS'b'
tRp695
(I1
(I1
I1
tg7
I00
S'\x01\x0e\x80\xe4\xb9\xde\xda\xbf'
tbsS'GTEX-13FTZ'
p696
g3
(g4
(I0
tS'b'
tRp697
(I1
(I1
I1
tg7
I00
S"\xd7\xf6\xe9\xa6!'\t\xc0"
tbsS'GTEX-13S86'
p698
g3
(g4
(I0
tS'b'
tRp699
(I1
(I1
I1
tg7
I00
S'!U\xfb\x81\xa8^\xe6\xbf'
tbsS'GTEX-W5X1'
p700
g3
(g4
(I0
tS'b'
tRp701
(I1
(I1
I1
tg7
I00
S'\xe5\x7f\xa4>DU\x01\xc0'
tbsS'GTEX-ZAJG'
p702
g3
(g4
(I0
tS'b'
tRp703
(I1
(I1
I1
tg7
I00
S'\x91xj\xc3\xdd\x1e\x03@'
tbsS'GTEX-SNMC'
p704
g3
(g4
(I0
tS'b'
tRp705
(I1
(I1
I1
tg7
I00
S'\xdf\xdf,\xb8\xf4u\xf5?'
tbsS'GTEX-13FTW'
p706
g3
(g4
(I0
tS'b'
tRp707
(I1
(I1
I1
tg7
I00
S'\xcf\rA\xb8y\x8d\xc1?'
tbsS'GTEX-11NUK'
p708
g3
(g4
(I0
tS'b'
tRp709
(I1
(I1
I1
tg7
I00
S'\xf7\xc9\x83\xeb\x93&\xfc?'
tbsS'GTEX-ZVTK'
p710
g3
(g4
(I0
tS'b'
tRp711
(I1
(I1
I1
tg7
I00
S'7\x9a\xe0\xf9$\xa6\xf1?'
tbsS'GTEX-ZZ64'
p712
g3
(g4
(I0
tS'b'
tRp713
(I1
(I1
I1
tg7
I00
S'\x19\xf2\xc2a\t\xdd\xf1?'
tbsS'GTEX-PWO3'
p714
g3
(g4
(I0
tS'b'
tRp715
(I1
(I1
I1
tg7
I00
S"'\xc5t\xe26\xbb\xfb\xbf"
tbsS'GTEX-13NYS'
p716
g3
(g4
(I0
tS'b'
tRp717
(I1
(I1
I1
tg7
I00
S'@\x18\x112h\xdf\xf9\xbf'
tbsS'GTEX-1212Z'
p718
g3
(g4
(I0
tS'b'
tRp719
(I1
(I1
I1
tg7
I00
S'\xda\x11\xee\xf0U\xd3\x00\xc0'
tbsS'GTEX-11I78'
p720
g3
(g4
(I0
tS'b'
tRp721
(I1
(I1
I1
tg7
I00
S'\x9d\x18\xe9&\xb7\x9b\xcc\xbf'
tbsS'GTEX-13NYB'
p722
g3
(g4
(I0
tS'b'
tRp723
(I1
(I1
I1
tg7
I00
S'{0\xe8\xeadG\xf6?'
tbsS'GTEX-13NYC'
p724
g3
(g4
(I0
tS'b'
tRp725
(I1
(I1
I1
tg7
I00
S'Qv2\x93\xc9\xf5\x01@'
tbsS'GTEX-Y9LG'
p726
g3
(g4
(I0
tS'b'
tRp727
(I1
(I1
I1
tg7
I00
S'\xc8\xc2G\x18\n\xef\xe7?'
tbsS'GTEX-X5EB'
p728
g3
(g4
(I0
tS'b'
tRp729
(I1
(I1
I1
tg7
I00
S'\x1a\x98\xf0\xba\xd9R\xe8?'
tbsS'GTEX-1399Q'
p730
g3
(g4
(I0
tS'b'
tRp731
(I1
(I1
I1
tg7
I00
S'\xc9\xcf=s\xc8\x0c\x18\xc0'
tbsS'GTEX-POYW'
p732
g3
(g4
(I0
tS'b'
tRp733
(I1
(I1
I1
tg7
I00
S'\x0fuY2\x04\x8c\xf5?'
tbsS'GTEX-1399R'
p734
g3
(g4
(I0
tS'b'
tRp735
(I1
(I1
I1
tg7
I00
S'\xe65\x184\xc6\x07\x08\xc0'
tbsS'GTEX-1399U'
p736
g3
(g4
(I0
tS'b'
tRp737
(I1
(I1
I1
tg7
I00
S'@\x17D\x9bY\xd2\xfb?'
tbsS'GTEX-1399T'
p738
g3
(g4
(I0
tS'b'
tRp739
(I1
(I1
I1
tg7
I00
S'\xc2|\x82\xb4F\xa7\xf2\xbf'
tbsS'GTEX-13X6I'
p740
g3
(g4
(I0
tS'b'
tRp741
(I1
(I1
I1
tg7
I00
S'=\x8f9{\xc9]\xf8?'
tbsS'GTEX-13X6H'
p742
g3
(g4
(I0
tS'b'
tRp743
(I1
(I1
I1
tg7
I00
S'\x8c\xc8\xe4 ,<\x02@'
tbsS'GTEX-13X6K'
p744
g3
(g4
(I0
tS'b'
tRp745
(I1
(I1
I1
tg7
I00
S"\x1a\x08\x8a'\xa7N\xe6?"
tbsS'GTEX-13X6J'
p746
g3
(g4
(I0
tS'b'
tRp747
(I1
(I1
I1
tg7
I00
S'W\xfe#n\xfb\xb1\xfd\xbf'
tbsS'GTEX-ZXG5'
p748
g3
(g4
(I0
tS'b'
tRp749
(I1
(I1
I1
tg7
I00
S'\xb4P\x7f\x15\xf1~\x08\xc0'
tbsS'GTEX-11ZU8'
p750
g3
(g4
(I0
tS'b'
tRp751
(I1
(I1
I1
tg7
I00
S']F?_\xcd\xfd\x15\xc0'
tbsS'GTEX-QVJO'
p752
g3
(g4
(I0
tS'b'
tRp753
(I1
(I1
I1
tg7
I00
S'\x82\xd7\x8f\xc5&\xec\xf2?'
tbsS'GTEX-RWS6'
p754
g3
(g4
(I0
tS'b'
tRp755
(I1
(I1
I1
tg7
I00
S'm\xf1\xb2\xbf\x81\x07\xe2?'
tbsS'GTEX-ZP4G'
p756
g3
(g4
(I0
tS'b'
tRp757
(I1
(I1
I1
tg7
I00
S'<\xa7?\x89\x94\xc0\xe5\xbf'
tbsS'GTEX-Y8E4'
p758
g3
(g4
(I0
tS'b'
tRp759
(I1
(I1
I1
tg7
I00
S'$b7\t\xbd\xe7\xf0?'
tbsS'GTEX-Y8E5'
p760
g3
(g4
(I0
tS'b'
tRp761
(I1
(I1
I1
tg7
I00
S'\x13\xef3\x8b\x1c\xb3\xfd\xbf'
tbsS'GTEX-WH7G'
p762
g3
(g4
(I0
tS'b'
tRp763
(I1
(I1
I1
tg7
I00
S'k\xe6\xbc\x8e\x0b\x98\xdf\xbf'
tbsS'GTEX-WEY5'
p764
g3
(g4
(I0
tS'b'
tRp765
(I1
(I1
I1
tg7
I00
S'\xa5\xc3]\xec\xea8\xd2?'
tbsS'GTEX-11P7K'
p766
g3
(g4
(I0
tS'b'
tRp767
(I1
(I1
I1
tg7
I00
S"8m's\x1a\\\xd5\xbf"
tbsS'GTEX-S7PM'
p768
g3
(g4
(I0
tS'b'
tRp769
(I1
(I1
I1
tg7
I00
S'\xcd\x8d&^\xe3n\x15@'
tbsS'GTEX-V1D1'
p770
g3
(g4
(I0
tS'b'
tRp771
(I1
(I1
I1
tg7
I00
S'/v\xd5Eku\xe2\xbf'
tbsS'GTEX-WRHK'
p772
g3
(g4
(I0
tS'b'
tRp773
(I1
(I1
I1
tg7
I00
S'\xab\xf8!2u(\xf9?'
tbsS'GTEX-R55C'
p774
g3
(g4
(I0
tS'b'
tRp775
(I1
(I1
I1
tg7
I00
S'\xf3\xca\x04\xdc[u\x9e?'
tbsS'GTEX-R55F'
p776
g3
(g4
(I0
tS'b'
tRp777
(I1
(I1
I1
tg7
I00
S'\x1b\x00v\xa7B\x9b\x11@'
tbsS'GTEX-R55G'
p778
g3
(g4
(I0
tS'b'
tRp779
(I1
(I1
I1
tg7
I00
S'\xe7\xb2\x14\xa6\xb1K\xc6\xbf'
tbsS'GTEX-R55D'
p780
g3
(g4
(I0
tS'b'
tRp781
(I1
(I1
I1
tg7
I00
S'\x81\xbfI\xf3\x15T\x04\xc0'
tbsS'GTEX-R55E'
p782
g3
(g4
(I0
tS'b'
tRp783
(I1
(I1
I1
tg7
I00
S'\x9e\xce\x12\x07\x84T\xbb?'
tbsS'GTEX-PSDG'
p784
g3
(g4
(I0
tS'b'
tRp785
(I1
(I1
I1
tg7
I00
S'se\xd7\x9b\x13\x9c\xf9\xbf'
tbsS'GTEX-RWSA'
p786
g3
(g4
(I0
tS'b'
tRp787
(I1
(I1
I1
tg7
I00
S'w=&\xf0\x1d\xf1\xf2?'
tbsS'GTEX-1122O'
p788
g3
(g4
(I0
tS'b'
tRp789
(I1
(I1
I1
tg7
I00
S'O\x01\x12s\xea\xbd\xff?'
tbsS'GTEX-X4EO'
p790
g3
(g4
(I0
tS'b'
tRp791
(I1
(I1
I1
tg7
I00
S'\x8d\xdb6\xdb\xa1\x16\xfa?'
tbsS'GTEX-WVLH'
p792
g3
(g4
(I0
tS'b'
tRp793
(I1
(I1
I1
tg7
I00
S'\xe5I\xcbNW\xbc\x06@'
tbsS'GTEX-13N1W'
p794
g3
(g4
(I0
tS'b'
tRp795
(I1
(I1
I1
tg7
I00
S'\xf3h{\x98\x19\xc9\xf3\xbf'
tbsS'GTEX-X4EP'
p796
g3
(g4
(I0
tS'b'
tRp797
(I1
(I1
I1
tg7
I00
S'ND\xfa\xa3?\x1c\x02\xc0'
tbsS'GTEX-YB5E'
p798
g3
(g4
(I0
tS'b'
tRp799
(I1
(I1
I1
tg7
I00
S'E\x0bQ\x07\x12D\x04@'
tbsS'GTEX-RU1J'
p800
g3
(g4
(I0
tS'b'
tRp801
(I1
(I1
I1
tg7
I00
S'#(\x1c\x9c\xc4C\xf9?'
tbsS'GTEX-11GSP'
p802
g3
(g4
(I0
tS'b'
tRp803
(I1
(I1
I1
tg7
I00
S'\x868\xb9\xc8\xa1\x83\xf8\xbf'
tbsS'GTEX-11GSO'
p804
g3
(g4
(I0
tS'b'
tRp805
(I1
(I1
I1
tg7
I00
S'\xb8\xd8\xc3\x8d\x18\xbe\xf5\xbf'
tbsS'GTEX-12ZZY'
p806
g3
(g4
(I0
tS'b'
tRp807
(I1
(I1
I1
tg7
I00
S'\xf1o\xf6K\xba\xf0\xe0\xbf'
tbsS'GTEX-11UD2'
p808
g3
(g4
(I0
tS'b'
tRp809
(I1
(I1
I1
tg7
I00
S'\xf8\x94\x9d\n\xb1:\xd6\xbf'
tbsS'GTEX-11PRG'
p810
g3
(g4
(I0
tS'b'
tRp811
(I1
(I1
I1
tg7
I00
S'\xdeRk\xd5E\x8f\xff\xbf'
tbsS'GTEX-SN8G'
p812
g3
(g4
(I0
tS'b'
tRp813
(I1
(I1
I1
tg7
I00
S'\x86\xd3\xf8\xc2\xd9\xfd\x05\xc0'
tbsS'GTEX-ZVP2'
p814
g3
(g4
(I0
tS'b'
tRp815
(I1
(I1
I1
tg7
I00
S'\x00\xbc\xf5\xd7k\xe5[?'
tbsS'GTEX-12ZZW'
p816
g3
(g4
(I0
tS'b'
tRp817
(I1
(I1
I1
tg7
I00
S'`\xda\xb1\xde\x94p\xe4?'
tbsS'GTEX-YB5K'
p818
g3
(g4
(I0
tS'b'
tRp819
(I1
(I1
I1
tg7
I00
S'\x86\x92\x0c{\xc3\x8e\x00@'
tbsS'GTEX-13W3W'
p820
g3
(g4
(I0
tS'b'
tRp821
(I1
(I1
I1
tg7
I00
S'\xc8tU\x18)\x15\xd2\xbf'
tbsS'GTEX-S4Z8'
p822
g3
(g4
(I0
tS'b'
tRp823
(I1
(I1
I1
tg7
I00
S'\xb4F%=\xd7p\xfb\xbf'
tbsS'GTEX-1211K'
p824
g3
(g4
(I0
tS'b'
tRp825
(I1
(I1
I1
tg7
I00
S'\xb1\x8d@LB\xb9\x01\xc0'
tbsS'GTEX-ZG7Y'
p826
g3
(g4
(I0
tS'b'
tRp827
(I1
(I1
I1
tg7
I00
S'n\xed\r\xa2Z\x1c\x03@'
tbsS'GTEX-ZA64'
p828
g3
(g4
(I0
tS'b'
tRp829
(I1
(I1
I1
tg7
I00
S'q\x92\xb2j+l\xe3?'
tbsS'GTEX-QCQG'
p830
g3
(g4
(I0
tS'b'
tRp831
(I1
(I1
I1
tg7
I00
S'S\x8bP\xb9\x94\xfd\xf8\xbf'
tbsS'GTEX-11DYG'
p832
g3
(g4
(I0
tS'b'
tRp833
(I1
(I1
I1
tg7
I00
S'\x8a\xff=\xca\xa2\xe6\xf5?'
tbsS'GTEX-S95S'
p834
g3
(g4
(I0
tS'b'
tRp835
(I1
(I1
I1
tg7
I00
S'?\x13\xacg\xc0\x9e\r\xc0'
tbsS'GTEX-Y5V6'
p836
g3
(g4
(I0
tS'b'
tRp837
(I1
(I1
I1
tg7
I00
S'\xfe:\\M\xb8o\xa7\xbf'
tbsS'GTEX-Y5V5'
p838
g3
(g4
(I0
tS'b'
tRp839
(I1
(I1
I1
tg7
I00
S'\x1fp\x02\xb7\x06^\xda\xbf'
tbsS'GTEX-11GS4'
p840
g3
(g4
(I0
tS'b'
tRp841
(I1
(I1
I1
tg7
I00
S'\xbf\xac\xf1\x11\x13\\\xe2\xbf'
tbsS'GTEX-QDT8'
p842
g3
(g4
(I0
tS'b'
tRp843
(I1
(I1
I1
tg7
I00
S'u\xa0\xe2\xec\xf3\x80\xf0?'
tbsS'GTEX-QXCU'
p844
g3
(g4
(I0
tS'b'
tRp845
(I1
(I1
I1
tg7
I00
S'b\x1f\xcb\xa5\xcdJ\x0e\xc0'
tbsS'GTEX-YBZK'
p846
g3
(g4
(I0
tS'b'
tRp847
(I1
(I1
I1
tg7
I00
S'\xdcH\x96\x1dX\x07\xe0\xbf'
tbsS'GTEX-SSA3'
p848
g3
(g4
(I0
tS'b'
tRp849
(I1
(I1
I1
tg7
I00
S'\xcd\xef\xcav\xf8z\x04@'
tbsS'GTEX-PX3G'
p850
g3
(g4
(I0
tS'b'
tRp851
(I1
(I1
I1
tg7
I00
S'\xee\xff1>\xbb\xc9\xf8?'
tbsS'GTEX-V955'
p852
g3
(g4
(I0
tS'b'
tRp853
(I1
(I1
I1
tg7
I00
S'\x82"\x0f\x82\x185\xe3?'
tbsS'GTEX-11TTK'
p854
g3
(g4
(I0
tS'b'
tRp855
(I1
(I1
I1
tg7
I00
S'\x1d\xd9/\xd1\xcd@\xd1\xbf'
tbsS'GTEX-ZV7C'
p856
g3
(g4
(I0
tS'b'
tRp857
(I1
(I1
I1
tg7
I00
S'\x87H\x95\x0c\xd3m\xdb?'
tbsS'GTEX-11ZVC'
p858
g3
(g4
(I0
tS'b'
tRp859
(I1
(I1
I1
tg7
I00
S'\xf0 R\xf8\xee\xc6\xe3\xbf'
tbsS'GTEX-11EI6'
p860
g3
(g4
(I0
tS'b'
tRp861
(I1
(I1
I1
tg7
I00
S'\xaa\x15#7\x8b/\xf9\xbf'
tbsS'GTEX-S7SF'
p862
g3
(g4
(I0
tS'b'
tRp863
(I1
(I1
I1
tg7
I00
S'\xf9\x81\xb9\xc4\xee\xbb\x03\xc0'
tbsS'GTEX-11TT1'
p864
g3
(g4
(I0
tS'b'
tRp865
(I1
(I1
I1
tg7
I00
S'XR\x80\x1c\xf6\xb2\xda?'
tbsS'GTEX-ZGAY'
p866
g3
(g4
(I0
tS'b'
tRp867
(I1
(I1
I1
tg7
I00
S'\xbc\xf2\xd1\xd1\xb4\xf1\xee\xbf'
tbsS'GTEX-R45C'
p868
g3
(g4
(I0
tS'b'
tRp869
(I1
(I1
I1
tg7
I00
S'8>\xacy6\x7f\xc6?'
tbsS'GTEX-XAJ8'
p870
g3
(g4
(I0
tS'b'
tRp871
(I1
(I1
I1
tg7
I00
S'\xdd\xec\xb1\x167\xe6\x00@'
tbsS'GTEX-13IVO'
p872
g3
(g4
(I0
tS'b'
tRp873
(I1
(I1
I1
tg7
I00
S'd\x0c\xed\x18\x0b\xf5\x04@'
tbsS'GTEX-RUSQ'
p874
g3
(g4
(I0
tS'b'
tRp875
(I1
(I1
I1
tg7
I00
S'\x9dt;\xb0 a\t@'
tbsS'GTEX-VJWN'
p876
g3
(g4
(I0
tS'b'
tRp877
(I1
(I1
I1
tg7
I00
S'\x8a;p\x16\x83\xd7\x03@'
tbsS'GTEX-U8XE'
p878
g3
(g4
(I0
tS'b'
tRp879
(I1
(I1
I1
tg7
I00
S'\xd4|\xfd\x93\x1f\xbd\xbb\xbf'
tbsS'GTEX-XQ8I'
p880
g3
(g4
(I0
tS'b'
tRp881
(I1
(I1
I1
tg7
I00
S'\x0f\x0e\xf7\xf9X\x82\x91?'
tbsS'GTEX-SNOS'
p882
g3
(g4
(I0
tS'b'
tRp883
(I1
(I1
I1
tg7
I00
S'k{\xa3$\xa4"\xe8?'
tbsS'GTEX-QV31'
p884
g3
(g4
(I0
tS'b'
tRp885
(I1
(I1
I1
tg7
I00
S'j\xc6\x1c\x94\xc4\xc6\xde?'
tbsS'GTEX-S7SE'
p886
g3
(g4
(I0
tS'b'
tRp887
(I1
(I1
I1
tg7
I00
S'\x18\x08\x17\x11O\x08\xf4\xbf'
tbsS'GTEX-145MF'
p888
g3
(g4
(I0
tS'b'
tRp889
(I1
(I1
I1
tg7
I00
S'g\xf9%\xee\x05\xd7\xd8\xbf'
tbsS'GTEX-145MG'
p890
g3
(g4
(I0
tS'b'
tRp891
(I1
(I1
I1
tg7
I00
S'\x1a\x9b\xb5\x8a\xb0\x08\xe4?'
tbsS'GTEX-145MH'
p892
g3
(g4
(I0
tS'b'
tRp893
(I1
(I1
I1
tg7
I00
S'=\xc3\xb9C\x878\xd3?'
tbsS'GTEX-WYJK'
p894
g3
(g4
(I0
tS'b'
tRp895
(I1
(I1
I1
tg7
I00
S'&^v\xdd\xec\xcd\xfb\xbf'
tbsS'GTEX-145MO'
p896
g3
(g4
(I0
tS'b'
tRp897
(I1
(I1
I1
tg7
I00
S'8\xde\x8aj\x83\xd5\xee\xbf'
tbs.