(dp1
S'GTEX-YJ89'
p2
cnumpy.core.multiarray
_reconstruct
p3
(cnumpy
ndarray
p4
(I0
tS'b'
tRp5
(I1
(I1
I1
tcnumpy
dtype
p6
(S'f8'
I0
I1
tRp7
(I3
S'<'
NNNI-1
I-1
I0
tbI00
S'e\xf4\x908\xff\xb1\xf0\xbf'
tbsS'GTEX-XPVG'
p8
g3
(g4
(I0
tS'b'
tRp9
(I1
(I1
I1
tg7
I00
S'0\xb6I\x92\xb2\x87\xe2?'
tbsS'GTEX-TMMY'
p10
g3
(g4
(I0
tS'b'
tRp11
(I1
(I1
I1
tg7
I00
S'\xb0\x94\xdd^\x1fM\xdb?'
tbsS'GTEX-WWYW'
p12
g3
(g4
(I0
tS'b'
tRp13
(I1
(I1
I1
tg7
I00
S'(\x0b\x8800\x87\x14\xc0'
tbsS'GTEX-11GSO'
p14
g3
(g4
(I0
tS'b'
tRp15
(I1
(I1
I1
tg7
I00
S'\x8d\x19\x90\x9f\x91\xef\x11@'
tbsS'GTEX-111FC'
p16
g3
(g4
(I0
tS'b'
tRp17
(I1
(I1
I1
tg7
I00
S'c%Mz8\x1f\x08\xc0'
tbsS'GTEX-139T8'
p18
g3
(g4
(I0
tS'b'
tRp19
(I1
(I1
I1
tg7
I00
S'u\x83\xae\xd9x\xcc\xc6?'
tbsS'GTEX-139T6'
p20
g3
(g4
(I0
tS'b'
tRp21
(I1
(I1
I1
tg7
I00
S'?2\xe4\x8f\xf1\xb7\xe1?'
tbsS'GTEX-13O1R'
p22
g3
(g4
(I0
tS'b'
tRp23
(I1
(I1
I1
tg7
I00
S'\x1dI1\xee\x83\x1f\xf4?'
tbsS'GTEX-ZLFU'
p24
g3
(g4
(I0
tS'b'
tRp25
(I1
(I1
I1
tg7
I00
S'3\xb0\xe8\xfd\x16\xa9\xf6?'
tbsS'GTEX-ZVE1'
p26
g3
(g4
(I0
tS'b'
tRp27
(I1
(I1
I1
tg7
I00
S'iRi\xb2\x8e,\xf4?'
tbsS'GTEX-ZVE2'
p28
g3
(g4
(I0
tS'b'
tRp29
(I1
(I1
I1
tg7
I00
S'\xd6\xa0\x7fn\xac\xf4\x02@'
tbsS'GTEX-Q2AH'
p30
g3
(g4
(I0
tS'b'
tRp31
(I1
(I1
I1
tg7
I00
S'\xd9\x86\xcf>\n\xdf\x14@'
tbsS'GTEX-Q2AI'
p32
g3
(g4
(I0
tS'b'
tRp33
(I1
(I1
I1
tg7
I00
S'\xbc\xa8\xd4/L\xf2\x06@'
tbsS'GTEX-S32W'
p34
g3
(g4
(I0
tS'b'
tRp35
(I1
(I1
I1
tg7
I00
S'\xa5T\x11\xbcR\xce\xf2\xbf'
tbsS'GTEX-ZEX8'
p36
g3
(g4
(I0
tS'b'
tRp37
(I1
(I1
I1
tg7
I00
S"\x81'!\xfc\xff\xec\x12\xc0"
tbsS'GTEX-133LE'
p38
g3
(g4
(I0
tS'b'
tRp39
(I1
(I1
I1
tg7
I00
S'\x91\xfa\x99\xf6\x1a\x90\xd8?'
tbsS'GTEX-WZTO'
p40
g3
(g4
(I0
tS'b'
tRp41
(I1
(I1
I1
tg7
I00
S'\x025\x1a\xadFG\xe8?'
tbsS'GTEX-139TU'
p42
g3
(g4
(I0
tS'b'
tRp43
(I1
(I1
I1
tg7
I00
S'\x07\xa2t\xd5\x98\xd6\x10\xc0'
tbsS'GTEX-139TS'
p44
g3
(g4
(I0
tS'b'
tRp45
(I1
(I1
I1
tg7
I00
S'\xae\x13\xd1\x01\xb0\xdf\xf1?'
tbsS'GTEX-ZF3C'
p46
g3
(g4
(I0
tS'b'
tRp47
(I1
(I1
I1
tg7
I00
S'\t1SeO\xd5\xf2\xbf'
tbsS'GTEX-XMK1'
p48
g3
(g4
(I0
tS'b'
tRp49
(I1
(I1
I1
tg7
I00
S'=W\xfeX\x84\x85\xfa\xbf'
tbsS'GTEX-WHWD'
p50
g3
(g4
(I0
tS'b'
tRp51
(I1
(I1
I1
tg7
I00
S'\xb6E\xb7Tk\t\x06\xc0'
tbsS'GTEX-1192W'
p52
g3
(g4
(I0
tS'b'
tRp53
(I1
(I1
I1
tg7
I00
S'c\x93\xd3P\x86S\x04\xc0'
tbsS'GTEX-X4XX'
p54
g3
(g4
(I0
tS'b'
tRp55
(I1
(I1
I1
tg7
I00
S'/Z:MM<\x10\xc0'
tbsS'GTEX-X4XY'
p56
g3
(g4
(I0
tS'b'
tRp57
(I1
(I1
I1
tg7
I00
S'#\x17\xcer\x9f^\xd3\xbf'
tbsS'GTEX-13CZV'
p58
g3
(g4
(I0
tS'b'
tRp59
(I1
(I1
I1
tg7
I00
S'\x99>\xeb\xe7\xcb+\x19\xc0'
tbsS'GTEX-1192X'
p60
g3
(g4
(I0
tS'b'
tRp61
(I1
(I1
I1
tg7
I00
S'-S\xbef\xd1\xc6\xfe?'
tbsS'GTEX-T2YK'
p62
g3
(g4
(I0
tS'b'
tRp63
(I1
(I1
I1
tg7
I00
S'\x9fY\x85\xa6\xfe\x92\x15@'
tbsS'GTEX-YJ8A'
p64
g3
(g4
(I0
tS'b'
tRp65
(I1
(I1
I1
tg7
I00
S' \x99\xe5{\xa2\xf1\xff\xbf'
tbsS'GTEX-SIU8'
p66
g3
(g4
(I0
tS'b'
tRp67
(I1
(I1
I1
tg7
I00
S'$\x08\x9d&\xa1\xc5\xf4?'
tbsS'GTEX-QEG5'
p68
g3
(g4
(I0
tS'b'
tRp69
(I1
(I1
I1
tg7
I00
S'\x15\xccTh\x8a\x00\x00\xc0'
tbsS'GTEX-OXRP'
p70
g3
(g4
(I0
tS'b'
tRp71
(I1
(I1
I1
tg7
I00
S'\x94\\\x02\x9d\x11\x82\x11@'
tbsS'GTEX-SIU7'
p72
g3
(g4
(I0
tS'b'
tRp73
(I1
(I1
I1
tg7
I00
S'\x1e\xd5=\x9b\x99A\xfe?'
tbsS'GTEX-WI4N'
p74
g3
(g4
(I0
tS'b'
tRp75
(I1
(I1
I1
tg7
I00
S'TI2\x07\x15f\xe1?'
tbsS'GTEX-OXRL'
p76
g3
(g4
(I0
tS'b'
tRp77
(I1
(I1
I1
tg7
I00
S'\x0f\xfbeb\x90B\xe7\xbf'
tbsS'GTEX-OXRO'
p78
g3
(g4
(I0
tS'b'
tRp79
(I1
(I1
I1
tg7
I00
S'\xa6\xd3R=\xba\xbc\x10\xc0'
tbsS'GTEX-OXRN'
p80
g3
(g4
(I0
tS'b'
tRp81
(I1
(I1
I1
tg7
I00
S'\xb7!v\x90\x1dU\xba?'
tbsS'GTEX-OXRK'
p82
g3
(g4
(I0
tS'b'
tRp83
(I1
(I1
I1
tg7
I00
S'\x8a\xfbEV\xd1\xe5\xd3\xbf'
tbsS'GTEX-X261'
p84
g3
(g4
(I0
tS'b'
tRp85
(I1
(I1
I1
tg7
I00
S'2\x98\xc7V\xbaO\x06@'
tbsS'GTEX-UJMC'
p86
g3
(g4
(I0
tS'b'
tRp87
(I1
(I1
I1
tg7
I00
S'g]1@\xcfd\xcd\xbf'
tbsS'GTEX-SJXC'
p88
g3
(g4
(I0
tS'b'
tRp89
(I1
(I1
I1
tg7
I00
S'uC\xeep|\x90\xd0\xbf'
tbsS'GTEX-13VXU'
p90
g3
(g4
(I0
tS'b'
tRp91
(I1
(I1
I1
tg7
I00
S'\x9d\xf5*\x05\xa7&\x11@'
tbsS'GTEX-13VXT'
p92
g3
(g4
(I0
tS'b'
tRp93
(I1
(I1
I1
tg7
I00
S'\xe8\xd0(\x84\xbc\xac\x02@'
tbsS'GTEX-OIZH'
p94
g3
(g4
(I0
tS'b'
tRp95
(I1
(I1
I1
tg7
I00
S'{\xc7$\xb5\x19\x0e\x00@'
tbsS'GTEX-OIZI'
p96
g3
(g4
(I0
tS'b'
tRp97
(I1
(I1
I1
tg7
I00
S'\xd4\\`\x89!\xb0\xf8\xbf'
tbsS'GTEX-ZAB5'
p98
g3
(g4
(I0
tS'b'
tRp99
(I1
(I1
I1
tg7
I00
S'\xa7\xefJD\xb1k\xc7\xbf'
tbsS'GTEX-ZAB4'
p100
g3
(g4
(I0
tS'b'
tRp101
(I1
(I1
I1
tg7
I00
S'-+M\xd0\x89(\xfe?'
tbsS'GTEX-OHPL'
p102
g3
(g4
(I0
tS'b'
tRp103
(I1
(I1
I1
tg7
I00
S"'\x9d\xa4\xbc`\xb6\x02\xc0"
tbsS'GTEX-OIZG'
p104
g3
(g4
(I0
tS'b'
tRp105
(I1
(I1
I1
tg7
I00
S'x#\xaeO!\x01\xf2?'
tbsS'GTEX-ZY6K'
p106
g3
(g4
(I0
tS'b'
tRp107
(I1
(I1
I1
tg7
I00
S'\x9c\x94\xa8+\x17\x9d\x11\xc0'
tbsS'GTEX-11DXW'
p108
g3
(g4
(I0
tS'b'
tRp109
(I1
(I1
I1
tg7
I00
S'T\xf2\x19\xda\x03\x1f\xd7\xbf'
tbsS'GTEX-13CF2'
p110
g3
(g4
(I0
tS'b'
tRp111
(I1
(I1
I1
tg7
I00
S'S\x95X\xcf\xbb\\\x01@'
tbsS'GTEX-13CF3'
p112
g3
(g4
(I0
tS'b'
tRp113
(I1
(I1
I1
tg7
I00
S'\xc0\x08\x92\xb5.f\xfb?'
tbsS'GTEX-11DXY'
p114
g3
(g4
(I0
tS'b'
tRp115
(I1
(I1
I1
tg7
I00
S'\x99h\xdb"\xcc\x07\xf1?'
tbsS'GTEX-11DXX'
p116
g3
(g4
(I0
tS'b'
tRp117
(I1
(I1
I1
tg7
I00
S'$\xb2\xbf\xff\xe7\x1c\xff?'
tbsS'GTEX-11DXZ'
p118
g3
(g4
(I0
tS'b'
tRp119
(I1
(I1
I1
tg7
I00
S'\x08\xfc~\xc7\xcb\xaa\xb0?'
tbsS'GTEX-13S7M'
p120
g3
(g4
(I0
tS'b'
tRp121
(I1
(I1
I1
tg7
I00
S']w\xac\n\x8a\xc3\x03\xc0'
tbsS'GTEX-WOFL'
p122
g3
(g4
(I0
tS'b'
tRp123
(I1
(I1
I1
tg7
I00
S'\xb9w\xbe\xec\xd0\xe8\x0b@'
tbsS'GTEX-WOFM'
p124
g3
(g4
(I0
tS'b'
tRp125
(I1
(I1
I1
tg7
I00
S'\xd2{=4\x16\xbf\xfb\xbf'
tbsS'GTEX-XUZC'
p126
g3
(g4
(I0
tS'b'
tRp127
(I1
(I1
I1
tg7
I00
S'\x8e/\xc5\xd5\xa7W\xde?'
tbsS'GTEX-ZDTS'
p128
g3
(g4
(I0
tS'b'
tRp129
(I1
(I1
I1
tg7
I00
S'\xd5y:f.\x9f\x0b@'
tbsS'GTEX-ZDTT'
p130
g3
(g4
(I0
tS'b'
tRp131
(I1
(I1
I1
tg7
I00
S'\xd3\x10\xc8\x81\xe6K\xf8?'
tbsS'GTEX-PWN1'
p132
g3
(g4
(I0
tS'b'
tRp133
(I1
(I1
I1
tg7
I00
S'\xa1,?\x05\xa2|\x02\xc0'
tbsS'GTEX-N7MS'
p134
g3
(g4
(I0
tS'b'
tRp135
(I1
(I1
I1
tg7
I00
S'W\xe718A+\xfe?'
tbsS'GTEX-N7MT'
p136
g3
(g4
(I0
tS'b'
tRp137
(I1
(I1
I1
tg7
I00
S'\x1ak\x91?p,\x1b\xc0'
tbsS'GTEX-W5WG'
p138
g3
(g4
(I0
tS'b'
tRp139
(I1
(I1
I1
tg7
I00
S'\x8d\xba\x9b\x1d\xe9<\xe1\xbf'
tbsS'GTEX-XYKS'
p140
g3
(g4
(I0
tS'b'
tRp141
(I1
(I1
I1
tg7
I00
S'\n\xa6\xb4]?_\xf2?'
tbsS'GTEX-NPJ7'
p142
g3
(g4
(I0
tS'b'
tRp143
(I1
(I1
I1
tg7
I00
S'\x8b\x95\x17\x99\x88\xff\xfd?'
tbsS'GTEX-13RTK'
p144
g3
(g4
(I0
tS'b'
tRp145
(I1
(I1
I1
tg7
I00
S'\xa8\xb1\xd2;>>\x0c\xc0'
tbsS'GTEX-13RTJ'
p146
g3
(g4
(I0
tS'b'
tRp147
(I1
(I1
I1
tg7
I00
S'\xec\xed\xda\xc9\x917\xfa\xbf'
tbsS'GTEX-13N1W'
p148
g3
(g4
(I0
tS'b'
tRp149
(I1
(I1
I1
tg7
I00
S'\xfb\x1fm*\x91\x8a\xf8\xbf'
tbsS'GTEX-O5YW'
p150
g3
(g4
(I0
tS'b'
tRp151
(I1
(I1
I1
tg7
I00
S'\xcd\xacs\\]9\xf6\xbf'
tbsS'GTEX-O5YV'
p152
g3
(g4
(I0
tS'b'
tRp153
(I1
(I1
I1
tg7
I00
S')D\xd6>\x88T\x0b@'
tbsS'GTEX-WL46'
p154
g3
(g4
(I0
tS'b'
tRp155
(I1
(I1
I1
tg7
I00
S'tX\xab\xae\x84\x83\x16\xc0'
tbsS'GTEX-NPJ8'
p156
g3
(g4
(I0
tS'b'
tRp157
(I1
(I1
I1
tg7
I00
S'E\x99\x02\xd4J\xb7\xec\xbf'
tbsS'GTEX-Q2AG'
p158
g3
(g4
(I0
tS'b'
tRp159
(I1
(I1
I1
tg7
I00
S'E\xbf\x11\x80\x89\x90\x05\xc0'
tbsS'GTEX-11EM3'
p160
g3
(g4
(I0
tS'b'
tRp161
(I1
(I1
I1
tg7
I00
S'~\xc9\xcf\xa4\xde\xed\xfd\xbf'
tbsS'GTEX-Q734'
p162
g3
(g4
(I0
tS'b'
tRp163
(I1
(I1
I1
tg7
I00
S'\xcb\xf3jS>n\x04@'
tbsS'GTEX-11EMC'
p164
g3
(g4
(I0
tS'b'
tRp165
(I1
(I1
I1
tg7
I00
S'\xc5i\x7fy\x99\xf9\xe0\xbf'
tbsS'GTEX-13IVO'
p166
g3
(g4
(I0
tS'b'
tRp167
(I1
(I1
I1
tg7
I00
S'l\x18\xf1\x14rr\xf4?'
tbsS'GTEX-1128S'
p168
g3
(g4
(I0
tS'b'
tRp169
(I1
(I1
I1
tg7
I00
S'\x19\xc1\xe7\x80\x07\xdf\xcd\xbf'
tbsS'GTEX-WHSE'
p170
g3
(g4
(I0
tS'b'
tRp171
(I1
(I1
I1
tg7
I00
S'\x8a*\xde%\xcb%\xfe\xbf'
tbsS'GTEX-WHSB'
p172
g3
(g4
(I0
tS'b'
tRp173
(I1
(I1
I1
tg7
I00
S'@>\xad\xd0j\x1c\xf3?'
tbsS'GTEX-13D11'
p174
g3
(g4
(I0
tS'b'
tRp175
(I1
(I1
I1
tg7
I00
S'\xea\x13\xb5\\\xfdz\x00@'
tbsS'GTEX-NL4W'
p176
g3
(g4
(I0
tS'b'
tRp177
(I1
(I1
I1
tg7
I00
S'\xd1\x8a\x07T\xe0)\t@'
tbsS'GTEX-SUCS'
p178
g3
(g4
(I0
tS'b'
tRp179
(I1
(I1
I1
tg7
I00
S'\xd7\x86A\xdc\xc8\x17\x08@'
tbsS'GTEX-13QIC'
p180
g3
(g4
(I0
tS'b'
tRp181
(I1
(I1
I1
tg7
I00
S'\x930\xb6o\xac_\xe5?'
tbsS'GTEX-ZYY3'
p182
g3
(g4
(I0
tS'b'
tRp183
(I1
(I1
I1
tg7
I00
S'\xd1u\x88\x1co\xe2\xdb\xbf'
tbsS'GTEX-WYBS'
p184
g3
(g4
(I0
tS'b'
tRp185
(I1
(I1
I1
tg7
I00
S'\xe9~r\xbaM\x06\x14@'
tbsS'GTEX-Y3I4'
p186
g3
(g4
(I0
tS'b'
tRp187
(I1
(I1
I1
tg7
I00
S'\xf7SW\xd3\x83\xd7\xe0\xbf'
tbsS'GTEX-13O21'
p188
g3
(g4
(I0
tS'b'
tRp189
(I1
(I1
I1
tg7
I00
S'%]\xe1\x0c\xb5G\xf9?'
tbsS'GTEX-PVOW'
p190
g3
(g4
(I0
tS'b'
tRp191
(I1
(I1
I1
tg7
I00
S'\xe1\xdd\x86^\xc6G\xf4\xbf'
tbsS'GTEX-13QBU'
p192
g3
(g4
(I0
tS'b'
tRp193
(I1
(I1
I1
tg7
I00
S'\xe4X\x83\xb5b\xa5\xf0?'
tbsS'GTEX-111YS'
p194
g3
(g4
(I0
tS'b'
tRp195
(I1
(I1
I1
tg7
I00
S'\xfc\xfaj]\xf5-\xea?'
tbsS'GTEX-X585'
p196
g3
(g4
(I0
tS'b'
tRp197
(I1
(I1
I1
tg7
I00
S'\xb9\x16}}\xc2\xa2\x0f\xc0'
tbsS'GTEX-11VI4'
p198
g3
(g4
(I0
tS'b'
tRp199
(I1
(I1
I1
tg7
I00
S'\xd1p\xa7\xa6\xa1\x84\x05\xc0'
tbsS'GTEX-NL3G'
p200
g3
(g4
(I0
tS'b'
tRp201
(I1
(I1
I1
tg7
I00
S'\xd8E\xbc\xe8\x11+\xfc\xbf'
tbsS'GTEX-NL3H'
p202
g3
(g4
(I0
tS'b'
tRp203
(I1
(I1
I1
tg7
I00
S'8<\x91F$\x7f\x07\xc0'
tbsS'GTEX-139TT'
p204
g3
(g4
(I0
tS'b'
tRp205
(I1
(I1
I1
tg7
I00
S'H\xdcQo+\xf8\x03@'
tbsS'GTEX-XUYS'
p206
g3
(g4
(I0
tS'b'
tRp207
(I1
(I1
I1
tg7
I00
S'\xa3\xe2\xcd\x1a\xd8c\xf1?'
tbsS'GTEX-P4QT'
p208
g3
(g4
(I0
tS'b'
tRp209
(I1
(I1
I1
tg7
I00
S'\xb6\x90\x1a\xd39\x8d\x0b\xc0'
tbsS'GTEX-ZVZP'
p210
g3
(g4
(I0
tS'b'
tRp211
(I1
(I1
I1
tg7
I00
S'J \xdc\x14\xf3Y\xe1?'
tbsS'GTEX-ZVZQ'
p212
g3
(g4
(I0
tS'b'
tRp213
(I1
(I1
I1
tg7
I00
S'\xc6\xa7l\x10}\x8a\xfe\xbf'
tbsS'GTEX-P4QS'
p214
g3
(g4
(I0
tS'b'
tRp215
(I1
(I1
I1
tg7
I00
S'\xd3u\\c\x86\x02\xfb\xbf'
tbsS'GTEX-P4QR'
p216
g3
(g4
(I0
tS'b'
tRp217
(I1
(I1
I1
tg7
I00
S'\xc6\xcbp>H5\x06@'
tbsS'GTEX-13SLW'
p218
g3
(g4
(I0
tS'b'
tRp219
(I1
(I1
I1
tg7
I00
S'\xb7\x84\xb1\x9d\x88\xa1\xf3?'
tbsS'GTEX-13SLX'
p220
g3
(g4
(I0
tS'b'
tRp221
(I1
(I1
I1
tg7
I00
S'\xc8\xf8\xf6\x94\xfa\x14\x15\xc0'
tbsS'GTEX-13FXS'
p222
g3
(g4
(I0
tS'b'
tRp223
(I1
(I1
I1
tg7
I00
S"\x00\x7f\xd7'\xd4M\x03\xc0"
tbsS'GTEX-X3Y1'
p224
g3
(g4
(I0
tS'b'
tRp225
(I1
(I1
I1
tg7
I00
S'Qx\xab\xd3\xde\xc9\xed?'
tbsS'GTEX-SE5C'
p226
g3
(g4
(I0
tS'b'
tRp227
(I1
(I1
I1
tg7
I00
S'\xb2\xbb}\xce\xd6r\x0e\xc0'
tbsS'GTEX-OHPK'
p228
g3
(g4
(I0
tS'b'
tRp229
(I1
(I1
I1
tg7
I00
S'2\xed\xbc+Z\xf3\xf6\xbf'
tbsS'GTEX-11UD2'
p230
g3
(g4
(I0
tS'b'
tRp231
(I1
(I1
I1
tg7
I00
S'aI\x1b9b\xd3\xd0?'
tbsS'GTEX-ZF2S'
p232
g3
(g4
(I0
tS'b'
tRp233
(I1
(I1
I1
tg7
I00
S'\xabb\xb2\xb3\xcfY\x04@'
tbsS'GTEX-QEL4'
p234
g3
(g4
(I0
tS'b'
tRp235
(I1
(I1
I1
tg7
I00
S'R\x1d;\x93\xba\xee\x02@'
tbsS'GTEX-139UW'
p236
g3
(g4
(I0
tS'b'
tRp237
(I1
(I1
I1
tg7
I00
S'\x0fh\xcc\x84C\xb7\x0b\xc0'
tbsS'GTEX-U3ZG'
p238
g3
(g4
(I0
tS'b'
tRp239
(I1
(I1
I1
tg7
I00
S'\x00\xd9\xc7\xc7J\x11\xb9?'
tbsS'GTEX-U3ZM'
p240
g3
(g4
(I0
tS'b'
tRp241
(I1
(I1
I1
tg7
I00
S'\xe0S0\xf6`\xf2\x0c\xc0'
tbsS'GTEX-U3ZN'
p242
g3
(g4
(I0
tS'b'
tRp243
(I1
(I1
I1
tg7
I00
S'sj\x19\x8c\x99\xb1\xf6\xbf'
tbsS'GTEX-ZV6S'
p244
g3
(g4
(I0
tS'b'
tRp245
(I1
(I1
I1
tg7
I00
S'^\xb7,f\xbe7\x07@'
tbsS'GTEX-U3ZH'
p246
g3
(g4
(I0
tS'b'
tRp247
(I1
(I1
I1
tg7
I00
S'\x12\x14\x03\x1800\xef?'
tbsS'GTEX-RTLS'
p248
g3
(g4
(I0
tS'b'
tRp249
(I1
(I1
I1
tg7
I00
S'\x08~\x14z\xfb\x92\xf2?'
tbsS'GTEX-PWCY'
p250
g3
(g4
(I0
tS'b'
tRp251
(I1
(I1
I1
tg7
I00
S'\xa9\xc0\xab\xf61\xe8\x01@'
tbsS'GTEX-P44H'
p252
g3
(g4
(I0
tS'b'
tRp253
(I1
(I1
I1
tg7
I00
S'\x9c9R\xba4Q\xe1\xbf'
tbsS'GTEX-YEC3'
p254
g3
(g4
(I0
tS'b'
tRp255
(I1
(I1
I1
tg7
I00
S'\x1av\xc9\x8d\xa3"\x06@'
tbsS'GTEX-12696'
p256
g3
(g4
(I0
tS'b'
tRp257
(I1
(I1
I1
tg7
I00
S'\x16MHW\x93\xac\xfa?'
tbsS'GTEX-XUW1'
p258
g3
(g4
(I0
tS'b'
tRp259
(I1
(I1
I1
tg7
I00
S'\x88V\x8b\xddg\xb2\xfe\xbf'
tbsS'GTEX-13JVG'
p260
g3
(g4
(I0
tS'b'
tRp261
(I1
(I1
I1
tg7
I00
S'\xcezYq\xb7\x14\xff?'
tbsS'GTEX-XBEW'
p262
g3
(g4
(I0
tS'b'
tRp263
(I1
(I1
I1
tg7
I00
S'a;B;p\xda\xf2\xbf'
tbsS'GTEX-WK11'
p264
g3
(g4
(I0
tS'b'
tRp265
(I1
(I1
I1
tg7
I00
S'\xdfAvi`j\xf0?'
tbsS'GTEX-XBEC'
p266
g3
(g4
(I0
tS'b'
tRp267
(I1
(I1
I1
tg7
I00
S'eM\xaf\x80q"\x15\xc0'
tbsS'GTEX-O5YT'
p268
g3
(g4
(I0
tS'b'
tRp269
(I1
(I1
I1
tg7
I00
S's\xe7,gL7\x10@'
tbsS'GTEX-XBED'
p270
g3
(g4
(I0
tS'b'
tRp271
(I1
(I1
I1
tg7
I00
S'w\xa4I\xad\xeb\\\xf6?'
tbsS'GTEX-ZDYS'
p272
g3
(g4
(I0
tS'b'
tRp273
(I1
(I1
I1
tg7
I00
S'0\xce\xbc~\x03N\xf2?'
tbsS'GTEX-X8HC'
p274
g3
(g4
(I0
tS'b'
tRp275
(I1
(I1
I1
tg7
I00
S'+^\xb2;]\xc4\x19@'
tbsS'GTEX-ZF28'
p276
g3
(g4
(I0
tS'b'
tRp277
(I1
(I1
I1
tg7
I00
S'\xb3\r\xaf\x97\x8a\xe9\x02\xc0'
tbsS'GTEX-ZF29'
p278
g3
(g4
(I0
tS'b'
tRp279
(I1
(I1
I1
tg7
I00
S'\xacv\xe4\x04\x04\x87\x1d\xc0'
tbsS'GTEX-ZV68'
p280
g3
(g4
(I0
tS'b'
tRp281
(I1
(I1
I1
tg7
I00
S'hG,"\xb1\t\x12@'
tbsS'GTEX-Y8LW'
p282
g3
(g4
(I0
tS'b'
tRp283
(I1
(I1
I1
tg7
I00
S']2\xc0\xa1\x15\xe2\xfa?'
tbsS'GTEX-13CIG'
p284
g3
(g4
(I0
tS'b'
tRp285
(I1
(I1
I1
tg7
I00
S'Sg\xd7p\x92\x95\x17\xc0'
tbsS'GTEX-13O61'
p286
g3
(g4
(I0
tS'b'
tRp287
(I1
(I1
I1
tg7
I00
S'\xe1\xb9\xee\x8dN/\n\xc0'
tbsS'GTEX-12WSC'
p288
g3
(g4
(I0
tS'b'
tRp289
(I1
(I1
I1
tg7
I00
S' \xf2!cT_\xf5?'
tbsS'GTEX-12WSA'
p290
g3
(g4
(I0
tS'b'
tRp291
(I1
(I1
I1
tg7
I00
S'\xccg\xb1\xfc\xc3\xf3\x0e@'
tbsS'GTEX-12WSF'
p292
g3
(g4
(I0
tS'b'
tRp293
(I1
(I1
I1
tg7
I00
S'\x94\xbe\x15!\xb5)\xf4?'
tbsS'GTEX-12WSG'
p294
g3
(g4
(I0
tS'b'
tRp295
(I1
(I1
I1
tg7
I00
S'\x8eu\xbcg\xe9=\xc3?'
tbsS'GTEX-12WSD'
p296
g3
(g4
(I0
tS'b'
tRp297
(I1
(I1
I1
tg7
I00
S'\xe1\xf2hyT}\xed?'
tbsS'GTEX-12WSE'
p298
g3
(g4
(I0
tS'b'
tRp299
(I1
(I1
I1
tg7
I00
S'T\xa2\x15\x95\x0f&\x07\xc0'
tbsS'GTEX-12WSJ'
p300
g3
(g4
(I0
tS'b'
tRp301
(I1
(I1
I1
tg7
I00
S'\x84\xb11Y\xbbK\x11\xc0'
tbsS'GTEX-12WSK'
p302
g3
(g4
(I0
tS'b'
tRp303
(I1
(I1
I1
tg7
I00
S'\xf5OL\xa1^S\xda\xbf'
tbsS'GTEX-12WSH'
p304
g3
(g4
(I0
tS'b'
tRp305
(I1
(I1
I1
tg7
I00
S'\x98~\xdd_h\xc3\x04\xc0'
tbsS'GTEX-12WSI'
p306
g3
(g4
(I0
tS'b'
tRp307
(I1
(I1
I1
tg7
I00
S'\x8e\x1f\xa2u\nw\xf6?'
tbsS'GTEX-12WSN'
p308
g3
(g4
(I0
tS'b'
tRp309
(I1
(I1
I1
tg7
I00
S'(B#\xc7-J\xeb\xbf'
tbsS'GTEX-12WSL'
p310
g3
(g4
(I0
tS'b'
tRp311
(I1
(I1
I1
tg7
I00
S'\xee\xb5\xac5\x04@\xf9?'
tbsS'GTEX-12WSM'
p312
g3
(g4
(I0
tS'b'
tRp313
(I1
(I1
I1
tg7
I00
S'\xc2\xe8\x81]y+\xdd\xbf'
tbsS'GTEX-13N2G'
p314
g3
(g4
(I0
tS'b'
tRp315
(I1
(I1
I1
tg7
I00
S'\xdc\x8b\x00/N\x1b\xe0\xbf'
tbsS'GTEX-X15G'
p316
g3
(g4
(I0
tS'b'
tRp317
(I1
(I1
I1
tg7
I00
S'|\xf8<\xec\xf0\xff\x11@'
tbsS'GTEX-YF7O'
p318
g3
(g4
(I0
tS'b'
tRp319
(I1
(I1
I1
tg7
I00
S'`\x85\xd23\xbe\xcf\xc5?'
tbsS'GTEX-S4P3'
p320
g3
(g4
(I0
tS'b'
tRp321
(I1
(I1
I1
tg7
I00
S'\xb0\x93#\x15\xc9\x14\xff\xbf'
tbsS'GTEX-X4LF'
p322
g3
(g4
(I0
tS'b'
tRp323
(I1
(I1
I1
tg7
I00
S'\x80/\xe4\xe1\x0fF\xea\xbf'
tbsS'GTEX-ZE7O'
p324
g3
(g4
(I0
tS'b'
tRp325
(I1
(I1
I1
tg7
I00
S'\xf6\xc7\x8dZQ\x82\xfd\xbf'
tbsS'GTEX-11GS4'
p326
g3
(g4
(I0
tS'b'
tRp327
(I1
(I1
I1
tg7
I00
S'\x0b\xd6\x9a\xa30\xbf\x00\xc0'
tbsS'GTEX-ZQUD'
p328
g3
(g4
(I0
tS'b'
tRp329
(I1
(I1
I1
tg7
I00
S'P\xd2\xf3\xfa\t\xdb\x0e@'
tbsS'GTEX-ZQG8'
p330
g3
(g4
(I0
tS'b'
tRp331
(I1
(I1
I1
tg7
I00
S'\xeb\xed\xc8\x1e,\xcf\x00@'
tbsS'GTEX-ZVZO'
p332
g3
(g4
(I0
tS'b'
tRp333
(I1
(I1
I1
tg7
I00
S'\xcb[\xd4,\xb0\x94\x02@'
tbsS'GTEX-WFG7'
p334
g3
(g4
(I0
tS'b'
tRp335
(I1
(I1
I1
tg7
I00
S'\x14\xc0\x14\xcdW\xde\x00\xc0'
tbsS'GTEX-WFG8'
p336
g3
(g4
(I0
tS'b'
tRp337
(I1
(I1
I1
tg7
I00
S'\x0b\r4\xf4\xc7\xc4\xe3?'
tbsS'GTEX-RU72'
p338
g3
(g4
(I0
tS'b'
tRp339
(I1
(I1
I1
tg7
I00
S'b\x86P\x8dS\xe1\xf3\xbf'
tbsS'GTEX-13W46'
p340
g3
(g4
(I0
tS'b'
tRp341
(I1
(I1
I1
tg7
I00
S'\xf6\xea\x03\xbd\xe4\xea\xf7?'
tbsS'GTEX-UPJH'
p342
g3
(g4
(I0
tS'b'
tRp343
(I1
(I1
I1
tg7
I00
S'\xa3\x19L\x97m\xd3\xd6\xbf'
tbsS'GTEX-PW2O'
p344
g3
(g4
(I0
tS'b'
tRp345
(I1
(I1
I1
tg7
I00
S'K\xb2"\xb1"\x00\xd5?'
tbsS'GTEX-T8EM'
p346
g3
(g4
(I0
tS'b'
tRp347
(I1
(I1
I1
tg7
I00
S'C8X\x17.\xba\xd1?'
tbsS'GTEX-XQ3S'
p348
g3
(g4
(I0
tS'b'
tRp349
(I1
(I1
I1
tg7
I00
S'Y,?\xb9Q\x17\x1b@'
tbsS'GTEX-ZPCL'
p350
g3
(g4
(I0
tS'b'
tRp351
(I1
(I1
I1
tg7
I00
S'\x18\x9d\xa4FZ\xaf\x07@'
tbsS'GTEX-11ONC'
p352
g3
(g4
(I0
tS'b'
tRp353
(I1
(I1
I1
tg7
I00
S'\xa8d\x86\x85O\xc9\x01@'
tbsS'GTEX-QV44'
p354
g3
(g4
(I0
tS'b'
tRp355
(I1
(I1
I1
tg7
I00
S'\xc3a\xf7\x99x\xd9\x02\xc0'
tbsS'GTEX-WHPG'
p356
g3
(g4
(I0
tS'b'
tRp357
(I1
(I1
I1
tg7
I00
S'\x82\xc26\x97\xf5s\x04@'
tbsS'GTEX-T6MO'
p358
g3
(g4
(I0
tS'b'
tRp359
(I1
(I1
I1
tg7
I00
S'8b\x9co\xf1\x1e\x06\xc0'
tbsS'GTEX-T6MN'
p360
g3
(g4
(I0
tS'b'
tRp361
(I1
(I1
I1
tg7
I00
S'\xb1\x93\x0e\xc4\xc9x\xe1\xbf'
tbsS'GTEX-XXEK'
p362
g3
(g4
(I0
tS'b'
tRp363
(I1
(I1
I1
tg7
I00
S'\xe2\xa7\x1a\xad-\xac\xf7\xbf'
tbsS'GTEX-ZTTD'
p364
g3
(g4
(I0
tS'b'
tRp365
(I1
(I1
I1
tg7
I00
S'\xfd\xab\xcc\x03\xadv\xf3\xbf'
tbsS'GTEX-ZUA1'
p366
g3
(g4
(I0
tS'b'
tRp367
(I1
(I1
I1
tg7
I00
S'\xfe\x13(B\xdb\xfb\x07@'
tbsS'GTEX-QEG4'
p368
g3
(g4
(I0
tS'b'
tRp369
(I1
(I1
I1
tg7
I00
S'\xb6\x97\x1aK\xc2m\x1b@'
tbsS'GTEX-13OVL'
p370
g3
(g4
(I0
tS'b'
tRp371
(I1
(I1
I1
tg7
I00
S'm\x949V\x98\xa4\xf0?'
tbsS'GTEX-13OVJ'
p372
g3
(g4
(I0
tS'b'
tRp373
(I1
(I1
I1
tg7
I00
S'\xb7\rs\x11\xf6\xce\xd2\xbf'
tbsS'GTEX-13OVH'
p374
g3
(g4
(I0
tS'b'
tRp375
(I1
(I1
I1
tg7
I00
S'\xe4\x06W\xed\xb2\x99\xe2?'
tbsS'GTEX-13OVI'
p376
g3
(g4
(I0
tS'b'
tRp377
(I1
(I1
I1
tg7
I00
S'\xae\xc0\x10\x82\xe7\xf4\xec?'
tbsS'GTEX-13OVG'
p378
g3
(g4
(I0
tS'b'
tRp379
(I1
(I1
I1
tg7
I00
S'\x04e.\xb0\xb3s\x01@'
tbsS'GTEX-113IC'
p380
g3
(g4
(I0
tS'b'
tRp381
(I1
(I1
I1
tg7
I00
S'\t\xa2\xf6FO\xdd @'
tbsS'GTEX-XLM4'
p382
g3
(g4
(I0
tS'b'
tRp383
(I1
(I1
I1
tg7
I00
S'\xeck#J"\x08\xdb\xbf'
tbsS'GTEX-13JUV'
p384
g3
(g4
(I0
tS'b'
tRp385
(I1
(I1
I1
tg7
I00
S'9H\xd8\xe6\x86&\x00\xc0'
tbsS'GTEX-PLZ5'
p386
g3
(g4
(I0
tS'b'
tRp387
(I1
(I1
I1
tg7
I00
S'&L\xc8\xdf\xc5\xa1\xeb?'
tbsS'GTEX-PLZ6'
p388
g3
(g4
(I0
tS'b'
tRp389
(I1
(I1
I1
tg7
I00
S'C4\x8b\xc5U\xe6\x04\xc0'
tbsS'GTEX-ZZPT'
p390
g3
(g4
(I0
tS'b'
tRp391
(I1
(I1
I1
tg7
I00
S'}\x14\xbf\x944\xc0\x01\xc0'
tbsS'GTEX-ZZPU'
p392
g3
(g4
(I0
tS'b'
tRp393
(I1
(I1
I1
tg7
I00
S'=r\xf6\xd6\x82\x8e\xfa?'
tbsS'GTEX-ZXES'
p394
g3
(g4
(I0
tS'b'
tRp395
(I1
(I1
I1
tg7
I00
S'\xe9O9e\xf3\xfb\x0e\xc0'
tbsS'GTEX-TSE9'
p396
g3
(g4
(I0
tS'b'
tRp397
(I1
(I1
I1
tg7
I00
S'\xc8b\x04jya\x0c\xc0'
tbsS'GTEX-ZC5H'
p398
g3
(g4
(I0
tS'b'
tRp399
(I1
(I1
I1
tg7
I00
S'@\xb6\xff\xa5\xb9\x8d\x9b?'
tbsS'GTEX-QDVN'
p400
g3
(g4
(I0
tS'b'
tRp401
(I1
(I1
I1
tg7
I00
S'\xe0\x04\xa8\xd7\x8a\xb2\xe4\xbf'
tbsS'GTEX-QDVJ'
p402
g3
(g4
(I0
tS'b'
tRp403
(I1
(I1
I1
tg7
I00
S'<\xc1\xd3.\xfcO\t\xc0'
tbsS'GTEX-P4PP'
p404
g3
(g4
(I0
tS'b'
tRp405
(I1
(I1
I1
tg7
I00
S'\x06Y\xf9\x8a\xc3\xa4\xd6\xbf'
tbsS'GTEX-P4PQ'
p406
g3
(g4
(I0
tS'b'
tRp407
(I1
(I1
I1
tg7
I00
S'.\xedMyR{\xc7?'
tbsS'GTEX-S4UY'
p408
g3
(g4
(I0
tS'b'
tRp409
(I1
(I1
I1
tg7
I00
S'F\xeb\x83X\x92.\xd1?'
tbsS'GTEX-S341'
p410
g3
(g4
(I0
tS'b'
tRp411
(I1
(I1
I1
tg7
I00
S'\x0f\xb9\x0f7\x8a\xcb\xff\xbf'
tbsS'GTEX-11UD1'
p412
g3
(g4
(I0
tS'b'
tRp413
(I1
(I1
I1
tg7
I00
S'\x95X\x16{\xfe\x10\xf7\xbf'
tbsS'GTEX-13FHO'
p414
g3
(g4
(I0
tS'b'
tRp415
(I1
(I1
I1
tg7
I00
S'\xe6\xd0\x12^\x15\x7f\xfb\xbf'
tbsS'GTEX-13O3O'
p416
g3
(g4
(I0
tS'b'
tRp417
(I1
(I1
I1
tg7
I00
S'z\xc9\xda\x03\x8cD\xf0\xbf'
tbsS'GTEX-13O3Q'
p418
g3
(g4
(I0
tS'b'
tRp419
(I1
(I1
I1
tg7
I00
S'\x83\xeetw[\xfc\x05\xc0'
tbsS'GTEX-13O3P'
p420
g3
(g4
(I0
tS'b'
tRp421
(I1
(I1
I1
tg7
I00
S'M\xb3P\xdaX\x88\xed\xbf'
tbsS'GTEX-ZYWO'
p422
g3
(g4
(I0
tS'b'
tRp423
(I1
(I1
I1
tg7
I00
S'\x17\xa94\xdb`n\xe7\xbf'
tbsS'GTEX-X638'
p424
g3
(g4
(I0
tS'b'
tRp425
(I1
(I1
I1
tg7
I00
S'n}?\xdcZ\xf4\r\xc0'
tbsS'GTEX-13111'
p426
g3
(g4
(I0
tS'b'
tRp427
(I1
(I1
I1
tg7
I00
S'{f?\x8a\xd5\x01\xd9?'
tbsS'GTEX-13113'
p428
g3
(g4
(I0
tS'b'
tRp429
(I1
(I1
I1
tg7
I00
S'\xcfc\x93\xdd\x1eQ\xf7?'
tbsS'GTEX-13112'
p430
g3
(g4
(I0
tS'b'
tRp431
(I1
(I1
I1
tg7
I00
S"\xf8'\x16P7i\xfd?"
tbsS'GTEX-PWOO'
p432
g3
(g4
(I0
tS'b'
tRp433
(I1
(I1
I1
tg7
I00
S'; \xbe(S\xc2\x04@'
tbsS'GTEX-ZT9W'
p434
g3
(g4
(I0
tS'b'
tRp435
(I1
(I1
I1
tg7
I00
S'\t\xc9 H\x86\xfa\xf4?'
tbsS'GTEX-ZT9X'
p436
g3
(g4
(I0
tS'b'
tRp437
(I1
(I1
I1
tg7
I00
S',\x00geO\x8e\xe5?'
tbsS'GTEX-RNOR'
p438
g3
(g4
(I0
tS'b'
tRp439
(I1
(I1
I1
tg7
I00
S'\x91#2,\x94\xff\xe1?'
tbsS'GTEX-REY6'
p440
g3
(g4
(I0
tS'b'
tRp441
(I1
(I1
I1
tg7
I00
S'\xd2\xf6\xa0\x95\xe7\xfd\xf4?'
tbsS'GTEX-111CU'
p442
g3
(g4
(I0
tS'b'
tRp443
(I1
(I1
I1
tg7
I00
S"\xa0p'\xed2v\xd6?"
tbsS'GTEX-XGQ4'
p444
g3
(g4
(I0
tS'b'
tRp445
(I1
(I1
I1
tg7
I00
S'%s\xae\xba~-\xe3?'
tbsS'GTEX-WFJO'
p446
g3
(g4
(I0
tS'b'
tRp447
(I1
(I1
I1
tg7
I00
S'8/\x905\\\x1d\xd5?'
tbsS'GTEX-VUSH'
p448
g3
(g4
(I0
tS'b'
tRp449
(I1
(I1
I1
tg7
I00
S'\xe0L\xfd\xb32\x90\x1e@'
tbsS'GTEX-Y3IK'
p450
g3
(g4
(I0
tS'b'
tRp451
(I1
(I1
I1
tg7
I00
S'\x9e7\xa1\xe3{3\xf6\xbf'
tbsS'GTEX-XPT6'
p452
g3
(g4
(I0
tS'b'
tRp453
(I1
(I1
I1
tg7
I00
S'6:\xe63\xbc\xe6\xfe\xbf'
tbsS'GTEX-VUSG'
p454
g3
(g4
(I0
tS'b'
tRp455
(I1
(I1
I1
tg7
I00
S'\x8b\x85z\xad\x8d\xd9\x04@'
tbsS'GTEX-TKQ2'
p456
g3
(g4
(I0
tS'b'
tRp457
(I1
(I1
I1
tg7
I00
S'r\xd3\x8c;\xa7\xf0\xfa\xbf'
tbsS'GTEX-11NV4'
p458
g3
(g4
(I0
tS'b'
tRp459
(I1
(I1
I1
tg7
I00
S'\xb4\xc9\xc6e\x9f\xcd\xf2\xbf'
tbsS'GTEX-Y8DK'
p460
g3
(g4
(I0
tS'b'
tRp461
(I1
(I1
I1
tg7
I00
S'\xc6?^\xcaL\x85\xef\xbf'
tbsS'GTEX-TKQ1'
p462
g3
(g4
(I0
tS'b'
tRp463
(I1
(I1
I1
tg7
I00
S'\xe9\x9aJ\x95\x8b\xaa\xfb\xbf'
tbsS'GTEX-YECK'
p464
g3
(g4
(I0
tS'b'
tRp465
(I1
(I1
I1
tg7
I00
S'\x9b\xed\xe5\xd9\x830\xfd\xbf'
tbsS'GTEX-13G51'
p466
g3
(g4
(I0
tS'b'
tRp467
(I1
(I1
I1
tg7
I00
S'\x9c!\xcfz9\xd3\x06\xc0'
tbsS'GTEX-ZLV1'
p468
g3
(g4
(I0
tS'b'
tRp469
(I1
(I1
I1
tg7
I00
S'\n#8\x0e$l\xd0?'
tbsS'GTEX-13QJ3'
p470
g3
(g4
(I0
tS'b'
tRp471
(I1
(I1
I1
tg7
I00
S'GLs\x89\x1a5\xf0?'
tbsS'GTEX-T2IS'
p472
g3
(g4
(I0
tS'b'
tRp473
(I1
(I1
I1
tg7
I00
S'(!E*LP\x02@'
tbsS'GTEX-ZDXO'
p474
g3
(g4
(I0
tS'b'
tRp475
(I1
(I1
I1
tg7
I00
S'\xb8\xb0\xdd\x94\x011\t\xc0'
tbsS'GTEX-WY7C'
p476
g3
(g4
(I0
tS'b'
tRp477
(I1
(I1
I1
tg7
I00
S'\xe6H\xe0G\x1b\x97\xc4?'
tbsS'GTEX-PLZ4'
p478
g3
(g4
(I0
tS'b'
tRp479
(I1
(I1
I1
tg7
I00
S' ?_\x15%\xe7\xf5\xbf'
tbsS'GTEX-13QJC'
p480
g3
(g4
(I0
tS'b'
tRp481
(I1
(I1
I1
tg7
I00
S'\x06\x1b\x0c\x8f\x19l\xf8\xbf'
tbsS'GTEX-11WQC'
p482
g3
(g4
(I0
tS'b'
tRp483
(I1
(I1
I1
tg7
I00
S'\xcbk\xc9\xb9Dh\xb3?'
tbsS'GTEX-YEC4'
p484
g3
(g4
(I0
tS'b'
tRp485
(I1
(I1
I1
tg7
I00
S'(\xed\x12\xe6\xc7\xed\n@'
tbsS'GTEX-ZTPG'
p486
g3
(g4
(I0
tS'b'
tRp487
(I1
(I1
I1
tg7
I00
S'\xc5?\xfd\xa8m\xab\xfd?'
tbsS'GTEX-11WQK'
p488
g3
(g4
(I0
tS'b'
tRp489
(I1
(I1
I1
tg7
I00
S'6\r\x94S\xa9\xf6\x02\xc0'
tbsS'GTEX-T5JW'
p490
g3
(g4
(I0
tS'b'
tRp491
(I1
(I1
I1
tg7
I00
S'\x0c\x08\xda\xb57i\x00\xc0'
tbsS'GTEX-R53T'
p492
g3
(g4
(I0
tS'b'
tRp493
(I1
(I1
I1
tg7
I00
S'-\xf1b\x01y\xc5\xfa\xbf'
tbsS'GTEX-WQUQ'
p494
g3
(g4
(I0
tS'b'
tRp495
(I1
(I1
I1
tg7
I00
S'\xe1\xba\xbc\xa4\xdbB\x01\xc0'
tbsS'GTEX-111VG'
p496
g3
(g4
(I0
tS'b'
tRp497
(I1
(I1
I1
tg7
I00
S'\x92\xc5=\xb2+$\x00\xc0'
tbsS'GTEX-NFK9'
p498
g3
(g4
(I0
tS'b'
tRp499
(I1
(I1
I1
tg7
I00
S'\xeb_t\xac`>\xf2\xbf'
tbsS'GTEX-T5JC'
p500
g3
(g4
(I0
tS'b'
tRp501
(I1
(I1
I1
tg7
I00
S'\xfd\x96\xc3\x06jq\xdd?'
tbsS'GTEX-RVPV'
p502
g3
(g4
(I0
tS'b'
tRp503
(I1
(I1
I1
tg7
I00
S'2\x04lze\xe3\x1a@'
tbsS'GTEX-RVPU'
p504
g3
(g4
(I0
tS'b'
tRp505
(I1
(I1
I1
tg7
I00
S'w\xda\xa7\x97&\xd3\x11@'
tbsS'GTEX-UTHO'
p506
g3
(g4
(I0
tS'b'
tRp507
(I1
(I1
I1
tg7
I00
S'c\xb8\x13\xe3\x90\xf2\x05@'
tbsS'GTEX-11LCK'
p508
g3
(g4
(I0
tS'b'
tRp509
(I1
(I1
I1
tg7
I00
S'\xf4\x0c\x99\xbd\xd1\xd2\xf5\xbf'
tbsS'GTEX-X88G'
p510
g3
(g4
(I0
tS'b'
tRp511
(I1
(I1
I1
tg7
I00
S'5\xe2\xd1\xc6~\xf3\xf9?'
tbsS'GTEX-QLQW'
p512
g3
(g4
(I0
tS'b'
tRp513
(I1
(I1
I1
tg7
I00
S'\xb8\x05\xc96\xfak\x03\xc0'
tbsS'GTEX-13PL7'
p514
g3
(g4
(I0
tS'b'
tRp515
(I1
(I1
I1
tg7
I00
S'$\x80k\xbaO\t\xdd\xbf'
tbsS'GTEX-13PL6'
p516
g3
(g4
(I0
tS'b'
tRp517
(I1
(I1
I1
tg7
I00
S'Ym|T\x96\x8c\x08\xc0'
tbsS'GTEX-11ZUS'
p518
g3
(g4
(I0
tS'b'
tRp519
(I1
(I1
I1
tg7
I00
S'\x89!R\xd3\xd97\xf4\xbf'
tbsS'GTEX-WFON'
p520
g3
(g4
(I0
tS'b'
tRp521
(I1
(I1
I1
tg7
I00
S'5\xbbD\xb9\x9f/\x02\xc0'
tbsS'GTEX-QVUS'
p522
g3
(g4
(I0
tS'b'
tRp523
(I1
(I1
I1
tg7
I00
S'P\x19\x93^\xb9\x1f\xa4\xbf'
tbsS'GTEX-U8T8'
p524
g3
(g4
(I0
tS'b'
tRp525
(I1
(I1
I1
tg7
I00
S'\x14\xe4H\x7f\x11\x87\xfc?'
tbsS'GTEX-YFCO'
p526
g3
(g4
(I0
tS'b'
tRp527
(I1
(I1
I1
tg7
I00
S'\xe0\x1f\xcf\xf1\x90\x00\xed?'
tbsS'GTEX-P78B'
p528
g3
(g4
(I0
tS'b'
tRp529
(I1
(I1
I1
tg7
I00
S'\xc4\r%6\x9d]\xed?'
tbsS'GTEX-YFC4'
p530
g3
(g4
(I0
tS'b'
tRp531
(I1
(I1
I1
tg7
I00
S'\xc3z\x1a\xfa\xa6\xa7\xde?'
tbsS'GTEX-11ZTT'
p532
g3
(g4
(I0
tS'b'
tRp533
(I1
(I1
I1
tg7
I00
S'\xa7\xff\xedu\x92W\xdb\xbf'
tbsS'GTEX-11ZTS'
p534
g3
(g4
(I0
tS'b'
tRp535
(I1
(I1
I1
tg7
I00
S'r\xd4fRD\xa5{\xbf'
tbsS'GTEX-13PLJ'
p536
g3
(g4
(I0
tS'b'
tRp537
(I1
(I1
I1
tg7
I00
S'\xda\xdc\x9bb`\x9d\x00\xc0'
tbsS'GTEX-ZA64'
p538
g3
(g4
(I0
tS'b'
tRp539
(I1
(I1
I1
tg7
I00
S'52`\xealG\xcb\xbf'
tbsS'GTEX-TML8'
p540
g3
(g4
(I0
tS'b'
tRp541
(I1
(I1
I1
tg7
I00
S'>\x90\x9bh\x15\xae\xe1\xbf'
tbsS'GTEX-OOBJ'
p542
g3
(g4
(I0
tS'b'
tRp543
(I1
(I1
I1
tg7
I00
S'y\xd5\x16x8\xf3\xfe?'
tbsS'GTEX-OOBK'
p544
g3
(g4
(I0
tS'b'
tRp545
(I1
(I1
I1
tg7
I00
S'L\xe8\xab\xc7Ph\xe2?'
tbsS'GTEX-S4Q7'
p546
g3
(g4
(I0
tS'b'
tRp547
(I1
(I1
I1
tg7
I00
S'\x12\x1e\x0f\xf5\xdd\xf2\xf4\xbf'
tbsS'GTEX-13FLW'
p548
g3
(g4
(I0
tS'b'
tRp549
(I1
(I1
I1
tg7
I00
S'\x8b\xd09h\x9d\x80\x15@'
tbsS'GTEX-13FLV'
p550
g3
(g4
(I0
tS'b'
tRp551
(I1
(I1
I1
tg7
I00
S'\xc0 c:\xd0\x1c\xd8?'
tbsS'GTEX-QLQ7'
p552
g3
(g4
(I0
tS'b'
tRp553
(I1
(I1
I1
tg7
I00
S'v#\xeb\x19\r\n\x10\xc0'
tbsS'GTEX-RN64'
p554
g3
(g4
(I0
tS'b'
tRp555
(I1
(I1
I1
tg7
I00
S'\xee\x86E[\xd1\xf1\x07\xc0'
tbsS'GTEX-13N11'
p556
g3
(g4
(I0
tS'b'
tRp557
(I1
(I1
I1
tg7
I00
S'\x8f)\x15j\x83T\xf0?'
tbsS'GTEX-ZYT6'
p558
g3
(g4
(I0
tS'b'
tRp559
(I1
(I1
I1
tg7
I00
S'\x91\x8c\xcaC\x96A\n@'
tbsS'GTEX-11XUK'
p560
g3
(g4
(I0
tS'b'
tRp561
(I1
(I1
I1
tg7
I00
S'\x89\xf0\x8e@\xe7\xf7\x03@'
tbsS'GTEX-ZTSS'
p562
g3
(g4
(I0
tS'b'
tRp563
(I1
(I1
I1
tg7
I00
S'a`$\x1d\x07\xf4\xe3\xbf'
tbsS'GTEX-1117F'
p564
g3
(g4
(I0
tS'b'
tRp565
(I1
(I1
I1
tg7
I00
S'a\xac\xda4\xack\xec\xbf'
tbsS'GTEX-113JC'
p566
g3
(g4
(I0
tS'b'
tRp567
(I1
(I1
I1
tg7
I00
S'\xb8\x01T~\x91\xa6\x07\xc0'
tbsS'GTEX-Z9EW'
p568
g3
(g4
(I0
tS'b'
tRp569
(I1
(I1
I1
tg7
I00
S'\xc2\x17a\x93\xb3\xa5\xce\xbf'
tbsS'GTEX-ZPU1'
p570
g3
(g4
(I0
tS'b'
tRp571
(I1
(I1
I1
tg7
I00
S'V\xd0X-!J\xf0\xbf'
tbsS'GTEX-XUJ4'
p572
g3
(g4
(I0
tS'b'
tRp573
(I1
(I1
I1
tg7
I00
S'`s\x97EFK\xe7?'
tbsS'GTEX-11DZ1'
p574
g3
(g4
(I0
tS'b'
tRp575
(I1
(I1
I1
tg7
I00
S'\x00\x84\x07x\x99\xf9=\xbf'
tbsS'GTEX-R3RS'
p576
g3
(g4
(I0
tS'b'
tRp577
(I1
(I1
I1
tg7
I00
S'\xaa\xe3\xb8\xac\x1a\xa7\xf0\xbf'
tbsS'GTEX-13NZ8'
p578
g3
(g4
(I0
tS'b'
tRp579
(I1
(I1
I1
tg7
I00
S'\xce.7s\x86\xe9\x02@'
tbsS'GTEX-QMR6'
p580
g3
(g4
(I0
tS'b'
tRp581
(I1
(I1
I1
tg7
I00
S'\xc06\xd0\x02*\xc9\x08@'
tbsS'GTEX-WRHU'
p582
g3
(g4
(I0
tS'b'
tRp583
(I1
(I1
I1
tg7
I00
S'\x8c\xa6\x0c\x11\xedG\x06\xc0'
tbsS'GTEX-WCDI'
p584
g3
(g4
(I0
tS'b'
tRp585
(I1
(I1
I1
tg7
I00
S'\xd9\x96\x88]\x12\xf2\xc7\xbf'
tbsS'GTEX-QMRM'
p586
g3
(g4
(I0
tS'b'
tRp587
(I1
(I1
I1
tg7
I00
S'\x05$\xee\x89b\xf3\xdf?'
tbsS'GTEX-13S86'
p588
g3
(g4
(I0
tS'b'
tRp589
(I1
(I1
I1
tg7
I00
S'\x94]!<\xbe\xfd\xff\xbf'
tbsS'GTEX-13NZB'
p590
g3
(g4
(I0
tS'b'
tRp591
(I1
(I1
I1
tg7
I00
S'\xa0\x8a\x92\xb0\x8e\x8c\x08@'
tbsS'GTEX-13NZA'
p592
g3
(g4
(I0
tS'b'
tRp593
(I1
(I1
I1
tg7
I00
S'Qu\xcd\x12X}\xd1?'
tbsS'GTEX-13OW8'
p594
g3
(g4
(I0
tS'b'
tRp595
(I1
(I1
I1
tg7
I00
S'\x11\x0fR*!;\xcd?'
tbsS'GTEX-13OW5'
p596
g3
(g4
(I0
tS'b'
tRp597
(I1
(I1
I1
tg7
I00
S'?\xd4\x92\xd9\xe2\xc9\x15\xc0'
tbsS'GTEX-13OW7'
p598
g3
(g4
(I0
tS'b'
tRp599
(I1
(I1
I1
tg7
I00
S'\xca\xa9\xf5\xb6a\xa9\xe7?'
tbsS'GTEX-13OW6'
p600
g3
(g4
(I0
tS'b'
tRp601
(I1
(I1
I1
tg7
I00
S'\xb4\xa2\xa0\x8d-\x1d\xea?'
tbsS'GTEX-U4B1'
p602
g3
(g4
(I0
tS'b'
tRp603
(I1
(I1
I1
tg7
I00
S'\xd1\xce\xab\xc9y\x89\xdf?'
tbsS'GTEX-11P81'
p604
g3
(g4
(I0
tS'b'
tRp605
(I1
(I1
I1
tg7
I00
S'P2\xebcy\xf9\xfe?'
tbsS'GTEX-11P82'
p606
g3
(g4
(I0
tS'b'
tRp607
(I1
(I1
I1
tg7
I00
S'\x88\xf6p\n\x90\xeb\xed\xbf'
tbsS'GTEX-117YW'
p608
g3
(g4
(I0
tS'b'
tRp609
(I1
(I1
I1
tg7
I00
S'L;v\xaa.\xeb\xfc?'
tbsS'GTEX-12KS4'
p610
g3
(g4
(I0
tS'b'
tRp611
(I1
(I1
I1
tg7
I00
S'K\x83\x8b\xfb\xa7\xc3\r@'
tbsS'GTEX-X62O'
p612
g3
(g4
(I0
tS'b'
tRp613
(I1
(I1
I1
tg7
I00
S'\xfb\xb8(K\xb1$\xfd\xbf'
tbsS'GTEX-13FH7'
p614
g3
(g4
(I0
tS'b'
tRp615
(I1
(I1
I1
tg7
I00
S"'\x86B\x16\xd4s\x0b\xc0"
tbsS'GTEX-ZPIC'
p616
g3
(g4
(I0
tS'b'
tRp617
(I1
(I1
I1
tg7
I00
S' \xf8\x17@\xf4n\x04@'
tbsS'GTEX-117XS'
p618
g3
(g4
(I0
tS'b'
tRp619
(I1
(I1
I1
tg7
I00
S'\x01\xca\xd1\x84\x12\xf2\xfb?'
tbsS'GTEX-XOT4'
p620
g3
(g4
(I0
tS'b'
tRp621
(I1
(I1
I1
tg7
I00
S'eME\x1dg\xf0\x03@'
tbsS'GTEX-12584'
p622
g3
(g4
(I0
tS'b'
tRp623
(I1
(I1
I1
tg7
I00
S'\x16\x86\x8f\x0cnX\x02\xc0'
tbsS'GTEX-Y114'
p624
g3
(g4
(I0
tS'b'
tRp625
(I1
(I1
I1
tg7
I00
S'"\xfc\xfb\xcf!\xb7\x00@'
tbsS'GTEX-S33H'
p626
g3
(g4
(I0
tS'b'
tRp627
(I1
(I1
I1
tg7
I00
S'\x0b\x9d\x1f}\xb2\xef\xd9?'
tbsS'GTEX-Y111'
p628
g3
(g4
(I0
tS'b'
tRp629
(I1
(I1
I1
tg7
I00
S'\t\x96\xfa\x11\x063\xc7\xbf'
tbsS'GTEX-ZYFC'
p630
g3
(g4
(I0
tS'b'
tRp631
(I1
(I1
I1
tg7
I00
S'\x98\t\xdb3\xa2P\xd1\xbf'
tbsS'GTEX-ZYFG'
p632
g3
(g4
(I0
tS'b'
tRp633
(I1
(I1
I1
tg7
I00
S'i\x0e\xf7\xbb,\xfd\xf2\xbf'
tbsS'GTEX-OHPN'
p634
g3
(g4
(I0
tS'b'
tRp635
(I1
(I1
I1
tg7
I00
S'p\xad\x92@k\x00\x17@'
tbsS'GTEX-OHPM'
p636
g3
(g4
(I0
tS'b'
tRp637
(I1
(I1
I1
tg7
I00
S'\xe9\xe8g\x82\xed\x98\xf8?'
tbsS'GTEX-ZYFD'
p638
g3
(g4
(I0
tS'b'
tRp639
(I1
(I1
I1
tg7
I00
S'\x1bf\xfa\xea5\xb2\xf7?'
tbsS'GTEX-Z93S'
p640
g3
(g4
(I0
tS'b'
tRp641
(I1
(I1
I1
tg7
I00
S'Sx\xb2\xcc\x12\x04\xf6?'
tbsS'GTEX-Z93T'
p642
g3
(g4
(I0
tS'b'
tRp643
(I1
(I1
I1
tg7
I00
S'.\xf8dsk-\x14\xc0'
tbsS'GTEX-UPK5'
p644
g3
(g4
(I0
tS'b'
tRp645
(I1
(I1
I1
tg7
I00
S'\x8d\r\xf3\xf6qW\xf3\xbf'
tbsS'GTEX-13U4I'
p646
g3
(g4
(I0
tS'b'
tRp647
(I1
(I1
I1
tg7
I00
S'M\xe9\xe4\xd9\x10j\xfe\xbf'
tbsS'GTEX-Y5LM'
p648
g3
(g4
(I0
tS'b'
tRp649
(I1
(I1
I1
tg7
I00
S'\x8cM\xad\x08\x06]\xfb?'
tbsS'GTEX-QESD'
p650
g3
(g4
(I0
tS'b'
tRp651
(I1
(I1
I1
tg7
I00
S"\xc3'\xa9\xb3}y\xf3?"
tbsS'GTEX-UJHI'
p652
g3
(g4
(I0
tS'b'
tRp653
(I1
(I1
I1
tg7
I00
S'\xa7\xf3\xcc\x05\xe0Q\x14\xc0'
tbsS'GTEX-S3XE'
p654
g3
(g4
(I0
tS'b'
tRp655
(I1
(I1
I1
tg7
I00
S'^\x85\xbcz\xfd\xbc\xf7\xbf'
tbsS'GTEX-11EQ9'
p656
g3
(g4
(I0
tS'b'
tRp657
(I1
(I1
I1
tg7
I00
S'\xd5w\x90jy\xcf\xc2?'
tbsS'GTEX-11EQ8'
p658
g3
(g4
(I0
tS'b'
tRp659
(I1
(I1
I1
tg7
I00
S'\xe1\xe2}\xc1u\x82\xdd?'
tbsS'GTEX-RM2N'
p660
g3
(g4
(I0
tS'b'
tRp661
(I1
(I1
I1
tg7
I00
S'S<c\x02\xdd\x0b\x05@'
tbsS'GTEX-13FHP'
p662
g3
(g4
(I0
tS'b'
tRp663
(I1
(I1
I1
tg7
I00
S'\xa6\xd9w\xd6T\xce\xf1?'
tbsS'GTEX-XMD3'
p664
g3
(g4
(I0
tS'b'
tRp665
(I1
(I1
I1
tg7
I00
S'i;m\xae\xd4[\x12@'
tbsS'GTEX-XMD2'
p666
g3
(g4
(I0
tS'b'
tRp667
(I1
(I1
I1
tg7
I00
S'\xf5Qa\xf5\x08\xf0\x01@'
tbsS'GTEX-XMD1'
p668
g3
(g4
(I0
tS'b'
tRp669
(I1
(I1
I1
tg7
I00
S'f\xc3\xf4\xca\xbd`\x08@'
tbsS'GTEX-11TUW'
p670
g3
(g4
(I0
tS'b'
tRp671
(I1
(I1
I1
tg7
I00
S'w\xb7B\xe4\xf6\x01\xce?'
tbsS'GTEX-U412'
p672
g3
(g4
(I0
tS'b'
tRp673
(I1
(I1
I1
tg7
I00
S'\xa39\xe9\xc3y\x1f\n@'
tbsS'GTEX-1339X'
p674
g3
(g4
(I0
tS'b'
tRp675
(I1
(I1
I1
tg7
I00
S'\xc4\xb4E\xfa\xca\x95\xfc\xbf'
tbsS'GTEX-XV7Q'
p676
g3
(g4
(I0
tS'b'
tRp677
(I1
(I1
I1
tg7
I00
S'2e_1 5\xd8\xbf'
tbsS'GTEX-12126'
p678
g3
(g4
(I0
tS'b'
tRp679
(I1
(I1
I1
tg7
I00
S'\x861L\xd8\xa2\xf5\xf0\xbf'
tbsS'GTEX-ZLWG'
p680
g3
(g4
(I0
tS'b'
tRp681
(I1
(I1
I1
tg7
I00
S'\xa5\xd3\x1e\xb5\x98\xb9\x13@'
tbsS'GTEX-VJYA'
p682
g3
(g4
(I0
tS'b'
tRp683
(I1
(I1
I1
tg7
I00
S'7\xe8\x12\x1ay\x1d\xe3\xbf'
tbsS'GTEX-ZTX8'
p684
g3
(g4
(I0
tS'b'
tRp685
(I1
(I1
I1
tg7
I00
S'{^\x00\xae\xaa\x84\xec?'
tbsS'GTEX-ZVT2'
p686
g3
(g4
(I0
tS'b'
tRp687
(I1
(I1
I1
tg7
I00
S'0\xde\xa4\xa2|6\xe3?'
tbsS'GTEX-ZVT3'
p688
g3
(g4
(I0
tS'b'
tRp689
(I1
(I1
I1
tg7
I00
S'(\xdaKn\xe4\x89\xf9?'
tbsS'GTEX-WXYG'
p690
g3
(g4
(I0
tS'b'
tRp691
(I1
(I1
I1
tg7
I00
S'[+f\xd8\x8b0\xf6\xbf'
tbsS'GTEX-ZVT4'
p692
g3
(g4
(I0
tS'b'
tRp693
(I1
(I1
I1
tg7
I00
S'z\x10N#\x0e\xf0\t\xc0'
tbsS'GTEX-POYW'
p694
g3
(g4
(I0
tS'b'
tRp695
(I1
(I1
I1
tg7
I00
S'\xcb-$\xd6\xa4+\xed\xbf'
tbsS'GTEX-13FTY'
p696
g3
(g4
(I0
tS'b'
tRp697
(I1
(I1
I1
tg7
I00
S'\x88\xbc9_U\x7f\xf6?'
tbsS'GTEX-13FTX'
p698
g3
(g4
(I0
tS'b'
tRp699
(I1
(I1
I1
tg7
I00
S'qy\xe2\x8a\xa2e\x04\xc0'
tbsS'GTEX-13FTZ'
p700
g3
(g4
(I0
tS'b'
tRp701
(I1
(I1
I1
tg7
I00
S'\xb4\xc1\xd5RjB\xfc\xbf'
tbsS'GTEX-TMZS'
p702
g3
(g4
(I0
tS'b'
tRp703
(I1
(I1
I1
tg7
I00
S'F\xe6\xfbV\x11b\xdf?'
tbsS'GTEX-W5X1'
p704
g3
(g4
(I0
tS'b'
tRp705
(I1
(I1
I1
tg7
I00
S'\t\x88\xafz\x15\xb9\x05\xc0'
tbsS'GTEX-ZAJG'
p706
g3
(g4
(I0
tS'b'
tRp707
(I1
(I1
I1
tg7
I00
S'\xbe\xf8\xb4)\x95\xd9\x00\xc0'
tbsS'GTEX-SNMC'
p708
g3
(g4
(I0
tS'b'
tRp709
(I1
(I1
I1
tg7
I00
S':\x029~\xaa\xdf\x08@'
tbsS'GTEX-13FTW'
p710
g3
(g4
(I0
tS'b'
tRp711
(I1
(I1
I1
tg7
I00
S'\xab\x1e\xf5<E@\xfc?'
tbsS'GTEX-11NUK'
p712
g3
(g4
(I0
tS'b'
tRp713
(I1
(I1
I1
tg7
I00
S'$\xb5\xa7;\x85\xfc\xff\xbf'
tbsS'GTEX-ZVTK'
p714
g3
(g4
(I0
tS'b'
tRp715
(I1
(I1
I1
tg7
I00
S'<=\x14WV\x1b\x00\xc0'
tbsS'GTEX-ZZ64'
p716
g3
(g4
(I0
tS'b'
tRp717
(I1
(I1
I1
tg7
I00
S'%\x9b\xddoBZ\xff\xbf'
tbsS'GTEX-PWO3'
p718
g3
(g4
(I0
tS'b'
tRp719
(I1
(I1
I1
tg7
I00
S'D\x18\x9bq\x1b@\x08\xc0'
tbsS'GTEX-13NYS'
p720
g3
(g4
(I0
tS'b'
tRp721
(I1
(I1
I1
tg7
I00
S"Y<w~7'\x0f\xc0"
tbsS'GTEX-1212Z'
p722
g3
(g4
(I0
tS'b'
tRp723
(I1
(I1
I1
tg7
I00
S'\xd9\xc8i\xe3^8\xfb\xbf'
tbsS'GTEX-11I78'
p724
g3
(g4
(I0
tS'b'
tRp725
(I1
(I1
I1
tg7
I00
S'5\x8c\xfe\x94gc\x06@'
tbsS'GTEX-13NYB'
p726
g3
(g4
(I0
tS'b'
tRp727
(I1
(I1
I1
tg7
I00
S'\x0crRI\xae\xb2\x03\xc0'
tbsS'GTEX-13NYC'
p728
g3
(g4
(I0
tS'b'
tRp729
(I1
(I1
I1
tg7
I00
S'\xb7Y\x9e\xd1\x876\t@'
tbsS'GTEX-Y9LG'
p730
g3
(g4
(I0
tS'b'
tRp731
(I1
(I1
I1
tg7
I00
S'6\x1adS_6\x08@'
tbsS'GTEX-X5EB'
p732
g3
(g4
(I0
tS'b'
tRp733
(I1
(I1
I1
tg7
I00
S'\xd9\x0c%\xe6\xec\xf7\xe6?'
tbsS'GTEX-1399Q'
p734
g3
(g4
(I0
tS'b'
tRp735
(I1
(I1
I1
tg7
I00
S'\x89\xd8s\xc5\x18\x8f!@'
tbsS'GTEX-1399R'
p736
g3
(g4
(I0
tS'b'
tRp737
(I1
(I1
I1
tg7
I00
S'l\xc9\xfb>\x10\x82\xd0?'
tbsS'GTEX-1399U'
p738
g3
(g4
(I0
tS'b'
tRp739
(I1
(I1
I1
tg7
I00
S'I@\xd2\xa6wI\xf3\xbf'
tbsS'GTEX-1399T'
p740
g3
(g4
(I0
tS'b'
tRp741
(I1
(I1
I1
tg7
I00
S'%\x83\x9c\xe1\xe4L\xb2\xbf'
tbsS'GTEX-13X6I'
p742
g3
(g4
(I0
tS'b'
tRp743
(I1
(I1
I1
tg7
I00
S'\xb9z\xddV\xb1M\x06\xc0'
tbsS'GTEX-13X6H'
p744
g3
(g4
(I0
tS'b'
tRp745
(I1
(I1
I1
tg7
I00
S'\x1d\xe8\xa3\xad\xec\xae\x01\xc0'
tbsS'GTEX-13X6K'
p746
g3
(g4
(I0
tS'b'
tRp747
(I1
(I1
I1
tg7
I00
S'IchDp\xb7\xf4?'
tbsS'GTEX-13X6J'
p748
g3
(g4
(I0
tS'b'
tRp749
(I1
(I1
I1
tg7
I00
S'\xc6\xc2\x8b5\x11\xda\x03@'
tbsS'GTEX-ZXG5'
p750
g3
(g4
(I0
tS'b'
tRp751
(I1
(I1
I1
tg7
I00
S'\\c>m\xbde\xcc\xbf'
tbsS'GTEX-11ZU8'
p752
g3
(g4
(I0
tS'b'
tRp753
(I1
(I1
I1
tg7
I00
S'g\xefqkft\xf1\xbf'
tbsS'GTEX-QVJO'
p754
g3
(g4
(I0
tS'b'
tRp755
(I1
(I1
I1
tg7
I00
S'\x8f+\xabE\xf8f\x04\xc0'
tbsS'GTEX-RWS6'
p756
g3
(g4
(I0
tS'b'
tRp757
(I1
(I1
I1
tg7
I00
S'\xd4L\xa57I\xc1\x07\xc0'
tbsS'GTEX-ZP4G'
p758
g3
(g4
(I0
tS'b'
tRp759
(I1
(I1
I1
tg7
I00
S'v7\n\xb1\x81\xb3\xcf?'
tbsS'GTEX-Y8E4'
p760
g3
(g4
(I0
tS'b'
tRp761
(I1
(I1
I1
tg7
I00
S'\xcf~\xdb^\xc5\xf5\x01\xc0'
tbsS'GTEX-Y8E5'
p762
g3
(g4
(I0
tS'b'
tRp763
(I1
(I1
I1
tg7
I00
S'H\xe8.\xe6\x9a\x9c\x0c@'
tbsS'GTEX-WH7G'
p764
g3
(g4
(I0
tS'b'
tRp765
(I1
(I1
I1
tg7
I00
S'\xfbb\x0c,\x9d\xa6\xda\xbf'
tbsS'GTEX-WEY5'
p766
g3
(g4
(I0
tS'b'
tRp767
(I1
(I1
I1
tg7
I00
S'dz\xcb\x86\xdf\xdd\x06@'
tbsS'GTEX-11P7K'
p768
g3
(g4
(I0
tS'b'
tRp769
(I1
(I1
I1
tg7
I00
S'\xec\xdf\xffxp\x1f\xfd\xbf'
tbsS'GTEX-S7PM'
p770
g3
(g4
(I0
tS'b'
tRp771
(I1
(I1
I1
tg7
I00
S'\xa0\xd8`1\xbd\xa5\x19\xc0'
tbsS'GTEX-V1D1'
p772
g3
(g4
(I0
tS'b'
tRp773
(I1
(I1
I1
tg7
I00
S'.\xe8\xcb"1\x97\xf4?'
tbsS'GTEX-WRHK'
p774
g3
(g4
(I0
tS'b'
tRp775
(I1
(I1
I1
tg7
I00
S'K\x13\xb4t\xd6!\xf3?'
tbsS'GTEX-R55C'
p776
g3
(g4
(I0
tS'b'
tRp777
(I1
(I1
I1
tg7
I00
S'\x8a\x9c@\n\xd8\xd9\xef?'
tbsS'GTEX-R55F'
p778
g3
(g4
(I0
tS'b'
tRp779
(I1
(I1
I1
tg7
I00
S'N\x11\xa8\x07\x10\x87\x14@'
tbsS'GTEX-R55G'
p780
g3
(g4
(I0
tS'b'
tRp781
(I1
(I1
I1
tg7
I00
S'\xcfk*t\x18^\xe9\xbf'
tbsS'GTEX-R55D'
p782
g3
(g4
(I0
tS'b'
tRp783
(I1
(I1
I1
tg7
I00
S'b\x1f2\xfb\x17e\x08\xc0'
tbsS'GTEX-R55E'
p784
g3
(g4
(I0
tS'b'
tRp785
(I1
(I1
I1
tg7
I00
S'\xa9~\x96\x8c\xceM\xf3?'
tbsS'GTEX-PSDG'
p786
g3
(g4
(I0
tS'b'
tRp787
(I1
(I1
I1
tg7
I00
S'\xbd\xc88v\xd45\xd9\xbf'
tbsS'GTEX-RWSA'
p788
g3
(g4
(I0
tS'b'
tRp789
(I1
(I1
I1
tg7
I00
S'y\x10\xf8\x9c\x8d\x82\xf6\xbf'
tbsS'GTEX-1122O'
p790
g3
(g4
(I0
tS'b'
tRp791
(I1
(I1
I1
tg7
I00
S'M\xdb\xfe\xc9\xcau\xf0?'
tbsS'GTEX-X4EO'
p792
g3
(g4
(I0
tS'b'
tRp793
(I1
(I1
I1
tg7
I00
S'H\x95\x8dJ-o\xf2?'
tbsS'GTEX-WVLH'
p794
g3
(g4
(I0
tS'b'
tRp795
(I1
(I1
I1
tg7
I00
S'\x0f^\x0e\xc3\xa6n\x10@'
tbsS'GTEX-WYVS'
p796
g3
(g4
(I0
tS'b'
tRp797
(I1
(I1
I1
tg7
I00
S'\xf9\xe4\x0e\xa0\r\x83\xf7\xbf'
tbsS'GTEX-X4EP'
p798
g3
(g4
(I0
tS'b'
tRp799
(I1
(I1
I1
tg7
I00
S'V\x18\xa2\xe2\x95-\x01@'
tbsS'GTEX-XAJ8'
p800
g3
(g4
(I0
tS'b'
tRp801
(I1
(I1
I1
tg7
I00
S'!\xb7W\xae\x19\x89\x06@'
tbsS'GTEX-RU1J'
p802
g3
(g4
(I0
tS'b'
tRp803
(I1
(I1
I1
tg7
I00
S'\x84\x07\xae\x8d<\x03\n\xc0'
tbsS'GTEX-11GSP'
p804
g3
(g4
(I0
tS'b'
tRp805
(I1
(I1
I1
tg7
I00
S'ARY\xcc9\x1d\xf2?'
tbsS'GTEX-12ZZX'
p806
g3
(g4
(I0
tS'b'
tRp807
(I1
(I1
I1
tg7
I00
S'Hm\xb4M#y\xf7\xbf'
tbsS'GTEX-12ZZY'
p808
g3
(g4
(I0
tS'b'
tRp809
(I1
(I1
I1
tg7
I00
S'\xe4\xd9!C$c\xf4\xbf'
tbsS'GTEX-12ZZZ'
p810
g3
(g4
(I0
tS'b'
tRp811
(I1
(I1
I1
tg7
I00
S'H\x0c\xe1lS\x82\xd6\xbf'
tbsS'GTEX-11PRG'
p812
g3
(g4
(I0
tS'b'
tRp813
(I1
(I1
I1
tg7
I00
S'\x82C\x05M\x9f\x03\xe2?'
tbsS'GTEX-SN8G'
p814
g3
(g4
(I0
tS'b'
tRp815
(I1
(I1
I1
tg7
I00
S'=W\x81\xb3G}\xf7\xbf'
tbsS'GTEX-ZVP2'
p816
g3
(g4
(I0
tS'b'
tRp817
(I1
(I1
I1
tg7
I00
S'\xbcKY\x82J\xaf\xfd?'
tbsS'GTEX-12ZZW'
p818
g3
(g4
(I0
tS'b'
tRp819
(I1
(I1
I1
tg7
I00
S')n\xdb{;\x9d\xed\xbf'
tbsS'GTEX-13W3W'
p820
g3
(g4
(I0
tS'b'
tRp821
(I1
(I1
I1
tg7
I00
S'n\xe8\xd3\x95 \xd5\x04@'
tbsS'GTEX-S4Z8'
p822
g3
(g4
(I0
tS'b'
tRp823
(I1
(I1
I1
tg7
I00
S'\xdc\x1e\xb4f\x81\x89\xc0\xbf'
tbsS'GTEX-1211K'
p824
g3
(g4
(I0
tS'b'
tRp825
(I1
(I1
I1
tg7
I00
S'\xc7$\xed\x10\xf0.\x01\xc0'
tbsS'GTEX-ZG7Y'
p826
g3
(g4
(I0
tS'b'
tRp827
(I1
(I1
I1
tg7
I00
S'E\xa5Y\x1dkv\x17\xc0'
tbsS'GTEX-POMQ'
p828
g3
(g4
(I0
tS'b'
tRp829
(I1
(I1
I1
tg7
I00
S'\xbd\xf9\xa5\xb5\xa3\xb8\xe3?'
tbsS'GTEX-QCQG'
p830
g3
(g4
(I0
tS'b'
tRp831
(I1
(I1
I1
tg7
I00
S'\xbbu\x89\xabN\xa2\x08@'
tbsS'GTEX-11DYG'
p832
g3
(g4
(I0
tS'b'
tRp833
(I1
(I1
I1
tg7
I00
S'\xb9\xef\xcdh~\xc8\x01@'
tbsS'GTEX-S95S'
p834
g3
(g4
(I0
tS'b'
tRp835
(I1
(I1
I1
tg7
I00
S'\x8fD-\xc5\xfe\xb1\xe1\xbf'
tbsS'GTEX-Y5V6'
p836
g3
(g4
(I0
tS'b'
tRp837
(I1
(I1
I1
tg7
I00
S'4\xc6:a&\x88\xcd?'
tbsS'GTEX-Y5V5'
p838
g3
(g4
(I0
tS'b'
tRp839
(I1
(I1
I1
tg7
I00
S'\n7\xdf{Y\xad\xe9?'
tbsS'GTEX-139YR'
p840
g3
(g4
(I0
tS'b'
tRp841
(I1
(I1
I1
tg7
I00
S"\x05\x8c'\xff\xe7\xec\xf2\xbf"
tbsS'GTEX-QDT8'
p842
g3
(g4
(I0
tS'b'
tRp843
(I1
(I1
I1
tg7
I00
S'\xfd\xa2t\t\xab:\t@'
tbsS'GTEX-QXCU'
p844
g3
(g4
(I0
tS'b'
tRp845
(I1
(I1
I1
tg7
I00
S"P\x89'\xad1\xdf\xe1?"
tbsS'GTEX-YBZK'
p846
g3
(g4
(I0
tS'b'
tRp847
(I1
(I1
I1
tg7
I00
S'e>B\x8c_+\x1a\xc0'
tbsS'GTEX-SSA3'
p848
g3
(g4
(I0
tS'b'
tRp849
(I1
(I1
I1
tg7
I00
S'\x1fC"\xcd7\xe6\xe1?'
tbsS'GTEX-PX3G'
p850
g3
(g4
(I0
tS'b'
tRp851
(I1
(I1
I1
tg7
I00
S'\xc9\x9d$\xc1x\xee\x03\xc0'
tbsS'GTEX-V955'
p852
g3
(g4
(I0
tS'b'
tRp853
(I1
(I1
I1
tg7
I00
S'\x9f\x8f{-\x13{\t\xc0'
tbsS'GTEX-11TTK'
p854
g3
(g4
(I0
tS'b'
tRp855
(I1
(I1
I1
tg7
I00
S'\nfR\x99\xdc\xf2\x0b\xc0'
tbsS'GTEX-ZV7C'
p856
g3
(g4
(I0
tS'b'
tRp857
(I1
(I1
I1
tg7
I00
S'\xc0\xa6\xb1\xf4\xf8R\xde?'
tbsS'GTEX-11ZVC'
p858
g3
(g4
(I0
tS'b'
tRp859
(I1
(I1
I1
tg7
I00
S'O\xc3\x88x?E\xee\xbf'
tbsS'GTEX-11EI6'
p860
g3
(g4
(I0
tS'b'
tRp861
(I1
(I1
I1
tg7
I00
S'1N\xb9u\xde\xc5\x00\xc0'
tbsS'GTEX-145MG'
p862
g3
(g4
(I0
tS'b'
tRp863
(I1
(I1
I1
tg7
I00
S'X^\x92v\x83\xa1\x1b@'
tbsS'GTEX-11TT1'
p864
g3
(g4
(I0
tS'b'
tRp865
(I1
(I1
I1
tg7
I00
S'\x87\xe7\x14\xcf\xde\x9d\xed?'
tbsS'GTEX-ZGAY'
p866
g3
(g4
(I0
tS'b'
tRp867
(I1
(I1
I1
tg7
I00
S'\xeb4\xa0\xae\x11\x08\xf4\xbf'
tbsS'GTEX-R45C'
p868
g3
(g4
(I0
tS'b'
tRp869
(I1
(I1
I1
tg7
I00
S'*+\x873Hm\x17@'
tbsS'GTEX-YB5E'
p870
g3
(g4
(I0
tS'b'
tRp871
(I1
(I1
I1
tg7
I00
S'\xb6\x8d1\xd3\xe5i\xf5\xbf'
tbsS'GTEX-YB5K'
p872
g3
(g4
(I0
tS'b'
tRp873
(I1
(I1
I1
tg7
I00
S'\xd7c\x19\xe4\xc9\xc7\x01\xc0'
tbsS'GTEX-RUSQ'
p874
g3
(g4
(I0
tS'b'
tRp875
(I1
(I1
I1
tg7
I00
S'G>8\xf2\xdd\xbc\xf8\xbf'
tbsS'GTEX-VJWN'
p876
g3
(g4
(I0
tS'b'
tRp877
(I1
(I1
I1
tg7
I00
S'D\xd1\xc8\x9f\xb7\x08\xd7?'
tbsS'GTEX-U8XE'
p878
g3
(g4
(I0
tS'b'
tRp879
(I1
(I1
I1
tg7
I00
S'\x97h:y\xb4g\x11\xc0'
tbsS'GTEX-XQ8I'
p880
g3
(g4
(I0
tS'b'
tRp881
(I1
(I1
I1
tg7
I00
S'\x19b\xd5\x0b\x1e\xa7\xf9?'
tbsS'GTEX-SNOS'
p882
g3
(g4
(I0
tS'b'
tRp883
(I1
(I1
I1
tg7
I00
S'!N\x9a\x82\xd4\xca\xf3?'
tbsS'GTEX-QV31'
p884
g3
(g4
(I0
tS'b'
tRp885
(I1
(I1
I1
tg7
I00
S'\xcf\xae\xccdK\xf9\xbd\xbf'
tbsS'GTEX-S7SE'
p886
g3
(g4
(I0
tS'b'
tRp887
(I1
(I1
I1
tg7
I00
S'\xdau\x03\xf9\xc9i\xfc\xbf'
tbsS'GTEX-145MF'
p888
g3
(g4
(I0
tS'b'
tRp889
(I1
(I1
I1
tg7
I00
S'+1\xb6\x07\xf8H\xef\xbf'
tbsS'GTEX-S7SF'
p890
g3
(g4
(I0
tS'b'
tRp891
(I1
(I1
I1
tg7
I00
S'Z\xafv\xad\x12C\x05\xc0'
tbsS'GTEX-145MH'
p892
g3
(g4
(I0
tS'b'
tRp893
(I1
(I1
I1
tg7
I00
S'\x0e\x8b[\xbcNY\n@'
tbsS'GTEX-WYJK'
p894
g3
(g4
(I0
tS'b'
tRp895
(I1
(I1
I1
tg7
I00
S'\xe3\xcfr-\xc29\xf5\xbf'
tbsS'GTEX-145MO'
p896
g3
(g4
(I0
tS'b'
tRp897
(I1
(I1
I1
tg7
I00
S'\x9d"\xe9\xecm\x83\x04@'
tbs.