(dp1
S'GTEX-YJ89'
p2
cnumpy.core.multiarray
_reconstruct
p3
(cnumpy
ndarray
p4
(I0
tS'b'
tRp5
(I1
(I1
I1
tcnumpy
dtype
p6
(S'f8'
I0
I1
tRp7
(I3
S'<'
NNNI-1
I-1
I0
tbI00
S'r\r\xfb\x88F\x95\x01\xc0'
tbsS'GTEX-XPVG'
p8
g3
(g4
(I0
tS'b'
tRp9
(I1
(I1
I1
tg7
I00
S'\xd9\x7f\xfd\x9aE\xa3\xc2\xbf'
tbsS'GTEX-TMMY'
p10
g3
(g4
(I0
tS'b'
tRp11
(I1
(I1
I1
tg7
I00
S'\xa3`\xe2\xc0\xf34\xd0?'
tbsS'GTEX-WWYW'
p12
g3
(g4
(I0
tS'b'
tRp13
(I1
(I1
I1
tg7
I00
S'+\x04_\xdd\xa6\x01\xff\xbf'
tbsS'GTEX-11GSO'
p14
g3
(g4
(I0
tS'b'
tRp15
(I1
(I1
I1
tg7
I00
S'%\xb1\xe9\x93\\\x0e\x10@'
tbsS'GTEX-111FC'
p16
g3
(g4
(I0
tS'b'
tRp17
(I1
(I1
I1
tg7
I00
S'\xb9\xb1q~\xf5\xeb\xe4\xbf'
tbsS'GTEX-139T8'
p18
g3
(g4
(I0
tS'b'
tRp19
(I1
(I1
I1
tg7
I00
S'\xf6\xa9\x98\xf6\xe1\xab\x14@'
tbsS'GTEX-139T6'
p20
g3
(g4
(I0
tS'b'
tRp21
(I1
(I1
I1
tg7
I00
S'|(\xffM\x8f\xe2\xf4?'
tbsS'GTEX-13O1R'
p22
g3
(g4
(I0
tS'b'
tRp23
(I1
(I1
I1
tg7
I00
S'\xd3\x02\xd4\xfe\xbb\xfa\xf3\xbf'
tbsS'GTEX-ZLFU'
p24
g3
(g4
(I0
tS'b'
tRp25
(I1
(I1
I1
tg7
I00
S'3\x19\xd5\xb3:\xa0\xd1?'
tbsS'GTEX-ZVE1'
p26
g3
(g4
(I0
tS'b'
tRp27
(I1
(I1
I1
tg7
I00
S'\x8f\xbb\xdc\x8a\x04\xeb\x1f@'
tbsS'GTEX-ZVE2'
p28
g3
(g4
(I0
tS'b'
tRp29
(I1
(I1
I1
tg7
I00
S'\xdcR\xd4\xe8M\xdd\xd1\xbf'
tbsS'GTEX-Q2AH'
p30
g3
(g4
(I0
tS'b'
tRp31
(I1
(I1
I1
tg7
I00
S'\x8f\xbdL\xfa\xe4\x1b\xff?'
tbsS'GTEX-Q2AI'
p32
g3
(g4
(I0
tS'b'
tRp33
(I1
(I1
I1
tg7
I00
S'\xaf\xf2[\xc9(\x15\xf5\xbf'
tbsS'GTEX-S32W'
p34
g3
(g4
(I0
tS'b'
tRp35
(I1
(I1
I1
tg7
I00
S'\xfa\xaf]\xc5\x0c\xde\xf2?'
tbsS'GTEX-ZEX8'
p36
g3
(g4
(I0
tS'b'
tRp37
(I1
(I1
I1
tg7
I00
S'\xe0\x8e\xb8T\xb7@\xc5?'
tbsS'GTEX-133LE'
p38
g3
(g4
(I0
tS'b'
tRp39
(I1
(I1
I1
tg7
I00
S'\xa5\xb6<\x84\xfd&\xf6\xbf'
tbsS'GTEX-WZTO'
p40
g3
(g4
(I0
tS'b'
tRp41
(I1
(I1
I1
tg7
I00
S's\xa2O\x89\xd9\xca\xe8?'
tbsS'GTEX-139TU'
p42
g3
(g4
(I0
tS'b'
tRp43
(I1
(I1
I1
tg7
I00
S'":{\xe8\xe5\x1a\xf9\xbf'
tbsS'GTEX-139TS'
p44
g3
(g4
(I0
tS'b'
tRp45
(I1
(I1
I1
tg7
I00
S'G\x1aj\xda,\x8e\xd8\xbf'
tbsS'GTEX-ZF3C'
p46
g3
(g4
(I0
tS'b'
tRp47
(I1
(I1
I1
tg7
I00
S'\xfe\xf8\xfc\x8e\xeb\x16\r@'
tbsS'GTEX-XMK1'
p48
g3
(g4
(I0
tS'b'
tRp49
(I1
(I1
I1
tg7
I00
S'\xc9\xfbK\x0fNB\xf8?'
tbsS'GTEX-WHWD'
p50
g3
(g4
(I0
tS'b'
tRp51
(I1
(I1
I1
tg7
I00
S'\x8c\x14\xcb\xed\xf7\x1d\xfb?'
tbsS'GTEX-1192W'
p52
g3
(g4
(I0
tS'b'
tRp53
(I1
(I1
I1
tg7
I00
S'v"\x9b\xce\x91j\r@'
tbsS'GTEX-X4XX'
p54
g3
(g4
(I0
tS'b'
tRp55
(I1
(I1
I1
tg7
I00
S'\xaf\x1f\x007\xfap\xb1?'
tbsS'GTEX-X4XY'
p56
g3
(g4
(I0
tS'b'
tRp57
(I1
(I1
I1
tg7
I00
S'&\x9a\x07hgV\xc0?'
tbsS'GTEX-13CZV'
p58
g3
(g4
(I0
tS'b'
tRp59
(I1
(I1
I1
tg7
I00
S'\xcb?\xae\xb0 \xab\x14\xc0'
tbsS'GTEX-1192X'
p60
g3
(g4
(I0
tS'b'
tRp61
(I1
(I1
I1
tg7
I00
S'-\x8d\x80\x1b.\x89\xf2\xbf'
tbsS'GTEX-T2YK'
p62
g3
(g4
(I0
tS'b'
tRp63
(I1
(I1
I1
tg7
I00
S'\xb7\xc5">$\xa6\r\xc0'
tbsS'GTEX-YJ8A'
p64
g3
(g4
(I0
tS'b'
tRp65
(I1
(I1
I1
tg7
I00
S'\x9a@\xc15K\x9c\xd5\xbf'
tbsS'GTEX-SIU8'
p66
g3
(g4
(I0
tS'b'
tRp67
(I1
(I1
I1
tg7
I00
S'\x03.2\x8a\xf7\xb8\x02@'
tbsS'GTEX-QEG5'
p68
g3
(g4
(I0
tS'b'
tRp69
(I1
(I1
I1
tg7
I00
S'\x05\xa4\x03E\xaa\xe0\xde\xbf'
tbsS'GTEX-OXRP'
p70
g3
(g4
(I0
tS'b'
tRp71
(I1
(I1
I1
tg7
I00
S'w\x96\t\xeb\x00\x0c\xfc?'
tbsS'GTEX-SIU7'
p72
g3
(g4
(I0
tS'b'
tRp73
(I1
(I1
I1
tg7
I00
S'>Z{\xce\xae\xe6\xc3\xbf'
tbsS'GTEX-WI4N'
p74
g3
(g4
(I0
tS'b'
tRp75
(I1
(I1
I1
tg7
I00
S'y\t]\xc4\xe2\x1c\xcd\xbf'
tbsS'GTEX-OXRL'
p76
g3
(g4
(I0
tS'b'
tRp77
(I1
(I1
I1
tg7
I00
S'\x9a\xe9\x00b\x98\xe6\xd6\xbf'
tbsS'GTEX-OXRO'
p78
g3
(g4
(I0
tS'b'
tRp79
(I1
(I1
I1
tg7
I00
S'!\xa2]"\xddn\x14@'
tbsS'GTEX-OXRN'
p80
g3
(g4
(I0
tS'b'
tRp81
(I1
(I1
I1
tg7
I00
S"\xa0~\xc6\x04'\xd4\x03\xc0"
tbsS'GTEX-OXRK'
p82
g3
(g4
(I0
tS'b'
tRp83
(I1
(I1
I1
tg7
I00
S'\x8d}J,P\xe0\xec?'
tbsS'GTEX-X261'
p84
g3
(g4
(I0
tS'b'
tRp85
(I1
(I1
I1
tg7
I00
S'\xdd\xbb\xd5M;h\x03\xc0'
tbsS'GTEX-UJMC'
p86
g3
(g4
(I0
tS'b'
tRp87
(I1
(I1
I1
tg7
I00
S'\x99\xbas7EJ\r\xc0'
tbsS'GTEX-SJXC'
p88
g3
(g4
(I0
tS'b'
tRp89
(I1
(I1
I1
tg7
I00
S'\x01\xc6=I\r\xd0\xf1?'
tbsS'GTEX-13VXU'
p90
g3
(g4
(I0
tS'b'
tRp91
(I1
(I1
I1
tg7
I00
S'I\xd6j\x03\xb2\xc0\x0b\xc0'
tbsS'GTEX-13VXT'
p92
g3
(g4
(I0
tS'b'
tRp93
(I1
(I1
I1
tg7
I00
S'\xc3T\t|^L\x01\xc0'
tbsS'GTEX-OIZH'
p94
g3
(g4
(I0
tS'b'
tRp95
(I1
(I1
I1
tg7
I00
S'\xc1G\xdd&\t\x84\xe2?'
tbsS'GTEX-OIZI'
p96
g3
(g4
(I0
tS'b'
tRp97
(I1
(I1
I1
tg7
I00
S'J\x8c!\x8f\xdd\x9a\x10\xc0'
tbsS'GTEX-ZAB5'
p98
g3
(g4
(I0
tS'b'
tRp99
(I1
(I1
I1
tg7
I00
S'\xf8R\xa1$\xf9}\xf9?'
tbsS'GTEX-ZAB4'
p100
g3
(g4
(I0
tS'b'
tRp101
(I1
(I1
I1
tg7
I00
S'\xf4\xce\xe1\xedZ\x9f\xb9?'
tbsS'GTEX-OHPL'
p102
g3
(g4
(I0
tS'b'
tRp103
(I1
(I1
I1
tg7
I00
S'f\xb8K\xab\x07\x12\x10@'
tbsS'GTEX-OIZG'
p104
g3
(g4
(I0
tS'b'
tRp105
(I1
(I1
I1
tg7
I00
S'\xeb\xa3\x1bk\x9f\x8f\xcf\xbf'
tbsS'GTEX-ZY6K'
p106
g3
(g4
(I0
tS'b'
tRp107
(I1
(I1
I1
tg7
I00
S'\xf5\xcc\x83g\r\x9b\xf0\xbf'
tbsS'GTEX-11DXW'
p108
g3
(g4
(I0
tS'b'
tRp109
(I1
(I1
I1
tg7
I00
S'\xea\x83)~\x8fH\xe8\xbf'
tbsS'GTEX-13CF2'
p110
g3
(g4
(I0
tS'b'
tRp111
(I1
(I1
I1
tg7
I00
S'\xc7S\x92\x13\xfb\xa3\xfc\xbf'
tbsS'GTEX-13CF3'
p112
g3
(g4
(I0
tS'b'
tRp113
(I1
(I1
I1
tg7
I00
S'\xe9\xceEs\xce\xb4\xe5\xbf'
tbsS'GTEX-11DXY'
p114
g3
(g4
(I0
tS'b'
tRp115
(I1
(I1
I1
tg7
I00
S'\x7f\x8fk\x9a\xd4\x17\n@'
tbsS'GTEX-11DXX'
p116
g3
(g4
(I0
tS'b'
tRp117
(I1
(I1
I1
tg7
I00
S'\xd3k_\xfb\xbba\x0c@'
tbsS'GTEX-11DXZ'
p118
g3
(g4
(I0
tS'b'
tRp119
(I1
(I1
I1
tg7
I00
S'\xd2\x96dx3C\xf2?'
tbsS'GTEX-13S7M'
p120
g3
(g4
(I0
tS'b'
tRp121
(I1
(I1
I1
tg7
I00
S'T\xa2*\xdc\xf2\x0f\x06@'
tbsS'GTEX-WOFL'
p122
g3
(g4
(I0
tS'b'
tRp123
(I1
(I1
I1
tg7
I00
S'\xa4\x16\xd0\x04\x84\xe8\xf6?'
tbsS'GTEX-WOFM'
p124
g3
(g4
(I0
tS'b'
tRp125
(I1
(I1
I1
tg7
I00
S'\x90\x85p#\xa2\x9f\x06\xc0'
tbsS'GTEX-XUZC'
p126
g3
(g4
(I0
tS'b'
tRp127
(I1
(I1
I1
tg7
I00
S'\xd6\x87\x89\xc5\xde#\xf3?'
tbsS'GTEX-ZDTS'
p128
g3
(g4
(I0
tS'b'
tRp129
(I1
(I1
I1
tg7
I00
S'\xc3\x14\r\xbd>\xf3\xc4?'
tbsS'GTEX-ZDTT'
p130
g3
(g4
(I0
tS'b'
tRp131
(I1
(I1
I1
tg7
I00
S'a\xab\x0f\xbc\xad~\x10\xc0'
tbsS'GTEX-PWN1'
p132
g3
(g4
(I0
tS'b'
tRp133
(I1
(I1
I1
tg7
I00
S'\x81\x90\xd5\xdb9\xbf\x02\xc0'
tbsS'GTEX-N7MS'
p134
g3
(g4
(I0
tS'b'
tRp135
(I1
(I1
I1
tg7
I00
S';\xf0\x9b\x8a\x87\xea\xc6\xbf'
tbsS'GTEX-N7MT'
p136
g3
(g4
(I0
tS'b'
tRp137
(I1
(I1
I1
tg7
I00
S'\x94e\xe4Z\xf44\xd9\xbf'
tbsS'GTEX-W5WG'
p138
g3
(g4
(I0
tS'b'
tRp139
(I1
(I1
I1
tg7
I00
S'Z\xa7\xc5\xf5\x11\xc5\xf7\xbf'
tbsS'GTEX-XYKS'
p140
g3
(g4
(I0
tS'b'
tRp141
(I1
(I1
I1
tg7
I00
S'H\xe6\xa0+\xda\xbb\xd8\xbf'
tbsS'GTEX-NPJ7'
p142
g3
(g4
(I0
tS'b'
tRp143
(I1
(I1
I1
tg7
I00
S'\x91%O\xf9:n\xfc\xbf'
tbsS'GTEX-13RTK'
p144
g3
(g4
(I0
tS'b'
tRp145
(I1
(I1
I1
tg7
I00
S'\x89\x8f\xe6t\xb8\xa1\t\xc0'
tbsS'GTEX-13RTJ'
p146
g3
(g4
(I0
tS'b'
tRp147
(I1
(I1
I1
tg7
I00
S'cFB(\x10\xe4\xf0\xbf'
tbsS'GTEX-13N1W'
p148
g3
(g4
(I0
tS'b'
tRp149
(I1
(I1
I1
tg7
I00
S'J\xe1\xdc\xbd\x8b\x16\xe1?'
tbsS'GTEX-O5YW'
p150
g3
(g4
(I0
tS'b'
tRp151
(I1
(I1
I1
tg7
I00
S'^n\x180M\x92\x03\xc0'
tbsS'GTEX-O5YV'
p152
g3
(g4
(I0
tS'b'
tRp153
(I1
(I1
I1
tg7
I00
S'\xb7\xd9\x8f\xd4\xabK\x13@'
tbsS'GTEX-WL46'
p154
g3
(g4
(I0
tS'b'
tRp155
(I1
(I1
I1
tg7
I00
S'.D\x83\xa4V\xf8\xed?'
tbsS'GTEX-NPJ8'
p156
g3
(g4
(I0
tS'b'
tRp157
(I1
(I1
I1
tg7
I00
S'D\xaf\x8by8q\xe6\xbf'
tbsS'GTEX-Q2AG'
p158
g3
(g4
(I0
tS'b'
tRp159
(I1
(I1
I1
tg7
I00
S'\x86\x8c\xfd\x08\xe0\x08\x00\xc0'
tbsS'GTEX-11EM3'
p160
g3
(g4
(I0
tS'b'
tRp161
(I1
(I1
I1
tg7
I00
S'\xd7\xc8\xa8~\x06\xc7\x0e@'
tbsS'GTEX-Q734'
p162
g3
(g4
(I0
tS'b'
tRp163
(I1
(I1
I1
tg7
I00
S'\xcb\x14K\x01\xc2\xa7\xf7\xbf'
tbsS'GTEX-11EMC'
p164
g3
(g4
(I0
tS'b'
tRp165
(I1
(I1
I1
tg7
I00
S'\xba}.(X!\xf5\xbf'
tbsS'GTEX-13IVO'
p166
g3
(g4
(I0
tS'b'
tRp167
(I1
(I1
I1
tg7
I00
S'x\xda\xa7P\xb8\x8c\x0b@'
tbsS'GTEX-1128S'
p168
g3
(g4
(I0
tS'b'
tRp169
(I1
(I1
I1
tg7
I00
S')\xf1\xc6\xb9\xfb\xc3\xf8\xbf'
tbsS'GTEX-WHSE'
p170
g3
(g4
(I0
tS'b'
tRp171
(I1
(I1
I1
tg7
I00
S'D \xd1\xc1\\W\xed\xbf'
tbsS'GTEX-WHSB'
p172
g3
(g4
(I0
tS'b'
tRp173
(I1
(I1
I1
tg7
I00
S'\x97\xcfGl\xc1\xaf\x0b\xc0'
tbsS'GTEX-13D11'
p174
g3
(g4
(I0
tS'b'
tRp175
(I1
(I1
I1
tg7
I00
S'V,L|\xc9\x19\x07\xc0'
tbsS'GTEX-NL4W'
p176
g3
(g4
(I0
tS'b'
tRp177
(I1
(I1
I1
tg7
I00
S'1\xe2\xa7\x96\xea\xa8\xe3?'
tbsS'GTEX-SUCS'
p178
g3
(g4
(I0
tS'b'
tRp179
(I1
(I1
I1
tg7
I00
S'\x97\xbc.\xee\xa4^\xed?'
tbsS'GTEX-13QIC'
p180
g3
(g4
(I0
tS'b'
tRp181
(I1
(I1
I1
tg7
I00
S'8}\x96na\xcb\xdd\xbf'
tbsS'GTEX-ZYY3'
p182
g3
(g4
(I0
tS'b'
tRp183
(I1
(I1
I1
tg7
I00
S'\xf9,)\xa8"2\n@'
tbsS'GTEX-WYBS'
p184
g3
(g4
(I0
tS'b'
tRp185
(I1
(I1
I1
tg7
I00
S')\xdc\x98\x80\x0c}\xff?'
tbsS'GTEX-Y3I4'
p186
g3
(g4
(I0
tS'b'
tRp187
(I1
(I1
I1
tg7
I00
S'\xc3\xaa.\xa7a\xf4\x11\xc0'
tbsS'GTEX-13O21'
p188
g3
(g4
(I0
tS'b'
tRp189
(I1
(I1
I1
tg7
I00
S'*\x89w\xdb\x84\xa2\x04@'
tbsS'GTEX-PVOW'
p190
g3
(g4
(I0
tS'b'
tRp191
(I1
(I1
I1
tg7
I00
S'\xa1\xa2\xf3\x1c\xafL\xe8\xbf'
tbsS'GTEX-13QBU'
p192
g3
(g4
(I0
tS'b'
tRp193
(I1
(I1
I1
tg7
I00
S'l\xed\x85\xecf\xe7\x04@'
tbsS'GTEX-111YS'
p194
g3
(g4
(I0
tS'b'
tRp195
(I1
(I1
I1
tg7
I00
S'\xe3>x\xb9\x85\x92\xf1\xbf'
tbsS'GTEX-X585'
p196
g3
(g4
(I0
tS'b'
tRp197
(I1
(I1
I1
tg7
I00
S'\xa0\xc7\x8f\x13\xb8\xd1\xff?'
tbsS'GTEX-11VI4'
p198
g3
(g4
(I0
tS'b'
tRp199
(I1
(I1
I1
tg7
I00
S'\xa8\xba\xcd\x88r\x9e\xda\xbf'
tbsS'GTEX-NL3G'
p200
g3
(g4
(I0
tS'b'
tRp201
(I1
(I1
I1
tg7
I00
S'\xe5\x1b/%\xa43\xeb\xbf'
tbsS'GTEX-NL3H'
p202
g3
(g4
(I0
tS'b'
tRp203
(I1
(I1
I1
tg7
I00
S'e\x8f\xe1D6\xa5\xfd?'
tbsS'GTEX-139TT'
p204
g3
(g4
(I0
tS'b'
tRp205
(I1
(I1
I1
tg7
I00
S'-o\x99j\x96z\x02\xc0'
tbsS'GTEX-XUYS'
p206
g3
(g4
(I0
tS'b'
tRp207
(I1
(I1
I1
tg7
I00
S'\x8a\xc7\xe0\x08\x9a\xba\x06\xc0'
tbsS'GTEX-P4QT'
p208
g3
(g4
(I0
tS'b'
tRp209
(I1
(I1
I1
tg7
I00
S'\x1f\xef\xd2\xe2\x94\xc6\x01\xc0'
tbsS'GTEX-ZVZP'
p210
g3
(g4
(I0
tS'b'
tRp211
(I1
(I1
I1
tg7
I00
S'U\x15zm(\x16\x02\xc0'
tbsS'GTEX-ZVZQ'
p212
g3
(g4
(I0
tS'b'
tRp213
(I1
(I1
I1
tg7
I00
S'8oF\xa1+m\xe4\xbf'
tbsS'GTEX-P4QS'
p214
g3
(g4
(I0
tS'b'
tRp215
(I1
(I1
I1
tg7
I00
S'\xe0.a*q\x04\x0e\xc0'
tbsS'GTEX-P4QR'
p216
g3
(g4
(I0
tS'b'
tRp217
(I1
(I1
I1
tg7
I00
S'\x18\x9c4\xbe\x14o\x04@'
tbsS'GTEX-13SLW'
p218
g3
(g4
(I0
tS'b'
tRp219
(I1
(I1
I1
tg7
I00
S'\xb6\xbf\x9e\xce\xba)\xe7?'
tbsS'GTEX-13SLX'
p220
g3
(g4
(I0
tS'b'
tRp221
(I1
(I1
I1
tg7
I00
S'[\xec\xa7\x17X\\\x08\xc0'
tbsS'GTEX-13FXS'
p222
g3
(g4
(I0
tS'b'
tRp223
(I1
(I1
I1
tg7
I00
S'\x86\xd0\xa2\xdb\x0e`\xe5?'
tbsS'GTEX-X3Y1'
p224
g3
(g4
(I0
tS'b'
tRp225
(I1
(I1
I1
tg7
I00
S'\xc2\xa3\x95\x98\xa5\xcc\xfd\xbf'
tbsS'GTEX-SE5C'
p226
g3
(g4
(I0
tS'b'
tRp227
(I1
(I1
I1
tg7
I00
S'IM\x90\xcb\xcc\x12\xd5\xbf'
tbsS'GTEX-OHPK'
p228
g3
(g4
(I0
tS'b'
tRp229
(I1
(I1
I1
tg7
I00
S'V\\\xf0k\xa4|\xf7?'
tbsS'GTEX-11UD2'
p230
g3
(g4
(I0
tS'b'
tRp231
(I1
(I1
I1
tg7
I00
S'N\xef\x94\x8c\xf6G\xf6\xbf'
tbsS'GTEX-ZF2S'
p232
g3
(g4
(I0
tS'b'
tRp233
(I1
(I1
I1
tg7
I00
S'j\xf3;\xd2\x1a\xa7\x04\xc0'
tbsS'GTEX-QEL4'
p234
g3
(g4
(I0
tS'b'
tRp235
(I1
(I1
I1
tg7
I00
S'\xdc\xdcZ:4z\xd9\xbf'
tbsS'GTEX-139UW'
p236
g3
(g4
(I0
tS'b'
tRp237
(I1
(I1
I1
tg7
I00
S'@<0\x85\x8b\x11\n\xc0'
tbsS'GTEX-U3ZG'
p238
g3
(g4
(I0
tS'b'
tRp239
(I1
(I1
I1
tg7
I00
S'\xcc\x0e\xf6\xb5^\xb0\x03@'
tbsS'GTEX-U3ZM'
p240
g3
(g4
(I0
tS'b'
tRp241
(I1
(I1
I1
tg7
I00
S'N\xaf#\x14\r\x86\x0b@'
tbsS'GTEX-U3ZN'
p242
g3
(g4
(I0
tS'b'
tRp243
(I1
(I1
I1
tg7
I00
S'~\xd7Rnta\xd9?'
tbsS'GTEX-ZV6S'
p244
g3
(g4
(I0
tS'b'
tRp245
(I1
(I1
I1
tg7
I00
S'\x1a&\x14\xd5\x80d\xd4\xbf'
tbsS'GTEX-U3ZH'
p246
g3
(g4
(I0
tS'b'
tRp247
(I1
(I1
I1
tg7
I00
S'\xec\xcb\x07$\xa3:\xf7?'
tbsS'GTEX-RTLS'
p248
g3
(g4
(I0
tS'b'
tRp249
(I1
(I1
I1
tg7
I00
S'\xd9\xa5\xbf\x98\xdb\xad\xe0\xbf'
tbsS'GTEX-PWCY'
p250
g3
(g4
(I0
tS'b'
tRp251
(I1
(I1
I1
tg7
I00
S'`[\xf2,X0\xff?'
tbsS'GTEX-P44H'
p252
g3
(g4
(I0
tS'b'
tRp253
(I1
(I1
I1
tg7
I00
S'\x17fDw\xdb)\x03\xc0'
tbsS'GTEX-YEC3'
p254
g3
(g4
(I0
tS'b'
tRp255
(I1
(I1
I1
tg7
I00
S'N?\xca\x1d5\x01\x06@'
tbsS'GTEX-12696'
p256
g3
(g4
(I0
tS'b'
tRp257
(I1
(I1
I1
tg7
I00
S'$\x93"vg\xec\xec?'
tbsS'GTEX-XUW1'
p258
g3
(g4
(I0
tS'b'
tRp259
(I1
(I1
I1
tg7
I00
S'\xbc\x8eU\xe3\xcf4\xdf\xbf'
tbsS'GTEX-13JVG'
p260
g3
(g4
(I0
tS'b'
tRp261
(I1
(I1
I1
tg7
I00
S'L\x8c\x11|L\x94\xe1?'
tbsS'GTEX-XBEW'
p262
g3
(g4
(I0
tS'b'
tRp263
(I1
(I1
I1
tg7
I00
S'\x8f\x11\x96\xc4\xe4\xc2\xfc?'
tbsS'GTEX-WK11'
p264
g3
(g4
(I0
tS'b'
tRp265
(I1
(I1
I1
tg7
I00
S'\xa2\xf0\xaf\x1a+\x0f\xfd?'
tbsS'GTEX-XBEC'
p266
g3
(g4
(I0
tS'b'
tRp267
(I1
(I1
I1
tg7
I00
S'\xe4\x9e\xb7\x86\xc1\x9a\xe5\xbf'
tbsS'GTEX-O5YT'
p268
g3
(g4
(I0
tS'b'
tRp269
(I1
(I1
I1
tg7
I00
S'c\x07\xb9\xe0\x96\x9a\xf6\xbf'
tbsS'GTEX-XBED'
p270
g3
(g4
(I0
tS'b'
tRp271
(I1
(I1
I1
tg7
I00
S'\x82\xb5\x85G^\x94\xf6\xbf'
tbsS'GTEX-ZDYS'
p272
g3
(g4
(I0
tS'b'
tRp273
(I1
(I1
I1
tg7
I00
S'\xec[\xc4\x9e\xdaC\x8d?'
tbsS'GTEX-X8HC'
p274
g3
(g4
(I0
tS'b'
tRp275
(I1
(I1
I1
tg7
I00
S'\xd3\x846\x8e\x13@\x08\xc0'
tbsS'GTEX-ZF28'
p276
g3
(g4
(I0
tS'b'
tRp277
(I1
(I1
I1
tg7
I00
S'ej\xf8\x1e\x91R\xff?'
tbsS'GTEX-ZF29'
p278
g3
(g4
(I0
tS'b'
tRp279
(I1
(I1
I1
tg7
I00
S'y\xb8\xba\xb2 \xb7\x11@'
tbsS'GTEX-ZV68'
p280
g3
(g4
(I0
tS'b'
tRp281
(I1
(I1
I1
tg7
I00
S'\n^\x853\xff\xd7%\xc0'
tbsS'GTEX-Y8LW'
p282
g3
(g4
(I0
tS'b'
tRp283
(I1
(I1
I1
tg7
I00
S'\xda\xc6$\xe6\x85\xf4\xf7\xbf'
tbsS'GTEX-13CIG'
p284
g3
(g4
(I0
tS'b'
tRp285
(I1
(I1
I1
tg7
I00
S'\xf2\x8e\x83\x96\xfbB\xe8\xbf'
tbsS'GTEX-13O61'
p286
g3
(g4
(I0
tS'b'
tRp287
(I1
(I1
I1
tg7
I00
S'\x80\xf3GB8\x89\xf1\xbf'
tbsS'GTEX-12WSC'
p288
g3
(g4
(I0
tS'b'
tRp289
(I1
(I1
I1
tg7
I00
S'\xfed"G\x8e-\xca\xbf'
tbsS'GTEX-12WSA'
p290
g3
(g4
(I0
tS'b'
tRp291
(I1
(I1
I1
tg7
I00
S'\x94\xc6\xd2\n\t\x81\xb7\xbf'
tbsS'GTEX-12WSF'
p292
g3
(g4
(I0
tS'b'
tRp293
(I1
(I1
I1
tg7
I00
S'\xf3X\xdb\x9a\xfef\xed?'
tbsS'GTEX-12WSG'
p294
g3
(g4
(I0
tS'b'
tRp295
(I1
(I1
I1
tg7
I00
S'e6P\xa3^@\xe6\xbf'
tbsS'GTEX-12WSD'
p296
g3
(g4
(I0
tS'b'
tRp297
(I1
(I1
I1
tg7
I00
S'\x08\xd3\x198\x8f\x1c\xcf\xbf'
tbsS'GTEX-12WSE'
p298
g3
(g4
(I0
tS'b'
tRp299
(I1
(I1
I1
tg7
I00
S'\x99\xedD\xf2R\x8c\x12@'
tbsS'GTEX-12WSJ'
p300
g3
(g4
(I0
tS'b'
tRp301
(I1
(I1
I1
tg7
I00
S'\xdd"\xact\xb7M\xf0?'
tbsS'GTEX-12WSK'
p302
g3
(g4
(I0
tS'b'
tRp303
(I1
(I1
I1
tg7
I00
S'\xb1"\x8c\x1b\x1c\xce\xc7\xbf'
tbsS'GTEX-12WSH'
p304
g3
(g4
(I0
tS'b'
tRp305
(I1
(I1
I1
tg7
I00
S'\x8a\xbe\x07\xbc\xe6\x8b\xf3?'
tbsS'GTEX-12WSI'
p306
g3
(g4
(I0
tS'b'
tRp307
(I1
(I1
I1
tg7
I00
S'*t\xf8l2\r\x05\xc0'
tbsS'GTEX-12WSN'
p308
g3
(g4
(I0
tS'b'
tRp309
(I1
(I1
I1
tg7
I00
S'N\xd9\xbf"\xdbu\x00@'
tbsS'GTEX-12WSL'
p310
g3
(g4
(I0
tS'b'
tRp311
(I1
(I1
I1
tg7
I00
S"\x86\xe3'Yb\xc0\x05\xc0"
tbsS'GTEX-12WSM'
p312
g3
(g4
(I0
tS'b'
tRp313
(I1
(I1
I1
tg7
I00
S'\x01\x1b\x05[\xf4g\xf2\xbf'
tbsS'GTEX-13N2G'
p314
g3
(g4
(I0
tS'b'
tRp315
(I1
(I1
I1
tg7
I00
S'\xbc\x18\xd1\x87\x954\xd8?'
tbsS'GTEX-X15G'
p316
g3
(g4
(I0
tS'b'
tRp317
(I1
(I1
I1
tg7
I00
S'l\xd5\t\xf2m\xb5\xf1?'
tbsS'GTEX-YF7O'
p318
g3
(g4
(I0
tS'b'
tRp319
(I1
(I1
I1
tg7
I00
S'E3\xe1\x87\x8d\xb5\xd7\xbf'
tbsS'GTEX-S4P3'
p320
g3
(g4
(I0
tS'b'
tRp321
(I1
(I1
I1
tg7
I00
S'WC\xc0\xc4^m\xd7\xbf'
tbsS'GTEX-X4LF'
p322
g3
(g4
(I0
tS'b'
tRp323
(I1
(I1
I1
tg7
I00
S'\xad\xbe;\xed9U\xf1?'
tbsS'GTEX-ZE7O'
p324
g3
(g4
(I0
tS'b'
tRp325
(I1
(I1
I1
tg7
I00
S'\xb7\xb5\\\xc9\xd4\xe8\n@'
tbsS'GTEX-11GS4'
p326
g3
(g4
(I0
tS'b'
tRp327
(I1
(I1
I1
tg7
I00
S' #\x89M\x16\x82\xee\xbf'
tbsS'GTEX-ZQUD'
p328
g3
(g4
(I0
tS'b'
tRp329
(I1
(I1
I1
tg7
I00
S'\xe2\xc2\xde\xc08n\xe1\xbf'
tbsS'GTEX-ZQG8'
p330
g3
(g4
(I0
tS'b'
tRp331
(I1
(I1
I1
tg7
I00
S'K\x00\xca|\x8e\xae\xff?'
tbsS'GTEX-ZVZO'
p332
g3
(g4
(I0
tS'b'
tRp333
(I1
(I1
I1
tg7
I00
S'[\xe5O\xff2\xce\xe9?'
tbsS'GTEX-WFG7'
p334
g3
(g4
(I0
tS'b'
tRp335
(I1
(I1
I1
tg7
I00
S'l\xe3\xc8#V\x1b\xda?'
tbsS'GTEX-WFG8'
p336
g3
(g4
(I0
tS'b'
tRp337
(I1
(I1
I1
tg7
I00
S'/{(\x85\xaf\xac\xef?'
tbsS'GTEX-RU72'
p338
g3
(g4
(I0
tS'b'
tRp339
(I1
(I1
I1
tg7
I00
S'%ZY\x85\xa6\x03\xe0\xbf'
tbsS'GTEX-13W46'
p340
g3
(g4
(I0
tS'b'
tRp341
(I1
(I1
I1
tg7
I00
S'\x93!\x1d\xd7\xf4\xa0\xf2\xbf'
tbsS'GTEX-UPJH'
p342
g3
(g4
(I0
tS'b'
tRp343
(I1
(I1
I1
tg7
I00
S'|\xea\x88VB\xb1\x05\xc0'
tbsS'GTEX-PW2O'
p344
g3
(g4
(I0
tS'b'
tRp345
(I1
(I1
I1
tg7
I00
S'\xdeP!\xba.j\xd2?'
tbsS'GTEX-T8EM'
p346
g3
(g4
(I0
tS'b'
tRp347
(I1
(I1
I1
tg7
I00
S'1B\xf2\x02\x80\x83\xd1?'
tbsS'GTEX-XQ3S'
p348
g3
(g4
(I0
tS'b'
tRp349
(I1
(I1
I1
tg7
I00
S'\xaa\xf9\x87\xdb\xaf\x05\x03@'
tbsS'GTEX-ZPCL'
p350
g3
(g4
(I0
tS'b'
tRp351
(I1
(I1
I1
tg7
I00
S'\x1a=\x9fZ\xd1<\xec?'
tbsS'GTEX-11ONC'
p352
g3
(g4
(I0
tS'b'
tRp353
(I1
(I1
I1
tg7
I00
S'b\x8d8\x8c\xe1+\x0f\xc0'
tbsS'GTEX-QV44'
p354
g3
(g4
(I0
tS'b'
tRp355
(I1
(I1
I1
tg7
I00
S'\xa1\xa2\xa1\xda\xabq\xf4?'
tbsS'GTEX-WHPG'
p356
g3
(g4
(I0
tS'b'
tRp357
(I1
(I1
I1
tg7
I00
S'=\xbb]\xf0FM\xdf\xbf'
tbsS'GTEX-T6MO'
p358
g3
(g4
(I0
tS'b'
tRp359
(I1
(I1
I1
tg7
I00
S'Zr\x11\xc4w\xc8\xf7\xbf'
tbsS'GTEX-T6MN'
p360
g3
(g4
(I0
tS'b'
tRp361
(I1
(I1
I1
tg7
I00
S'Cz\xe4\x06+=\xfd?'
tbsS'GTEX-XXEK'
p362
g3
(g4
(I0
tS'b'
tRp363
(I1
(I1
I1
tg7
I00
S'\xbb^[\x07\xf8\xfd\xf1\xbf'
tbsS'GTEX-ZTTD'
p364
g3
(g4
(I0
tS'b'
tRp365
(I1
(I1
I1
tg7
I00
S'\xe7\xe4\xee.Y\t\x11\xc0'
tbsS'GTEX-ZUA1'
p366
g3
(g4
(I0
tS'b'
tRp367
(I1
(I1
I1
tg7
I00
S'\x02\tN\xa90\x8e\x02\xc0'
tbsS'GTEX-QEG4'
p368
g3
(g4
(I0
tS'b'
tRp369
(I1
(I1
I1
tg7
I00
S'b\x02\xba\xcf\x86.\xe0?'
tbsS'GTEX-13OVL'
p370
g3
(g4
(I0
tS'b'
tRp371
(I1
(I1
I1
tg7
I00
S'B@\xc2I\xec\xce\xde\xbf'
tbsS'GTEX-13OVJ'
p372
g3
(g4
(I0
tS'b'
tRp373
(I1
(I1
I1
tg7
I00
S'V\x0f-\xf2\xbc\x7f\x10@'
tbsS'GTEX-13OVH'
p374
g3
(g4
(I0
tS'b'
tRp375
(I1
(I1
I1
tg7
I00
S'ix\t\xd9\xba\x1d\x07@'
tbsS'GTEX-13OVI'
p376
g3
(g4
(I0
tS'b'
tRp377
(I1
(I1
I1
tg7
I00
S'\xc2i\xf2kT@\xe2?'
tbsS'GTEX-13OVG'
p378
g3
(g4
(I0
tS'b'
tRp379
(I1
(I1
I1
tg7
I00
S'B\x80\x82\x136v\x12\xc0'
tbsS'GTEX-113IC'
p380
g3
(g4
(I0
tS'b'
tRp381
(I1
(I1
I1
tg7
I00
S'\x01\xb2\xa01W\xcb\x11\xc0'
tbsS'GTEX-XLM4'
p382
g3
(g4
(I0
tS'b'
tRp383
(I1
(I1
I1
tg7
I00
S'\x91\xc7]l1\x0b\x0e@'
tbsS'GTEX-13JUV'
p384
g3
(g4
(I0
tS'b'
tRp385
(I1
(I1
I1
tg7
I00
S"\x95$\x06\xeb'p\x08\xc0"
tbsS'GTEX-PLZ5'
p386
g3
(g4
(I0
tS'b'
tRp387
(I1
(I1
I1
tg7
I00
S'"\xdd\xe2\xc1\xa7\xe9\xf0?'
tbsS'GTEX-PLZ6'
p388
g3
(g4
(I0
tS'b'
tRp389
(I1
(I1
I1
tg7
I00
S'w\x8d\x90/N\x19\x05@'
tbsS'GTEX-ZZPT'
p390
g3
(g4
(I0
tS'b'
tRp391
(I1
(I1
I1
tg7
I00
S'q\x93i\xe5\x86A\xf0?'
tbsS'GTEX-ZZPU'
p392
g3
(g4
(I0
tS'b'
tRp393
(I1
(I1
I1
tg7
I00
S'\xc0\xaf\xb8\xde\xf4`\x85?'
tbsS'GTEX-ZXES'
p394
g3
(g4
(I0
tS'b'
tRp395
(I1
(I1
I1
tg7
I00
S"\x8b\xe01'\xf40\xe2\xbf"
tbsS'GTEX-TSE9'
p396
g3
(g4
(I0
tS'b'
tRp397
(I1
(I1
I1
tg7
I00
S'\xc9\x15\xb63\x90l\xf7?'
tbsS'GTEX-ZC5H'
p398
g3
(g4
(I0
tS'b'
tRp399
(I1
(I1
I1
tg7
I00
S'3h\xa7*\xc4\xbf\t@'
tbsS'GTEX-QDVN'
p400
g3
(g4
(I0
tS'b'
tRp401
(I1
(I1
I1
tg7
I00
S'"Gi6[X\xda\xbf'
tbsS'GTEX-QDVJ'
p402
g3
(g4
(I0
tS'b'
tRp403
(I1
(I1
I1
tg7
I00
S'\x8dhL6\xe3\xd5\x00@'
tbsS'GTEX-P4PP'
p404
g3
(g4
(I0
tS'b'
tRp405
(I1
(I1
I1
tg7
I00
S't\xdbz\xe6\x86q\xea?'
tbsS'GTEX-P4PQ'
p406
g3
(g4
(I0
tS'b'
tRp407
(I1
(I1
I1
tg7
I00
S'\x8c\xfa\x03\x17;\t\xe9?'
tbsS'GTEX-S4UY'
p408
g3
(g4
(I0
tS'b'
tRp409
(I1
(I1
I1
tg7
I00
S'\xc6\x80D*\x83V\x04\xc0'
tbsS'GTEX-S341'
p410
g3
(g4
(I0
tS'b'
tRp411
(I1
(I1
I1
tg7
I00
S'~X\xe6\xae\xc8\x96\xef?'
tbsS'GTEX-11UD1'
p412
g3
(g4
(I0
tS'b'
tRp413
(I1
(I1
I1
tg7
I00
S'\xee\xfe\x8f\xdc\x95\xc2\x0b\xc0'
tbsS'GTEX-13FHO'
p414
g3
(g4
(I0
tS'b'
tRp415
(I1
(I1
I1
tg7
I00
S'\xe6NDL\xb0\xe5\x01@'
tbsS'GTEX-13O3O'
p416
g3
(g4
(I0
tS'b'
tRp417
(I1
(I1
I1
tg7
I00
S'r0\xac\xa2\x9dG\xe9\xbf'
tbsS'GTEX-13O3Q'
p418
g3
(g4
(I0
tS'b'
tRp419
(I1
(I1
I1
tg7
I00
S"\x0f\xd4g\x80\xf2'\xf0?"
tbsS'GTEX-13O3P'
p420
g3
(g4
(I0
tS'b'
tRp421
(I1
(I1
I1
tg7
I00
S'\xa5\xe4\xb9\xd0(U\xf0\xbf'
tbsS'GTEX-ZYWO'
p422
g3
(g4
(I0
tS'b'
tRp423
(I1
(I1
I1
tg7
I00
S'z\xa4\x8d\xf2f\x7f\xfd?'
tbsS'GTEX-X638'
p424
g3
(g4
(I0
tS'b'
tRp425
(I1
(I1
I1
tg7
I00
S'S~\x98\xae\xea\x0b\x06@'
tbsS'GTEX-13111'
p426
g3
(g4
(I0
tS'b'
tRp427
(I1
(I1
I1
tg7
I00
S'8l\xfc\x8a\x9f\x87\xf1?'
tbsS'GTEX-13113'
p428
g3
(g4
(I0
tS'b'
tRp429
(I1
(I1
I1
tg7
I00
S'\xcc\x19\xc1\x88\xa9_\xec\xbf'
tbsS'GTEX-13112'
p430
g3
(g4
(I0
tS'b'
tRp431
(I1
(I1
I1
tg7
I00
S'\xe3e\xa0\x12\x0cx\x06@'
tbsS'GTEX-PWOO'
p432
g3
(g4
(I0
tS'b'
tRp433
(I1
(I1
I1
tg7
I00
S'\xbf"\xd4\xb4\xfb\xb5\xe1?'
tbsS'GTEX-ZT9W'
p434
g3
(g4
(I0
tS'b'
tRp435
(I1
(I1
I1
tg7
I00
S'\x81\xbd\x8c\x86c\r\xd7?'
tbsS'GTEX-ZT9X'
p436
g3
(g4
(I0
tS'b'
tRp437
(I1
(I1
I1
tg7
I00
S'\x19\xd29\x12L\xb3\x08\xc0'
tbsS'GTEX-RNOR'
p438
g3
(g4
(I0
tS'b'
tRp439
(I1
(I1
I1
tg7
I00
S'/\xd9\xecmL\xcc\xbd?'
tbsS'GTEX-REY6'
p440
g3
(g4
(I0
tS'b'
tRp441
(I1
(I1
I1
tg7
I00
S'\x8d\xbe\x00\xb4\xect\xf5?'
tbsS'GTEX-111CU'
p442
g3
(g4
(I0
tS'b'
tRp443
(I1
(I1
I1
tg7
I00
S'W\x18\x1br7\x1d\xde\xbf'
tbsS'GTEX-XGQ4'
p444
g3
(g4
(I0
tS'b'
tRp445
(I1
(I1
I1
tg7
I00
S'\x83\xe3+\x1f\x9f\xd0\n\xc0'
tbsS'GTEX-WFJO'
p446
g3
(g4
(I0
tS'b'
tRp447
(I1
(I1
I1
tg7
I00
S'\x17\xaf\xd1j\x1ba\x06@'
tbsS'GTEX-VUSH'
p448
g3
(g4
(I0
tS'b'
tRp449
(I1
(I1
I1
tg7
I00
S'\x8a\xd9~\xc0\xd6\x96\x1b@'
tbsS'GTEX-Y3IK'
p450
g3
(g4
(I0
tS'b'
tRp451
(I1
(I1
I1
tg7
I00
S'\xf9\xfa\r\xd5\x1b\xaa\xd5?'
tbsS'GTEX-XPT6'
p452
g3
(g4
(I0
tS'b'
tRp453
(I1
(I1
I1
tg7
I00
S'z\xc8u\xfc\xc2\x9a\xf8?'
tbsS'GTEX-VUSG'
p454
g3
(g4
(I0
tS'b'
tRp455
(I1
(I1
I1
tg7
I00
S't\xec\x1c\xafK\t\xfc?'
tbsS'GTEX-TKQ2'
p456
g3
(g4
(I0
tS'b'
tRp457
(I1
(I1
I1
tg7
I00
S'fQ\xd7\x08\xb7\xde\xe0?'
tbsS'GTEX-11NV4'
p458
g3
(g4
(I0
tS'b'
tRp459
(I1
(I1
I1
tg7
I00
S'}\xa4h\xd3B\\\xf2\xbf'
tbsS'GTEX-Y8DK'
p460
g3
(g4
(I0
tS'b'
tRp461
(I1
(I1
I1
tg7
I00
S'\xd9\xec\x17\xf85\x9c\xf5?'
tbsS'GTEX-TKQ1'
p462
g3
(g4
(I0
tS'b'
tRp463
(I1
(I1
I1
tg7
I00
S'\x15i\\\x17\xb1c\xf2\xbf'
tbsS'GTEX-YECK'
p464
g3
(g4
(I0
tS'b'
tRp465
(I1
(I1
I1
tg7
I00
S'|]\xe6\x05\x19<\t\xc0'
tbsS'GTEX-13G51'
p466
g3
(g4
(I0
tS'b'
tRp467
(I1
(I1
I1
tg7
I00
S'\xc5N\xf4\x8cX\x82\x08\xc0'
tbsS'GTEX-ZLV1'
p468
g3
(g4
(I0
tS'b'
tRp469
(I1
(I1
I1
tg7
I00
S'd\xe1\x9c9R\xcf\xe2\xbf'
tbsS'GTEX-13QJ3'
p470
g3
(g4
(I0
tS'b'
tRp471
(I1
(I1
I1
tg7
I00
S'\x00\x90\x0bl\x84\xae\x91?'
tbsS'GTEX-T2IS'
p472
g3
(g4
(I0
tS'b'
tRp473
(I1
(I1
I1
tg7
I00
S'\x10x\xe1*\xe9r\r@'
tbsS'GTEX-ZDXO'
p474
g3
(g4
(I0
tS'b'
tRp475
(I1
(I1
I1
tg7
I00
S'p\xe5Ga\x05\xe5\xf3?'
tbsS'GTEX-WY7C'
p476
g3
(g4
(I0
tS'b'
tRp477
(I1
(I1
I1
tg7
I00
S'\xc0\x0f\xec\x0b"\x05\xf3?'
tbsS'GTEX-PLZ4'
p478
g3
(g4
(I0
tS'b'
tRp479
(I1
(I1
I1
tg7
I00
S"'\x14:-\x1cw\xd9\xbf"
tbsS'GTEX-13QJC'
p480
g3
(g4
(I0
tS'b'
tRp481
(I1
(I1
I1
tg7
I00
S'\xfa\xb2\x06\xcb\xf6\x88\xfc?'
tbsS'GTEX-11WQC'
p482
g3
(g4
(I0
tS'b'
tRp483
(I1
(I1
I1
tg7
I00
S'\xe7\x98\x1f/\x8a\xc0\xef\xbf'
tbsS'GTEX-YEC4'
p484
g3
(g4
(I0
tS'b'
tRp485
(I1
(I1
I1
tg7
I00
S'\xf3\r\xcf\xbe\xa9=\xc5?'
tbsS'GTEX-ZTPG'
p486
g3
(g4
(I0
tS'b'
tRp487
(I1
(I1
I1
tg7
I00
S'~\xfe\xfa\\{\xea\xe1?'
tbsS'GTEX-11WQK'
p488
g3
(g4
(I0
tS'b'
tRp489
(I1
(I1
I1
tg7
I00
S'+\xed\x8f\r\xdc\xcc\x08@'
tbsS'GTEX-T5JW'
p490
g3
(g4
(I0
tS'b'
tRp491
(I1
(I1
I1
tg7
I00
S'v\x13\xea$\x85~\xfb\xbf'
tbsS'GTEX-R53T'
p492
g3
(g4
(I0
tS'b'
tRp493
(I1
(I1
I1
tg7
I00
S'\xdd\xa4\x17\xfd\x80\xf8\xf1\xbf'
tbsS'GTEX-WQUQ'
p494
g3
(g4
(I0
tS'b'
tRp495
(I1
(I1
I1
tg7
I00
S'\x83\xa9\xc0\xd8j\xd3\xf3?'
tbsS'GTEX-111VG'
p496
g3
(g4
(I0
tS'b'
tRp497
(I1
(I1
I1
tg7
I00
S'\xf8\xa8s\xbe|\x92\xf0\xbf'
tbsS'GTEX-NFK9'
p498
g3
(g4
(I0
tS'b'
tRp499
(I1
(I1
I1
tg7
I00
S'^v\xc03\x86\xaf\xf3?'
tbsS'GTEX-T5JC'
p500
g3
(g4
(I0
tS'b'
tRp501
(I1
(I1
I1
tg7
I00
S'\xf4\x1cs\xcb\xad"\xce?'
tbsS'GTEX-RVPV'
p502
g3
(g4
(I0
tS'b'
tRp503
(I1
(I1
I1
tg7
I00
S'\x00`\x0b\xfb\x1e\xf9\xa1\xbf'
tbsS'GTEX-RVPU'
p504
g3
(g4
(I0
tS'b'
tRp505
(I1
(I1
I1
tg7
I00
S'&F\xa1\x17/\xa3\xfb\xbf'
tbsS'GTEX-UTHO'
p506
g3
(g4
(I0
tS'b'
tRp507
(I1
(I1
I1
tg7
I00
S"\xa6{\xc8g\xe1'\x19@"
tbsS'GTEX-11LCK'
p508
g3
(g4
(I0
tS'b'
tRp509
(I1
(I1
I1
tg7
I00
S'\x89\xbb\xd0\xfb\x03\x8e\xd4?'
tbsS'GTEX-X88G'
p510
g3
(g4
(I0
tS'b'
tRp511
(I1
(I1
I1
tg7
I00
S"\xc2\x8f\x1c\xd8'\x7f\x08\xc0"
tbsS'GTEX-QLQW'
p512
g3
(g4
(I0
tS'b'
tRp513
(I1
(I1
I1
tg7
I00
S'\xf3\x7f\xe2c\xcb\x89\xd3\xbf'
tbsS'GTEX-13PL7'
p514
g3
(g4
(I0
tS'b'
tRp515
(I1
(I1
I1
tg7
I00
S'\x91]\rFsV\xf9\xbf'
tbsS'GTEX-13PL6'
p516
g3
(g4
(I0
tS'b'
tRp517
(I1
(I1
I1
tg7
I00
S'\x1be\xf6\xb2?\x81\xeb?'
tbsS'GTEX-11ZUS'
p518
g3
(g4
(I0
tS'b'
tRp519
(I1
(I1
I1
tg7
I00
S'\xa5\xbf;\xef~\xfc\xfc\xbf'
tbsS'GTEX-WFON'
p520
g3
(g4
(I0
tS'b'
tRp521
(I1
(I1
I1
tg7
I00
S'\xfcnK\x0f\xb3\xa2\xfa?'
tbsS'GTEX-QVUS'
p522
g3
(g4
(I0
tS'b'
tRp523
(I1
(I1
I1
tg7
I00
S'\x08\xbd\xba)\xcdy\xf8?'
tbsS'GTEX-U8T8'
p524
g3
(g4
(I0
tS'b'
tRp525
(I1
(I1
I1
tg7
I00
S'R\xbfD\x1f\x00\x8a\xdb?'
tbsS'GTEX-YFCO'
p526
g3
(g4
(I0
tS'b'
tRp527
(I1
(I1
I1
tg7
I00
S'\xcf\x1d\xf2U\x12\x1f\x07\xc0'
tbsS'GTEX-P78B'
p528
g3
(g4
(I0
tS'b'
tRp529
(I1
(I1
I1
tg7
I00
S'\xe3q\xe7\xd3\x0ca\xd0?'
tbsS'GTEX-YFC4'
p530
g3
(g4
(I0
tS'b'
tRp531
(I1
(I1
I1
tg7
I00
S'\xa3\xdaL\xca\xde`\xf8?'
tbsS'GTEX-11ZTT'
p532
g3
(g4
(I0
tS'b'
tRp533
(I1
(I1
I1
tg7
I00
S'kC\x8b\x07S{\xf3\xbf'
tbsS'GTEX-11ZTS'
p534
g3
(g4
(I0
tS'b'
tRp535
(I1
(I1
I1
tg7
I00
S'\x02\xfb\x99\xa7\xc6\xa3\xfb?'
tbsS'GTEX-13PLJ'
p536
g3
(g4
(I0
tS'b'
tRp537
(I1
(I1
I1
tg7
I00
S'\xb9\xef4\xda-1\x02\xc0'
tbsS'GTEX-ZA64'
p538
g3
(g4
(I0
tS'b'
tRp539
(I1
(I1
I1
tg7
I00
S'\x8c\x8a\xaa5\xc9\x9d\xe5?'
tbsS'GTEX-TML8'
p540
g3
(g4
(I0
tS'b'
tRp541
(I1
(I1
I1
tg7
I00
S'\x7fO\x84\xcf\xff\xca\xf3?'
tbsS'GTEX-OOBJ'
p542
g3
(g4
(I0
tS'b'
tRp543
(I1
(I1
I1
tg7
I00
S'c\x03\xc83\xa6\xe5\xeb?'
tbsS'GTEX-OOBK'
p544
g3
(g4
(I0
tS'b'
tRp545
(I1
(I1
I1
tg7
I00
S'w\xbe\xb0^m\x99\xf5\xbf'
tbsS'GTEX-S4Q7'
p546
g3
(g4
(I0
tS'b'
tRp547
(I1
(I1
I1
tg7
I00
S'\x95\xb1y\n\x9b\xc3\xe6\xbf'
tbsS'GTEX-13FLW'
p548
g3
(g4
(I0
tS'b'
tRp549
(I1
(I1
I1
tg7
I00
S'\xf8\x07P\x16\\#\xdd\xbf'
tbsS'GTEX-13FLV'
p550
g3
(g4
(I0
tS'b'
tRp551
(I1
(I1
I1
tg7
I00
S'\xedR\xea\x97\xf3\xb8\xf7?'
tbsS'GTEX-QLQ7'
p552
g3
(g4
(I0
tS'b'
tRp553
(I1
(I1
I1
tg7
I00
S'0\xae\xcaAC\xc5\xdb\xbf'
tbsS'GTEX-RN64'
p554
g3
(g4
(I0
tS'b'
tRp555
(I1
(I1
I1
tg7
I00
S'\xa9\x07mMO\xc6\x11\xc0'
tbsS'GTEX-13N11'
p556
g3
(g4
(I0
tS'b'
tRp557
(I1
(I1
I1
tg7
I00
S'>\xcc\xfaN\x03\xc9\xed\xbf'
tbsS'GTEX-ZYT6'
p558
g3
(g4
(I0
tS'b'
tRp559
(I1
(I1
I1
tg7
I00
S'\x88\xa8WM\x02\x16\xcd\xbf'
tbsS'GTEX-11XUK'
p560
g3
(g4
(I0
tS'b'
tRp561
(I1
(I1
I1
tg7
I00
S'\xfa\xcb6\xe6\x8db\x03@'
tbsS'GTEX-ZTSS'
p562
g3
(g4
(I0
tS'b'
tRp563
(I1
(I1
I1
tg7
I00
S'\x06\x0b\x16\x10\x9d\n\x04\xc0'
tbsS'GTEX-1117F'
p564
g3
(g4
(I0
tS'b'
tRp565
(I1
(I1
I1
tg7
I00
S'\x04\xb1\xad\x1c\x11\x16\x00@'
tbsS'GTEX-113JC'
p566
g3
(g4
(I0
tS'b'
tRp567
(I1
(I1
I1
tg7
I00
S'\xd5oJW\xd3\x16\xdf\xbf'
tbsS'GTEX-Z9EW'
p568
g3
(g4
(I0
tS'b'
tRp569
(I1
(I1
I1
tg7
I00
S'l\xbb\x8af1\xde\x10\xc0'
tbsS'GTEX-ZPU1'
p570
g3
(g4
(I0
tS'b'
tRp571
(I1
(I1
I1
tg7
I00
S'[\x16\xa3\x884\x04\xea?'
tbsS'GTEX-XUJ4'
p572
g3
(g4
(I0
tS'b'
tRp573
(I1
(I1
I1
tg7
I00
S'\xf4\xb4$\xb9\t\x01\xf8\xbf'
tbsS'GTEX-11DZ1'
p574
g3
(g4
(I0
tS'b'
tRp575
(I1
(I1
I1
tg7
I00
S'\xc7\x03\xca\xbbL\x18\xfc?'
tbsS'GTEX-R3RS'
p576
g3
(g4
(I0
tS'b'
tRp577
(I1
(I1
I1
tg7
I00
S'\x12\tH\xbc\x8a\xf1\x01\xc0'
tbsS'GTEX-13NZ8'
p578
g3
(g4
(I0
tS'b'
tRp579
(I1
(I1
I1
tg7
I00
S'\x0e\x93fb\xd4\xbd\x05@'
tbsS'GTEX-QMR6'
p580
g3
(g4
(I0
tS'b'
tRp581
(I1
(I1
I1
tg7
I00
S'\xe3\xde\\]\xcd\xa3\x06\xc0'
tbsS'GTEX-WRHU'
p582
g3
(g4
(I0
tS'b'
tRp583
(I1
(I1
I1
tg7
I00
S'\x0b4\xa38\xd8=\xbb?'
tbsS'GTEX-WCDI'
p584
g3
(g4
(I0
tS'b'
tRp585
(I1
(I1
I1
tg7
I00
S'\xfc\xa8hbF`\x1c\xc0'
tbsS'GTEX-QMRM'
p586
g3
(g4
(I0
tS'b'
tRp587
(I1
(I1
I1
tg7
I00
S'L\xd3\xb1\xf4\xcb\xec\xda\xbf'
tbsS'GTEX-13S86'
p588
g3
(g4
(I0
tS'b'
tRp589
(I1
(I1
I1
tg7
I00
S'\xc6\xff\xd1\xe52@\x07@'
tbsS'GTEX-13NZB'
p590
g3
(g4
(I0
tS'b'
tRp591
(I1
(I1
I1
tg7
I00
S'\x98\x14<\xe3z\x89\x05@'
tbsS'GTEX-13NZA'
p592
g3
(g4
(I0
tS'b'
tRp593
(I1
(I1
I1
tg7
I00
S'A\x8c>\xd9\x01\x86\xea\xbf'
tbsS'GTEX-13OW8'
p594
g3
(g4
(I0
tS'b'
tRp595
(I1
(I1
I1
tg7
I00
S'\x15\xcc\xe6\xc5\x15\x1e\x03@'
tbsS'GTEX-13OW5'
p596
g3
(g4
(I0
tS'b'
tRp597
(I1
(I1
I1
tg7
I00
S':@\xab\x12\xe4\xac\xf3\xbf'
tbsS'GTEX-13OW7'
p598
g3
(g4
(I0
tS'b'
tRp599
(I1
(I1
I1
tg7
I00
S'\xe7\xfdH\x8d\x94D\n\xc0'
tbsS'GTEX-13OW6'
p600
g3
(g4
(I0
tS'b'
tRp601
(I1
(I1
I1
tg7
I00
S'E\xe1\x82\x95\xb0\xbb\x00\xc0'
tbsS'GTEX-U4B1'
p602
g3
(g4
(I0
tS'b'
tRp603
(I1
(I1
I1
tg7
I00
S'\x10U\xe3q|\xbb\xf1?'
tbsS'GTEX-11P81'
p604
g3
(g4
(I0
tS'b'
tRp605
(I1
(I1
I1
tg7
I00
S'\xf0cj\x16b\xb4\x03@'
tbsS'GTEX-11P82'
p606
g3
(g4
(I0
tS'b'
tRp607
(I1
(I1
I1
tg7
I00
S'M\xbd\xe8\xdf]\xdb\xfa\xbf'
tbsS'GTEX-117YW'
p608
g3
(g4
(I0
tS'b'
tRp609
(I1
(I1
I1
tg7
I00
S'\x0b^\xd3\x9e\x16\xc9\xf3\xbf'
tbsS'GTEX-12KS4'
p610
g3
(g4
(I0
tS'b'
tRp611
(I1
(I1
I1
tg7
I00
S'\x808\xf4\xcf\t\xff\xd9?'
tbsS'GTEX-X62O'
p612
g3
(g4
(I0
tS'b'
tRp613
(I1
(I1
I1
tg7
I00
S'\xd7Q\xca\xb1\xd3\t\xef\xbf'
tbsS'GTEX-13FH7'
p614
g3
(g4
(I0
tS'b'
tRp615
(I1
(I1
I1
tg7
I00
S'\x00\x8bY\xecC}\x9b?'
tbsS'GTEX-ZPIC'
p616
g3
(g4
(I0
tS'b'
tRp617
(I1
(I1
I1
tg7
I00
S'\xd2-\xde\r\xd8\x8e\xf1\xbf'
tbsS'GTEX-117XS'
p618
g3
(g4
(I0
tS'b'
tRp619
(I1
(I1
I1
tg7
I00
S'U\x81p\x86\x9d\x89\xf4?'
tbsS'GTEX-XOT4'
p620
g3
(g4
(I0
tS'b'
tRp621
(I1
(I1
I1
tg7
I00
S'\x8d\xbfG\xb6j@\xf9\xbf'
tbsS'GTEX-12584'
p622
g3
(g4
(I0
tS'b'
tRp623
(I1
(I1
I1
tg7
I00
S'RL\xfcM\xeb\x9a\xf0?'
tbsS'GTEX-Y114'
p624
g3
(g4
(I0
tS'b'
tRp625
(I1
(I1
I1
tg7
I00
S'\xaf\xdc0\xbb\xd1k\xec?'
tbsS'GTEX-S33H'
p626
g3
(g4
(I0
tS'b'
tRp627
(I1
(I1
I1
tg7
I00
S'\x17\x14\x7f\xb7\xf9\x88\xe1?'
tbsS'GTEX-Y111'
p628
g3
(g4
(I0
tS'b'
tRp629
(I1
(I1
I1
tg7
I00
S'\x7f\xe8<z\xc6\xbb\x00\xc0'
tbsS'GTEX-ZYFC'
p630
g3
(g4
(I0
tS'b'
tRp631
(I1
(I1
I1
tg7
I00
S'\x11>H_\xa2{\xe7?'
tbsS'GTEX-ZYFG'
p632
g3
(g4
(I0
tS'b'
tRp633
(I1
(I1
I1
tg7
I00
S'\x99\xbb\xf89\xe7h\xc8\xbf'
tbsS'GTEX-OHPN'
p634
g3
(g4
(I0
tS'b'
tRp635
(I1
(I1
I1
tg7
I00
S'VNm\xbc\xa3`\xe5?'
tbsS'GTEX-OHPM'
p636
g3
(g4
(I0
tS'b'
tRp637
(I1
(I1
I1
tg7
I00
S"-\xae\x03'G\xa4\xf0?"
tbsS'GTEX-ZYFD'
p638
g3
(g4
(I0
tS'b'
tRp639
(I1
(I1
I1
tg7
I00
S'\x8e\xf8\x8c(\x08\x8b\xdf?'
tbsS'GTEX-Z93S'
p640
g3
(g4
(I0
tS'b'
tRp641
(I1
(I1
I1
tg7
I00
S'\x0c|\xe1\x14\xa8\xd0\x06\xc0'
tbsS'GTEX-Z93T'
p642
g3
(g4
(I0
tS'b'
tRp643
(I1
(I1
I1
tg7
I00
S'\xb0\xe5\xbd\xaa\xee&\xf3?'
tbsS'GTEX-UPK5'
p644
g3
(g4
(I0
tS'b'
tRp645
(I1
(I1
I1
tg7
I00
S'\x10\xe3\x9fUf(\x01\xc0'
tbsS'GTEX-13U4I'
p646
g3
(g4
(I0
tS'b'
tRp647
(I1
(I1
I1
tg7
I00
S'gj\xc8R\xe44\xed\xbf'
tbsS'GTEX-Y5LM'
p648
g3
(g4
(I0
tS'b'
tRp649
(I1
(I1
I1
tg7
I00
S'\xday\xa6]\xce\xfa\xdc?'
tbsS'GTEX-QESD'
p650
g3
(g4
(I0
tS'b'
tRp651
(I1
(I1
I1
tg7
I00
S'\xee\xf5wV\xa4_\x13@'
tbsS'GTEX-UJHI'
p652
g3
(g4
(I0
tS'b'
tRp653
(I1
(I1
I1
tg7
I00
S'\x9f\x9b\x91my+\x0e\xc0'
tbsS'GTEX-S3XE'
p654
g3
(g4
(I0
tS'b'
tRp655
(I1
(I1
I1
tg7
I00
S'\xd9\xb35.\xe1\xf2\xe8\xbf'
tbsS'GTEX-11EQ9'
p656
g3
(g4
(I0
tS'b'
tRp657
(I1
(I1
I1
tg7
I00
S'\x9c\xdd\x18\xd6\x81t\xe7\xbf'
tbsS'GTEX-11EQ8'
p658
g3
(g4
(I0
tS'b'
tRp659
(I1
(I1
I1
tg7
I00
S'-{\x89\xb9\xffX\xf0\xbf'
tbsS'GTEX-RM2N'
p660
g3
(g4
(I0
tS'b'
tRp661
(I1
(I1
I1
tg7
I00
S'\xf9]\xef\xf4GL\xf3?'
tbsS'GTEX-13FHP'
p662
g3
(g4
(I0
tS'b'
tRp663
(I1
(I1
I1
tg7
I00
S'\xfb\x9bTw\xc0\xae\xf5?'
tbsS'GTEX-XMD3'
p664
g3
(g4
(I0
tS'b'
tRp665
(I1
(I1
I1
tg7
I00
S'4\x88;+{G\x02@'
tbsS'GTEX-XMD2'
p666
g3
(g4
(I0
tS'b'
tRp667
(I1
(I1
I1
tg7
I00
S'\xe7\x87j\xba\xee\xd9\xe3?'
tbsS'GTEX-XMD1'
p668
g3
(g4
(I0
tS'b'
tRp669
(I1
(I1
I1
tg7
I00
S'\x0f\xb0;K\xd7\x94\r\xc0'
tbsS'GTEX-11TUW'
p670
g3
(g4
(I0
tS'b'
tRp671
(I1
(I1
I1
tg7
I00
S'rDU\x15\x86\xf8\xfa\xbf'
tbsS'GTEX-U412'
p672
g3
(g4
(I0
tS'b'
tRp673
(I1
(I1
I1
tg7
I00
S'F\xb4\x04\xc9\x83\x05\xd2?'
tbsS'GTEX-1339X'
p674
g3
(g4
(I0
tS'b'
tRp675
(I1
(I1
I1
tg7
I00
S'\xc6\xde\xaf\xc0\xce\xf8\xb7?'
tbsS'GTEX-XV7Q'
p676
g3
(g4
(I0
tS'b'
tRp677
(I1
(I1
I1
tg7
I00
S'\xd7\x9c\x84%\xb0\xb5\xee\xbf'
tbsS'GTEX-12126'
p678
g3
(g4
(I0
tS'b'
tRp679
(I1
(I1
I1
tg7
I00
S'I\xb8X\xa1\xb6~\x00@'
tbsS'GTEX-ZLWG'
p680
g3
(g4
(I0
tS'b'
tRp681
(I1
(I1
I1
tg7
I00
S'\xc2\r\xd8\xf9\xa2X\xf5?'
tbsS'GTEX-VJYA'
p682
g3
(g4
(I0
tS'b'
tRp683
(I1
(I1
I1
tg7
I00
S')\x7f\x84y\x05\x12\x04\xc0'
tbsS'GTEX-ZTX8'
p684
g3
(g4
(I0
tS'b'
tRp685
(I1
(I1
I1
tg7
I00
S'\xb5\x1e9g\xdd\xf1\x13@'
tbsS'GTEX-ZVT2'
p686
g3
(g4
(I0
tS'b'
tRp687
(I1
(I1
I1
tg7
I00
S'\r\x03\xbd\xf5\x91\x0f\xdd?'
tbsS'GTEX-ZVT3'
p688
g3
(g4
(I0
tS'b'
tRp689
(I1
(I1
I1
tg7
I00
S'\x0c)\xc2\xe7\xd1\x02\xee?'
tbsS'GTEX-WXYG'
p690
g3
(g4
(I0
tS'b'
tRp691
(I1
(I1
I1
tg7
I00
S'\x89\xaa\xaff\x00\xb4\x1e@'
tbsS'GTEX-ZVT4'
p692
g3
(g4
(I0
tS'b'
tRp693
(I1
(I1
I1
tg7
I00
S'\xde\x82G\xa2*\x07\x11\xc0'
tbsS'GTEX-POYW'
p694
g3
(g4
(I0
tS'b'
tRp695
(I1
(I1
I1
tg7
I00
S'W\x18q\x90!\x8a\x15@'
tbsS'GTEX-13FTY'
p696
g3
(g4
(I0
tS'b'
tRp697
(I1
(I1
I1
tg7
I00
S'\x95Q\xc7\x0b+=\xd4\xbf'
tbsS'GTEX-13FTX'
p698
g3
(g4
(I0
tS'b'
tRp699
(I1
(I1
I1
tg7
I00
S'\xa1\x83\xd2fs\x12\xe0\xbf'
tbsS'GTEX-13FTZ'
p700
g3
(g4
(I0
tS'b'
tRp701
(I1
(I1
I1
tg7
I00
S'\x05\x0b\x85\xb4\x9c&\xf2\xbf'
tbsS'GTEX-TMZS'
p702
g3
(g4
(I0
tS'b'
tRp703
(I1
(I1
I1
tg7
I00
S'\x87|S\x9c]J\x15@'
tbsS'GTEX-W5X1'
p704
g3
(g4
(I0
tS'b'
tRp705
(I1
(I1
I1
tg7
I00
S'`(\xfa\xf1\xd8j\xed?'
tbsS'GTEX-ZAJG'
p706
g3
(g4
(I0
tS'b'
tRp707
(I1
(I1
I1
tg7
I00
S'r1^\x9d\x8f\xda\xf3\xbf'
tbsS'GTEX-SNMC'
p708
g3
(g4
(I0
tS'b'
tRp709
(I1
(I1
I1
tg7
I00
S'\xe5\x7fl\xaf\xf9\x99\xd0?'
tbsS'GTEX-13FTW'
p710
g3
(g4
(I0
tS'b'
tRp711
(I1
(I1
I1
tg7
I00
S'e\xeeJ\x974\xf4\x00\xc0'
tbsS'GTEX-11NUK'
p712
g3
(g4
(I0
tS'b'
tRp713
(I1
(I1
I1
tg7
I00
S'\xac\x9e\x1b\xd5t\xf8\xca?'
tbsS'GTEX-ZVTK'
p714
g3
(g4
(I0
tS'b'
tRp715
(I1
(I1
I1
tg7
I00
S'\x80#W\xa1\xb6\xb0\x00@'
tbsS'GTEX-ZZ64'
p716
g3
(g4
(I0
tS'b'
tRp717
(I1
(I1
I1
tg7
I00
S'\xca\xf9\x9e\n\xdcN\x01@'
tbsS'GTEX-PWO3'
p718
g3
(g4
(I0
tS'b'
tRp719
(I1
(I1
I1
tg7
I00
S'\xf9\xf1\xfa\x8f\x9b\x05\x0e@'
tbsS'GTEX-13NYS'
p720
g3
(g4
(I0
tS'b'
tRp721
(I1
(I1
I1
tg7
I00
S'\xdf!\xe7\x0e\xc2L\xe2?'
tbsS'GTEX-1212Z'
p722
g3
(g4
(I0
tS'b'
tRp723
(I1
(I1
I1
tg7
I00
S'\x1d\xd0\xaf\xc9\xfb\x8d\xf2?'
tbsS'GTEX-11I78'
p724
g3
(g4
(I0
tS'b'
tRp725
(I1
(I1
I1
tg7
I00
S'\xca\xact\xc7E?\xf1\xbf'
tbsS'GTEX-13NYB'
p726
g3
(g4
(I0
tS'b'
tRp727
(I1
(I1
I1
tg7
I00
S'\xf7^\x16\x13\xc8\xb9\xe8?'
tbsS'GTEX-13NYC'
p728
g3
(g4
(I0
tS'b'
tRp729
(I1
(I1
I1
tg7
I00
S'\xc3\x97\x99\xea\x16\xff\x07@'
tbsS'GTEX-Y9LG'
p730
g3
(g4
(I0
tS'b'
tRp731
(I1
(I1
I1
tg7
I00
S'\x96\x19v\x16\xcb\xb7\xf2?'
tbsS'GTEX-X5EB'
p732
g3
(g4
(I0
tS'b'
tRp733
(I1
(I1
I1
tg7
I00
S'\xe6\xd9\xf3\xd2\xe6\xe2\xd5\xbf'
tbsS'GTEX-1399Q'
p734
g3
(g4
(I0
tS'b'
tRp735
(I1
(I1
I1
tg7
I00
S"\xc86J\xac'n\xd9\xbf"
tbsS'GTEX-1399R'
p736
g3
(g4
(I0
tS'b'
tRp737
(I1
(I1
I1
tg7
I00
S'R\xd9%\xee\xf0~\xd5\xbf'
tbsS'GTEX-1399U'
p738
g3
(g4
(I0
tS'b'
tRp739
(I1
(I1
I1
tg7
I00
S'\x97\xdf\xc8/\xfeY\xf6?'
tbsS'GTEX-1399T'
p740
g3
(g4
(I0
tS'b'
tRp741
(I1
(I1
I1
tg7
I00
S'\xc7\x9cw\xebE\xa0\xc4\xbf'
tbsS'GTEX-13X6I'
p742
g3
(g4
(I0
tS'b'
tRp743
(I1
(I1
I1
tg7
I00
S'\xfdw\xf9\xb1\x13\x18\xdc?'
tbsS'GTEX-13X6H'
p744
g3
(g4
(I0
tS'b'
tRp745
(I1
(I1
I1
tg7
I00
S'\x9d}\xf2\xaf\x02\x8c\xb5\xbf'
tbsS'GTEX-13X6K'
p746
g3
(g4
(I0
tS'b'
tRp747
(I1
(I1
I1
tg7
I00
S'_0\x16\xfc$,\xda\xbf'
tbsS'GTEX-13X6J'
p748
g3
(g4
(I0
tS'b'
tRp749
(I1
(I1
I1
tg7
I00
S'\x04\x82Y\xf7@\xfa\xe1?'
tbsS'GTEX-ZXG5'
p750
g3
(g4
(I0
tS'b'
tRp751
(I1
(I1
I1
tg7
I00
S'\x02\x82\xb2\xc0\x85\xc6\xc1?'
tbsS'GTEX-11ZU8'
p752
g3
(g4
(I0
tS'b'
tRp753
(I1
(I1
I1
tg7
I00
S'\xbdI\xde\xfbwE\xf3?'
tbsS'GTEX-QVJO'
p754
g3
(g4
(I0
tS'b'
tRp755
(I1
(I1
I1
tg7
I00
S'\xbb\xeda1\xa1C\xbe?'
tbsS'GTEX-RWS6'
p756
g3
(g4
(I0
tS'b'
tRp757
(I1
(I1
I1
tg7
I00
S'\xbd\x16*\x84\xa6\xa8\xf3?'
tbsS'GTEX-ZP4G'
p758
g3
(g4
(I0
tS'b'
tRp759
(I1
(I1
I1
tg7
I00
S'l\x1a\xa76k\xe0\n@'
tbsS'GTEX-Y8E4'
p760
g3
(g4
(I0
tS'b'
tRp761
(I1
(I1
I1
tg7
I00
S'Xn\x98k\xdej\xf2\xbf'
tbsS'GTEX-Y8E5'
p762
g3
(g4
(I0
tS'b'
tRp763
(I1
(I1
I1
tg7
I00
S'\x84w\x9e>ww\xf4?'
tbsS'GTEX-WH7G'
p764
g3
(g4
(I0
tS'b'
tRp765
(I1
(I1
I1
tg7
I00
S'6z\xe3\xfat\x99\x11@'
tbsS'GTEX-WEY5'
p766
g3
(g4
(I0
tS'b'
tRp767
(I1
(I1
I1
tg7
I00
S'-"\xcec\xcaG\xf3?'
tbsS'GTEX-11P7K'
p768
g3
(g4
(I0
tS'b'
tRp769
(I1
(I1
I1
tg7
I00
S"\x9a\x8bn'\xf2\x87\xd1?"
tbsS'GTEX-S7PM'
p770
g3
(g4
(I0
tS'b'
tRp771
(I1
(I1
I1
tg7
I00
S'\xfa\x9d\xe8\x9f\x04\x0e\x06\xc0'
tbsS'GTEX-V1D1'
p772
g3
(g4
(I0
tS'b'
tRp773
(I1
(I1
I1
tg7
I00
S'\xe3>\xae0\xd8\x8f\xfb\xbf'
tbsS'GTEX-WRHK'
p774
g3
(g4
(I0
tS'b'
tRp775
(I1
(I1
I1
tg7
I00
S'B\xd6e\xb7\x8b\x93\x04@'
tbsS'GTEX-R55C'
p776
g3
(g4
(I0
tS'b'
tRp777
(I1
(I1
I1
tg7
I00
S'\xa2/Yz\x81\xe8\xe5?'
tbsS'GTEX-R55F'
p778
g3
(g4
(I0
tS'b'
tRp779
(I1
(I1
I1
tg7
I00
S'\xb1\x93\x15SY\xc5\x07\xc0'
tbsS'GTEX-R55G'
p780
g3
(g4
(I0
tS'b'
tRp781
(I1
(I1
I1
tg7
I00
S'r\xd1LCDy\xc5?'
tbsS'GTEX-R55D'
p782
g3
(g4
(I0
tS'b'
tRp783
(I1
(I1
I1
tg7
I00
S'\xdb\xa4\xd0\xff\xfb\xff\xf3\xbf'
tbsS'GTEX-R55E'
p784
g3
(g4
(I0
tS'b'
tRp785
(I1
(I1
I1
tg7
I00
S'^\xbdJ\xc2\xec\x03\xd7?'
tbsS'GTEX-PSDG'
p786
g3
(g4
(I0
tS'b'
tRp787
(I1
(I1
I1
tg7
I00
S'\xed/\xcf\xdeM\xf2\xd9?'
tbsS'GTEX-RWSA'
p788
g3
(g4
(I0
tS'b'
tRp789
(I1
(I1
I1
tg7
I00
S'Y\xc0\xad\xf8wG\x02@'
tbsS'GTEX-1122O'
p790
g3
(g4
(I0
tS'b'
tRp791
(I1
(I1
I1
tg7
I00
S'8.N%\x97#\x00\xc0'
tbsS'GTEX-X4EO'
p792
g3
(g4
(I0
tS'b'
tRp793
(I1
(I1
I1
tg7
I00
S'\xd2p(\xa2h\xa2\xea\xbf'
tbsS'GTEX-WVLH'
p794
g3
(g4
(I0
tS'b'
tRp795
(I1
(I1
I1
tg7
I00
S'*\x99\x1a\xc5$e\xf3?'
tbsS'GTEX-WYVS'
p796
g3
(g4
(I0
tS'b'
tRp797
(I1
(I1
I1
tg7
I00
S'\xff\x87F\x02e\xf0\x0e@'
tbsS'GTEX-X4EP'
p798
g3
(g4
(I0
tS'b'
tRp799
(I1
(I1
I1
tg7
I00
S']\r\xe1}\xaee\xf4\xbf'
tbsS'GTEX-XAJ8'
p800
g3
(g4
(I0
tS'b'
tRp801
(I1
(I1
I1
tg7
I00
S'oqH\xb7V\t\x03\xc0'
tbsS'GTEX-RU1J'
p802
g3
(g4
(I0
tS'b'
tRp803
(I1
(I1
I1
tg7
I00
S'\xda\xb0Q\x80\xfb\xec\xc6?'
tbsS'GTEX-11GSP'
p804
g3
(g4
(I0
tS'b'
tRp805
(I1
(I1
I1
tg7
I00
S'O\xd6j\x13{\xdc\xef?'
tbsS'GTEX-12ZZX'
p806
g3
(g4
(I0
tS'b'
tRp807
(I1
(I1
I1
tg7
I00
S'u\xc4\xae\x0c\\\x84\x00\xc0'
tbsS'GTEX-12ZZY'
p808
g3
(g4
(I0
tS'b'
tRp809
(I1
(I1
I1
tg7
I00
S'\x85Rf\xdf\xfe\x05\xdd\xbf'
tbsS'GTEX-12ZZZ'
p810
g3
(g4
(I0
tS'b'
tRp811
(I1
(I1
I1
tg7
I00
S' \xee\xde%\x1b\xa4\xf8?'
tbsS'GTEX-11PRG'
p812
g3
(g4
(I0
tS'b'
tRp813
(I1
(I1
I1
tg7
I00
S'\xc5iL\x8c\x11\xf7\xe4\xbf'
tbsS'GTEX-SN8G'
p814
g3
(g4
(I0
tS'b'
tRp815
(I1
(I1
I1
tg7
I00
S'}\xe7\x03\x9d\xbe~\xe4?'
tbsS'GTEX-ZVP2'
p816
g3
(g4
(I0
tS'b'
tRp817
(I1
(I1
I1
tg7
I00
S'\xb8\t\x0b\x84O\xd0\xd2\xbf'
tbsS'GTEX-12ZZW'
p818
g3
(g4
(I0
tS'b'
tRp819
(I1
(I1
I1
tg7
I00
S'\xb0\xa6\xf7\xce\xa0,\xdc\xbf'
tbsS'GTEX-13W3W'
p820
g3
(g4
(I0
tS'b'
tRp821
(I1
(I1
I1
tg7
I00
S'\xa7dZ6\xf3\xdb\xf6?'
tbsS'GTEX-S4Z8'
p822
g3
(g4
(I0
tS'b'
tRp823
(I1
(I1
I1
tg7
I00
S'_\x9cq\x17\x95\xda\xe7?'
tbsS'GTEX-1211K'
p824
g3
(g4
(I0
tS'b'
tRp825
(I1
(I1
I1
tg7
I00
S'e\x85\xfa;\x11\xb8\x0f\xc0'
tbsS'GTEX-ZG7Y'
p826
g3
(g4
(I0
tS'b'
tRp827
(I1
(I1
I1
tg7
I00
S'R\xecw\x14)C\xd3?'
tbsS'GTEX-POMQ'
p828
g3
(g4
(I0
tS'b'
tRp829
(I1
(I1
I1
tg7
I00
S'D\xf6\xa8\x1b\xc6\xb7\x07\xc0'
tbsS'GTEX-QCQG'
p830
g3
(g4
(I0
tS'b'
tRp831
(I1
(I1
I1
tg7
I00
S'\xbb\xca!\x07Au\xe9?'
tbsS'GTEX-11DYG'
p832
g3
(g4
(I0
tS'b'
tRp833
(I1
(I1
I1
tg7
I00
S'D\x81\xa4i7\x86\x0c@'
tbsS'GTEX-S95S'
p834
g3
(g4
(I0
tS'b'
tRp835
(I1
(I1
I1
tg7
I00
S'\xa6\xfe\xe3\x0e\xb3-\x02@'
tbsS'GTEX-Y5V6'
p836
g3
(g4
(I0
tS'b'
tRp837
(I1
(I1
I1
tg7
I00
S'\x94\x17L\x05\xd9\xe1\n@'
tbsS'GTEX-Y5V5'
p838
g3
(g4
(I0
tS'b'
tRp839
(I1
(I1
I1
tg7
I00
S'g\xed-\xd9\xe8\xe9\x0b\xc0'
tbsS'GTEX-139YR'
p840
g3
(g4
(I0
tS'b'
tRp841
(I1
(I1
I1
tg7
I00
S'U<\x88\x8b4>\xe3?'
tbsS'GTEX-QDT8'
p842
g3
(g4
(I0
tS'b'
tRp843
(I1
(I1
I1
tg7
I00
S'\xae$\xd9/\xfa{\xd1\xbf'
tbsS'GTEX-QXCU'
p844
g3
(g4
(I0
tS'b'
tRp845
(I1
(I1
I1
tg7
I00
S'\xa2\xe3\xd8\x83\x8d\x89\xf0?'
tbsS'GTEX-YBZK'
p846
g3
(g4
(I0
tS'b'
tRp847
(I1
(I1
I1
tg7
I00
S'\x00\xdeDg\x9a\xb1\xe8\xbf'
tbsS'GTEX-SSA3'
p848
g3
(g4
(I0
tS'b'
tRp849
(I1
(I1
I1
tg7
I00
S']\xc4\xe9)^\x0b\xf8?'
tbsS'GTEX-PX3G'
p850
g3
(g4
(I0
tS'b'
tRp851
(I1
(I1
I1
tg7
I00
S'f\xe7MtV\xfe\xfb\xbf'
tbsS'GTEX-V955'
p852
g3
(g4
(I0
tS'b'
tRp853
(I1
(I1
I1
tg7
I00
S'\x89\xe7\xd7i\x1b\xd8\xdc?'
tbsS'GTEX-11TTK'
p854
g3
(g4
(I0
tS'b'
tRp855
(I1
(I1
I1
tg7
I00
S'm2_=\xb6q\xe0?'
tbsS'GTEX-ZV7C'
p856
g3
(g4
(I0
tS'b'
tRp857
(I1
(I1
I1
tg7
I00
S'8\x9dkO\x14\xfe\x0c@'
tbsS'GTEX-11ZVC'
p858
g3
(g4
(I0
tS'b'
tRp859
(I1
(I1
I1
tg7
I00
S'Y\n\\\xfb\x9bP\xf0?'
tbsS'GTEX-11EI6'
p860
g3
(g4
(I0
tS'b'
tRp861
(I1
(I1
I1
tg7
I00
S'\xb9ey\xc5\x0f\x1f\xfe\xbf'
tbsS'GTEX-145MG'
p862
g3
(g4
(I0
tS'b'
tRp863
(I1
(I1
I1
tg7
I00
S'\xcd\xd3\xa6V\xace\xf3?'
tbsS'GTEX-11TT1'
p864
g3
(g4
(I0
tS'b'
tRp865
(I1
(I1
I1
tg7
I00
S's\x13<S$4\xf0\xbf'
tbsS'GTEX-ZGAY'
p866
g3
(g4
(I0
tS'b'
tRp867
(I1
(I1
I1
tg7
I00
S'\xa2\xb6\x18\x9d\xb1o\xc3\xbf'
tbsS'GTEX-R45C'
p868
g3
(g4
(I0
tS'b'
tRp869
(I1
(I1
I1
tg7
I00
S'\xcc\xf2q\xe1p\xc0\xe0?'
tbsS'GTEX-YB5E'
p870
g3
(g4
(I0
tS'b'
tRp871
(I1
(I1
I1
tg7
I00
S'\xfa\xcb\x12\xear\xd7\xfa\xbf'
tbsS'GTEX-YB5K'
p872
g3
(g4
(I0
tS'b'
tRp873
(I1
(I1
I1
tg7
I00
S'w\\o6\x17\xaa\x01\xc0'
tbsS'GTEX-RUSQ'
p874
g3
(g4
(I0
tS'b'
tRp875
(I1
(I1
I1
tg7
I00
S'\x8eq\xca\xce\xff\xb5\xf9\xbf'
tbsS'GTEX-VJWN'
p876
g3
(g4
(I0
tS'b'
tRp877
(I1
(I1
I1
tg7
I00
S'\x1e\xb77BR\xb9\x07\xc0'
tbsS'GTEX-U8XE'
p878
g3
(g4
(I0
tS'b'
tRp879
(I1
(I1
I1
tg7
I00
S'\x1a\xab\x12EBd\xde\xbf'
tbsS'GTEX-XQ8I'
p880
g3
(g4
(I0
tS'b'
tRp881
(I1
(I1
I1
tg7
I00
S'-\x03\x7f\x7f$U\xa3?'
tbsS'GTEX-SNOS'
p882
g3
(g4
(I0
tS'b'
tRp883
(I1
(I1
I1
tg7
I00
S'\x84+\xd0\xe4\x9f\x1a\n\xc0'
tbsS'GTEX-QV31'
p884
g3
(g4
(I0
tS'b'
tRp885
(I1
(I1
I1
tg7
I00
S'\x94[\x96GO\xfb\xfc\xbf'
tbsS'GTEX-S7SE'
p886
g3
(g4
(I0
tS'b'
tRp887
(I1
(I1
I1
tg7
I00
S'\xb67\xef\xce5$\xdb\xbf'
tbsS'GTEX-145MF'
p888
g3
(g4
(I0
tS'b'
tRp889
(I1
(I1
I1
tg7
I00
S'\xdd\xca\xd9\xd3\n\xb0\x07\xc0'
tbsS'GTEX-S7SF'
p890
g3
(g4
(I0
tS'b'
tRp891
(I1
(I1
I1
tg7
I00
S'\xec\x8d\xb2\xe8\x0b\xde\x06@'
tbsS'GTEX-145MH'
p892
g3
(g4
(I0
tS'b'
tRp893
(I1
(I1
I1
tg7
I00
S'\xb2|\xb34<\x8c\x07\xc0'
tbsS'GTEX-WYJK'
p894
g3
(g4
(I0
tS'b'
tRp895
(I1
(I1
I1
tg7
I00
S'nF\xde\xd1\xa5q\xc8\xbf'
tbsS'GTEX-145MO'
p896
g3
(g4
(I0
tS'b'
tRp897
(I1
(I1
I1
tg7
I00
S'`\xb9\x85H|\t\xff?'
tbs.